
Clovec_bioloid.elf:     file format elf32-avr

Sections:
Idx Name          Size      VMA       LMA       File off  Algn
  0 .data         0000007c  00800100  000096d2  00009766  2**0
                  CONTENTS, ALLOC, LOAD, DATA
  1 .text         000096d2  00000000  00000000  00000094  2**1
                  CONTENTS, ALLOC, LOAD, READONLY, CODE
  2 .bss          0000034f  0080017c  0080017c  000097e2  2**0
                  ALLOC
  3 .debug_aranges 00000020  00000000  00000000  000097e2  2**0
                  CONTENTS, READONLY, DEBUGGING
  4 .debug_pubnames 00000d8b  00000000  00000000  00009802  2**0
                  CONTENTS, READONLY, DEBUGGING
  5 .debug_info   00007e45  00000000  00000000  0000a58d  2**0
                  CONTENTS, READONLY, DEBUGGING
  6 .debug_abbrev 000004f8  00000000  00000000  000123d2  2**0
                  CONTENTS, READONLY, DEBUGGING
  7 .debug_line   00007a93  00000000  00000000  000128ca  2**0
                  CONTENTS, READONLY, DEBUGGING
  8 .debug_frame  00000790  00000000  00000000  0001a360  2**2
                  CONTENTS, READONLY, DEBUGGING
  9 .debug_str    00002a9a  00000000  00000000  0001aaf0  2**0
                  CONTENTS, READONLY, DEBUGGING
 10 .debug_loc    00000905  00000000  00000000  0001d58a  2**0
                  CONTENTS, READONLY, DEBUGGING
 11 .debug_ranges 00000180  00000000  00000000  0001de8f  2**0
                  CONTENTS, READONLY, DEBUGGING

Disassembly of section .text:

00000000 <__vectors>:
       0:	0c 94 47 00 	jmp	0x8e	; 0x8e <__ctors_end>
       4:	0c 94 71 00 	jmp	0xe2	; 0xe2 <__bad_interrupt>
       8:	0c 94 71 00 	jmp	0xe2	; 0xe2 <__bad_interrupt>
       c:	0c 94 71 00 	jmp	0xe2	; 0xe2 <__bad_interrupt>
      10:	0c 94 71 00 	jmp	0xe2	; 0xe2 <__bad_interrupt>
      14:	0c 94 71 00 	jmp	0xe2	; 0xe2 <__bad_interrupt>
      18:	0c 94 71 00 	jmp	0xe2	; 0xe2 <__bad_interrupt>
      1c:	0c 94 71 00 	jmp	0xe2	; 0xe2 <__bad_interrupt>
      20:	0c 94 71 00 	jmp	0xe2	; 0xe2 <__bad_interrupt>
      24:	0c 94 71 00 	jmp	0xe2	; 0xe2 <__bad_interrupt>
      28:	0c 94 71 00 	jmp	0xe2	; 0xe2 <__bad_interrupt>
      2c:	0c 94 71 00 	jmp	0xe2	; 0xe2 <__bad_interrupt>
      30:	0c 94 71 00 	jmp	0xe2	; 0xe2 <__bad_interrupt>
      34:	0c 94 71 00 	jmp	0xe2	; 0xe2 <__bad_interrupt>
      38:	0c 94 71 00 	jmp	0xe2	; 0xe2 <__bad_interrupt>
      3c:	0c 94 71 00 	jmp	0xe2	; 0xe2 <__bad_interrupt>
      40:	0c 94 ff 00 	jmp	0x1fe	; 0x1fe <__vector_16>
      44:	0c 94 71 00 	jmp	0xe2	; 0xe2 <__bad_interrupt>
      48:	0c 94 dd 4a 	jmp	0x95ba	; 0x95ba <__vector_18>
      4c:	0c 94 b1 01 	jmp	0x362	; 0x362 <__vector_19>
      50:	0c 94 71 00 	jmp	0xe2	; 0xe2 <__bad_interrupt>
      54:	0c 94 71 00 	jmp	0xe2	; 0xe2 <__bad_interrupt>
      58:	0c 94 71 00 	jmp	0xe2	; 0xe2 <__bad_interrupt>
      5c:	0c 94 71 00 	jmp	0xe2	; 0xe2 <__bad_interrupt>
      60:	0c 94 71 00 	jmp	0xe2	; 0xe2 <__bad_interrupt>
      64:	0c 94 71 00 	jmp	0xe2	; 0xe2 <__bad_interrupt>
      68:	0c 94 71 00 	jmp	0xe2	; 0xe2 <__bad_interrupt>
      6c:	0c 94 71 00 	jmp	0xe2	; 0xe2 <__bad_interrupt>
      70:	0c 94 71 00 	jmp	0xe2	; 0xe2 <__bad_interrupt>
      74:	0c 94 71 00 	jmp	0xe2	; 0xe2 <__bad_interrupt>
      78:	0c 94 91 0b 	jmp	0x1722	; 0x1722 <__vector_30>
      7c:	0c 94 84 00 	jmp	0x108	; 0x108 <__vector_31>
      80:	0c 94 71 00 	jmp	0xe2	; 0xe2 <__bad_interrupt>
      84:	0c 94 71 00 	jmp	0xe2	; 0xe2 <__bad_interrupt>
      88:	0c 94 71 00 	jmp	0xe2	; 0xe2 <__bad_interrupt>

0000008c <__ctors_start>:
      8c:	0f 4b       	sbci	r16, 0xBF	; 191

0000008e <__ctors_end>:
      8e:	11 24       	eor	r1, r1
      90:	1f be       	out	0x3f, r1	; 63
      92:	cf ef       	ldi	r28, 0xFF	; 255
      94:	d0 e1       	ldi	r29, 0x10	; 16
      96:	de bf       	out	0x3e, r29	; 62
      98:	cd bf       	out	0x3d, r28	; 61

0000009a <__do_copy_data>:
      9a:	11 e0       	ldi	r17, 0x01	; 1
      9c:	a0 e0       	ldi	r26, 0x00	; 0
      9e:	b1 e0       	ldi	r27, 0x01	; 1
      a0:	e2 ed       	ldi	r30, 0xD2	; 210
      a2:	f6 e9       	ldi	r31, 0x96	; 150
      a4:	00 e0       	ldi	r16, 0x00	; 0
      a6:	0b bf       	out	0x3b, r16	; 59
      a8:	02 c0       	rjmp	.+4      	; 0xae <__do_copy_data+0x14>
      aa:	07 90       	elpm	r0, Z+
      ac:	0d 92       	st	X+, r0
      ae:	ac 37       	cpi	r26, 0x7C	; 124
      b0:	b1 07       	cpc	r27, r17
      b2:	d9 f7       	brne	.-10     	; 0xaa <__do_copy_data+0x10>

000000b4 <__do_clear_bss>:
      b4:	14 e0       	ldi	r17, 0x04	; 4
      b6:	ac e7       	ldi	r26, 0x7C	; 124
      b8:	b1 e0       	ldi	r27, 0x01	; 1
      ba:	01 c0       	rjmp	.+2      	; 0xbe <.do_clear_bss_start>

000000bc <.do_clear_bss_loop>:
      bc:	1d 92       	st	X+, r1

000000be <.do_clear_bss_start>:
      be:	ab 3c       	cpi	r26, 0xCB	; 203
      c0:	b1 07       	cpc	r27, r17
      c2:	e1 f7       	brne	.-8      	; 0xbc <.do_clear_bss_loop>

000000c4 <__do_global_ctors>:
      c4:	10 e0       	ldi	r17, 0x00	; 0
      c6:	ce e8       	ldi	r28, 0x8E	; 142
      c8:	d0 e0       	ldi	r29, 0x00	; 0
      ca:	04 c0       	rjmp	.+8      	; 0xd4 <.do_global_ctors_start>

000000cc <.do_global_ctors_loop>:
      cc:	22 97       	sbiw	r28, 0x02	; 2
      ce:	fe 01       	movw	r30, r28
      d0:	0e 94 63 4b 	call	0x96c6	; 0x96c6 <__tablejump__>

000000d4 <.do_global_ctors_start>:
      d4:	cc 38       	cpi	r28, 0x8C	; 140
      d6:	d1 07       	cpc	r29, r17
      d8:	c9 f7       	brne	.-14     	; 0xcc <.do_global_ctors_loop>
      da:	0e 94 4d 4a 	call	0x949a	; 0x949a <main>
      de:	0c 94 67 4b 	jmp	0x96ce	; 0x96ce <_exit>

000000e2 <__bad_interrupt>:
      e2:	0c 94 00 00 	jmp	0	; 0x0 <__vectors>

000000e6 <_Z3absl>:
			m_data[pointer] = ch;
		pointer = 0;
	}
};

int32_t abs(int32_t n)
      e6:	ac 01       	movw	r20, r24
      e8:	cb 01       	movw	r24, r22
      ea:	da 01       	movw	r26, r20
      ec:	9c 01       	movw	r18, r24
      ee:	ad 01       	movw	r20, r26
      f0:	57 ff       	sbrs	r21, 7
      f2:	07 c0       	rjmp	.+14     	; 0x102 <_Z3absl+0x1c>
      f4:	50 95       	com	r21
      f6:	40 95       	com	r20
      f8:	30 95       	com	r19
      fa:	21 95       	neg	r18
      fc:	3f 4f       	sbci	r19, 0xFF	; 255
      fe:	4f 4f       	sbci	r20, 0xFF	; 255
     100:	5f 4f       	sbci	r21, 0xFF	; 255
{
	return n<0?-n:n;
}
     102:	b9 01       	movw	r22, r18
     104:	ca 01       	movw	r24, r20
     106:	08 95       	ret

00000108 <__vector_31>:
		}
	}
	else
		state = 0;
}
ISR(USART1_UDRE_vect)
     108:	1f 92       	push	r1
     10a:	0f 92       	push	r0
     10c:	0f b6       	in	r0, 0x3f	; 63
     10e:	0f 92       	push	r0
     110:	0b b6       	in	r0, 0x3b	; 59
     112:	0f 92       	push	r0
     114:	11 24       	eor	r1, r1
     116:	2f 93       	push	r18
     118:	3f 93       	push	r19
     11a:	8f 93       	push	r24
     11c:	9f 93       	push	r25
     11e:	ef 93       	push	r30
     120:	ff 93       	push	r31
	volatile uint16_t m_write;
public:
	volatile bool overwrite;
	bool is_empty() const
	{
		if(m_write == m_read)
     122:	20 91 43 02 	lds	r18, 0x0243
     126:	30 91 44 02 	lds	r19, 0x0244
     12a:	80 91 41 02 	lds	r24, 0x0241
     12e:	90 91 42 02 	lds	r25, 0x0242
     132:	28 17       	cp	r18, r24
     134:	39 07       	cpc	r19, r25
     136:	a1 f4       	brne	.+40     	; 0x160 <__vector_31+0x58>
     138:	0d c0       	rjmp	.+26     	; 0x154 <__vector_31+0x4c>
		return true;
	}
	T pop ()
	{
		if(is_empty())
			return m[m_read];
     13a:	e0 91 41 02 	lds	r30, 0x0241
     13e:	f0 91 42 02 	lds	r31, 0x0242
     142:	ef 51       	subi	r30, 0x1F	; 31
     144:	fe 4f       	sbci	r31, 0xFE	; 254
     146:	e0 81       	ld	r30, Z
     148:	2d c0       	rjmp	.+90     	; 0x1a4 <__vector_31+0x9c>
		T data = m[m_read];
		if(++m_read == size)
			m_read = 0;
     14a:	10 92 42 02 	sts	0x0242, r1
     14e:	10 92 41 02 	sts	0x0241, r1
     152:	28 c0       	rjmp	.+80     	; 0x1a4 <__vector_31+0x9c>
{
	char data;
	if(pc.data_out(data))
		UDR1 = data;
	else
		UCSR1B &= ~(1<<UDRIE1);
     154:	80 91 9a 00 	lds	r24, 0x009A
     158:	8f 7d       	andi	r24, 0xDF	; 223
     15a:	80 93 9a 00 	sts	0x009A, r24
     15e:	24 c0       	rjmp	.+72     	; 0x1a8 <__vector_31+0xa0>
	volatile uint16_t m_write;
public:
	volatile bool overwrite;
	bool is_empty() const
	{
		if(m_write == m_read)
     160:	20 91 43 02 	lds	r18, 0x0243
     164:	30 91 44 02 	lds	r19, 0x0244
     168:	80 91 41 02 	lds	r24, 0x0241
     16c:	90 91 42 02 	lds	r25, 0x0242
     170:	28 17       	cp	r18, r24
     172:	39 07       	cpc	r19, r25
     174:	11 f3       	breq	.-60     	; 0x13a <__vector_31+0x32>
	}
	T pop ()
	{
		if(is_empty())
			return m[m_read];
		T data = m[m_read];
     176:	e0 91 41 02 	lds	r30, 0x0241
     17a:	f0 91 42 02 	lds	r31, 0x0242
     17e:	ef 51       	subi	r30, 0x1F	; 31
     180:	fe 4f       	sbci	r31, 0xFE	; 254
     182:	e0 81       	ld	r30, Z
		if(++m_read == size)
     184:	80 91 41 02 	lds	r24, 0x0241
     188:	90 91 42 02 	lds	r25, 0x0242
     18c:	01 96       	adiw	r24, 0x01	; 1
     18e:	90 93 42 02 	sts	0x0242, r25
     192:	80 93 41 02 	sts	0x0241, r24
     196:	80 91 41 02 	lds	r24, 0x0241
     19a:	90 91 42 02 	lds	r25, 0x0242
     19e:	80 36       	cpi	r24, 0x60	; 96
     1a0:	91 05       	cpc	r25, r1
     1a2:	99 f2       	breq	.-90     	; 0x14a <__vector_31+0x42>
}
ISR(USART1_UDRE_vect)
{
	char data;
	if(pc.data_out(data))
		UDR1 = data;
     1a4:	e0 93 9c 00 	sts	0x009C, r30
	else
		UCSR1B &= ~(1<<UDRIE1);
}
     1a8:	ff 91       	pop	r31
     1aa:	ef 91       	pop	r30
     1ac:	9f 91       	pop	r25
     1ae:	8f 91       	pop	r24
     1b0:	3f 91       	pop	r19
     1b2:	2f 91       	pop	r18
     1b4:	0f 90       	pop	r0
     1b6:	0b be       	out	0x3b, r0	; 59
     1b8:	0f 90       	pop	r0
     1ba:	0f be       	out	0x3f, r0	; 63
     1bc:	0f 90       	pop	r0
     1be:	1f 90       	pop	r1
     1c0:	18 95       	reti

000001c2 <_Z8syncWaitm>:
Funguje od 2 do 4294967294 us
Zadava se v us pro F_CPU 16000000
*/ 
void syncWait(uint32_t time)
{
	time -= 2;
     1c2:	62 50       	subi	r22, 0x02	; 2
     1c4:	70 40       	sbci	r23, 0x00	; 0
     1c6:	80 40       	sbci	r24, 0x00	; 0
     1c8:	90 40       	sbci	r25, 0x00	; 0
	...
	__asm__ volatile ("nop");
	__asm__ volatile ("nop");
	__asm__ volatile ("nop");
	__asm__ volatile ("nop");
	__asm__ volatile ("nop");
	__asm__ volatile ("nop");
     1d6:	20 e0       	ldi	r18, 0x00	; 0
     1d8:	30 e0       	ldi	r19, 0x00	; 0
     1da:	40 e0       	ldi	r20, 0x00	; 0
     1dc:	50 e0       	ldi	r21, 0x00	; 0
	for(uint32_t i = 0; i < time; ++i)
     1de:	26 17       	cp	r18, r22
     1e0:	37 07       	cpc	r19, r23
     1e2:	48 07       	cpc	r20, r24
     1e4:	59 07       	cpc	r21, r25
     1e6:	50 f4       	brcc	.+20     	; 0x1fc <_Z8syncWaitm+0x3a>
	...
	{
		for(uint8_t j = 0; j < 5; ++j)
		{
			__asm__ volatile ("nop");
     1f0:	00 00       	nop
	__asm__ volatile ("nop");
	__asm__ volatile ("nop");
	__asm__ volatile ("nop");
	__asm__ volatile ("nop");
	__asm__ volatile ("nop");
	for(uint32_t i = 0; i < time; ++i)
     1f2:	2f 5f       	subi	r18, 0xFF	; 255
     1f4:	3f 4f       	sbci	r19, 0xFF	; 255
     1f6:	4f 4f       	sbci	r20, 0xFF	; 255
     1f8:	5f 4f       	sbci	r21, 0xFF	; 255
     1fa:	f1 cf       	rjmp	.-30     	; 0x1de <_Z8syncWaitm+0x1c>
     1fc:	08 95       	ret

000001fe <__vector_16>:
			return g_stopwatch_tickCounter + (TCNT0>>1) - offset;
		return time;
	}
};

ISR(TIMER0_OVF_vect)
     1fe:	1f 92       	push	r1
     200:	0f 92       	push	r0
     202:	0f b6       	in	r0, 0x3f	; 63
     204:	0f 92       	push	r0
     206:	11 24       	eor	r1, r1
     208:	8f 93       	push	r24
     20a:	9f 93       	push	r25
     20c:	af 93       	push	r26
     20e:	bf 93       	push	r27
{
	g_stopwatch_tickCounter += 128;
     210:	80 91 6a 02 	lds	r24, 0x026A
     214:	90 91 6b 02 	lds	r25, 0x026B
     218:	a0 91 6c 02 	lds	r26, 0x026C
     21c:	b0 91 6d 02 	lds	r27, 0x026D
     220:	80 58       	subi	r24, 0x80	; 128
     222:	9f 4f       	sbci	r25, 0xFF	; 255
     224:	af 4f       	sbci	r26, 0xFF	; 255
     226:	bf 4f       	sbci	r27, 0xFF	; 255
     228:	80 93 6a 02 	sts	0x026A, r24
     22c:	90 93 6b 02 	sts	0x026B, r25
     230:	a0 93 6c 02 	sts	0x026C, r26
     234:	b0 93 6d 02 	sts	0x026D, r27
}
     238:	bf 91       	pop	r27
     23a:	af 91       	pop	r26
     23c:	9f 91       	pop	r25
     23e:	8f 91       	pop	r24
     240:	0f 90       	pop	r0
     242:	0f be       	out	0x3f, r0	; 63
     244:	0f 90       	pop	r0
     246:	1f 90       	pop	r1
     248:	18 95       	reti

0000024a <_Z4waitRKm>:

void wait(const uint32_t &time)
     24a:	af 92       	push	r10
     24c:	bf 92       	push	r11
     24e:	cf 92       	push	r12
     250:	df 92       	push	r13
     252:	ef 92       	push	r14
     254:	ff 92       	push	r15
     256:	0f 93       	push	r16
     258:	1f 93       	push	r17
     25a:	fc 01       	movw	r30, r24
	uint32_t time;
	bool running;
public:
	stopwatch()
	{
		offset = g_stopwatch_tickCounter + (TCNT0>>1);
     25c:	20 91 6a 02 	lds	r18, 0x026A
     260:	30 91 6b 02 	lds	r19, 0x026B
     264:	40 91 6c 02 	lds	r20, 0x026C
     268:	50 91 6d 02 	lds	r21, 0x026D
     26c:	82 b7       	in	r24, 0x32	; 50
     26e:	90 e0       	ldi	r25, 0x00	; 0
     270:	95 95       	asr	r25
     272:	87 95       	ror	r24
     274:	aa 27       	eor	r26, r26
     276:	97 fd       	sbrc	r25, 7
     278:	a0 95       	com	r26
     27a:	ba 2f       	mov	r27, r26
     27c:	ee 24       	eor	r14, r14
     27e:	ff 24       	eor	r15, r15
     280:	87 01       	movw	r16, r14
     282:	e8 1a       	sub	r14, r24
     284:	f9 0a       	sbc	r15, r25
     286:	0a 0b       	sbc	r16, r26
     288:	1b 0b       	sbc	r17, r27
     28a:	e2 1a       	sub	r14, r18
     28c:	f3 0a       	sbc	r15, r19
     28e:	04 0b       	sbc	r16, r20
     290:	15 0b       	sbc	r17, r21
}

void wait(const uint32_t &time)
{
	stopwatch s;
	while(time > s.getTime()){}
     292:	a0 80       	ld	r10, Z
     294:	b1 80       	ldd	r11, Z+1	; 0x01
     296:	c2 80       	ldd	r12, Z+2	; 0x02
     298:	d3 80       	ldd	r13, Z+3	; 0x03
		time = 0;
	}
	uint32_t getTime()
	{
		if(running)
			return g_stopwatch_tickCounter + (TCNT0>>1) - offset;
     29a:	20 91 6a 02 	lds	r18, 0x026A
     29e:	30 91 6b 02 	lds	r19, 0x026B
     2a2:	40 91 6c 02 	lds	r20, 0x026C
     2a6:	50 91 6d 02 	lds	r21, 0x026D
     2aa:	82 b7       	in	r24, 0x32	; 50
}

void wait(const uint32_t &time)
{
	stopwatch s;
	while(time > s.getTime()){}
     2ac:	90 e0       	ldi	r25, 0x00	; 0
     2ae:	95 95       	asr	r25
     2b0:	87 95       	ror	r24
     2b2:	aa 27       	eor	r26, r26
     2b4:	97 fd       	sbrc	r25, 7
     2b6:	a0 95       	com	r26
     2b8:	ba 2f       	mov	r27, r26
     2ba:	82 0f       	add	r24, r18
     2bc:	93 1f       	adc	r25, r19
     2be:	a4 1f       	adc	r26, r20
     2c0:	b5 1f       	adc	r27, r21
     2c2:	8e 0d       	add	r24, r14
     2c4:	9f 1d       	adc	r25, r15
     2c6:	a0 1f       	adc	r26, r16
     2c8:	b1 1f       	adc	r27, r17
     2ca:	8a 15       	cp	r24, r10
     2cc:	9b 05       	cpc	r25, r11
     2ce:	ac 05       	cpc	r26, r12
     2d0:	bd 05       	cpc	r27, r13
     2d2:	18 f3       	brcs	.-58     	; 0x29a <_Z4waitRKm+0x50>
}
     2d4:	1f 91       	pop	r17
     2d6:	0f 91       	pop	r16
     2d8:	ff 90       	pop	r15
     2da:	ef 90       	pop	r14
     2dc:	df 90       	pop	r13
     2de:	cf 90       	pop	r12
     2e0:	bf 90       	pop	r11
     2e2:	af 90       	pop	r10
     2e4:	08 95       	ret

000002e6 <_ZN11dynamixel_t4peekERh>:
	void wait()
	{
		while(!is_send()) {}
	}

	bool peek(uint8_t & data)
     2e6:	cf 93       	push	r28
     2e8:	df 93       	push	r29
     2ea:	ac 01       	movw	r20, r24
     2ec:	eb 01       	movw	r28, r22
	volatile uint16_t m_write;
public:
	volatile bool overwrite;
	bool is_empty() const
	{
		if(m_write == m_read)
     2ee:	fc 01       	movw	r30, r24
     2f0:	ee 59       	subi	r30, 0x9E	; 158
     2f2:	ff 4f       	sbci	r31, 0xFF	; 255
     2f4:	20 81       	ld	r18, Z
     2f6:	31 81       	ldd	r19, Z+1	; 0x01
     2f8:	dc 01       	movw	r26, r24
     2fa:	a0 5a       	subi	r26, 0xA0	; 160
     2fc:	bf 4f       	sbci	r27, 0xFF	; 255
     2fe:	8d 91       	ld	r24, X+
     300:	9c 91       	ld	r25, X
     302:	11 97       	sbiw	r26, 0x01	; 1
     304:	28 17       	cp	r18, r24
     306:	39 07       	cpc	r19, r25
     308:	81 f4       	brne	.+32     	; 0x32a <_ZN11dynamixel_t4peekERh+0x44>
     30a:	80 e0       	ldi	r24, 0x00	; 0
     30c:	0b c0       	rjmp	.+22     	; 0x324 <_ZN11dynamixel_t4peekERh+0x3e>
		return true;
	}
	T pop ()
	{
		if(is_empty())
			return m[m_read];
     30e:	ed 91       	ld	r30, X+
     310:	fc 91       	ld	r31, X
     312:	e4 0f       	add	r30, r20
     314:	f5 1f       	adc	r31, r21
     316:	e0 81       	ld	r30, Z
     318:	03 c0       	rjmp	.+6      	; 0x320 <_ZN11dynamixel_t4peekERh+0x3a>
		T data = m[m_read];
		if(++m_read == size)
			m_read = 0;
     31a:	11 96       	adiw	r26, 0x01	; 1
     31c:	1c 92       	st	X, r1
     31e:	1e 92       	st	-X, r1

	bool peek(uint8_t & data)
	{
		if(m_rx.is_empty())
			return false;
		data = m_rx.pop();
     320:	e8 83       	st	Y, r30
     322:	81 e0       	ldi	r24, 0x01	; 1
		return true;
	}
     324:	df 91       	pop	r29
     326:	cf 91       	pop	r28
     328:	08 95       	ret
	volatile uint16_t m_write;
public:
	volatile bool overwrite;
	bool is_empty() const
	{
		if(m_write == m_read)
     32a:	20 81       	ld	r18, Z
     32c:	31 81       	ldd	r19, Z+1	; 0x01
     32e:	8d 91       	ld	r24, X+
     330:	9c 91       	ld	r25, X
     332:	11 97       	sbiw	r26, 0x01	; 1
     334:	28 17       	cp	r18, r24
     336:	39 07       	cpc	r19, r25
     338:	51 f3       	breq	.-44     	; 0x30e <_ZN11dynamixel_t4peekERh+0x28>
	}
	T pop ()
	{
		if(is_empty())
			return m[m_read];
		T data = m[m_read];
     33a:	ed 91       	ld	r30, X+
     33c:	fc 91       	ld	r31, X
     33e:	11 97       	sbiw	r26, 0x01	; 1
     340:	e4 0f       	add	r30, r20
     342:	f5 1f       	adc	r31, r21
     344:	e0 81       	ld	r30, Z
		if(++m_read == size)
     346:	8d 91       	ld	r24, X+
     348:	9c 91       	ld	r25, X
     34a:	11 97       	sbiw	r26, 0x01	; 1
     34c:	01 96       	adiw	r24, 0x01	; 1
     34e:	11 96       	adiw	r26, 0x01	; 1
     350:	9c 93       	st	X, r25
     352:	8e 93       	st	-X, r24
     354:	8d 91       	ld	r24, X+
     356:	9c 91       	ld	r25, X
     358:	11 97       	sbiw	r26, 0x01	; 1
     35a:	80 36       	cpi	r24, 0x60	; 96
     35c:	91 05       	cpc	r25, r1
     35e:	01 f7       	brne	.-64     	; 0x320 <_ZN11dynamixel_t4peekERh+0x3a>
     360:	dc cf       	rjmp	.-72     	; 0x31a <_ZN11dynamixel_t4peekERh+0x34>

00000362 <__vector_19>:
	char ch = UDR0;
	if((UCSR0A & (1<<FE0)) == (1<<FE0))
		return;
	bus.data_in(ch);
}
ISR(USART0_UDRE_vect)
     362:	1f 92       	push	r1
     364:	0f 92       	push	r0
     366:	0f b6       	in	r0, 0x3f	; 63
     368:	0f 92       	push	r0
     36a:	0b b6       	in	r0, 0x3b	; 59
     36c:	0f 92       	push	r0
     36e:	11 24       	eor	r1, r1
     370:	2f 93       	push	r18
     372:	3f 93       	push	r19
     374:	8f 93       	push	r24
     376:	9f 93       	push	r25
     378:	ef 93       	push	r30
     37a:	ff 93       	push	r31
	volatile uint16_t m_write;
public:
	volatile bool overwrite;
	bool is_empty() const
	{
		if(m_write == m_read)
     37c:	20 91 35 03 	lds	r18, 0x0335
     380:	30 91 36 03 	lds	r19, 0x0336
     384:	80 91 33 03 	lds	r24, 0x0333
     388:	90 91 34 03 	lds	r25, 0x0334
     38c:	28 17       	cp	r18, r24
     38e:	39 07       	cpc	r19, r25
     390:	81 f4       	brne	.+32     	; 0x3b2 <__vector_19+0x50>
     392:	0d c0       	rjmp	.+26     	; 0x3ae <__vector_19+0x4c>
		return true;
	}
	T pop ()
	{
		if(is_empty())
			return m[m_read];
     394:	e0 91 33 03 	lds	r30, 0x0333
     398:	f0 91 34 03 	lds	r31, 0x0334
     39c:	ed 52       	subi	r30, 0x2D	; 45
     39e:	fd 4f       	sbci	r31, 0xFD	; 253
     3a0:	e0 81       	ld	r30, Z
     3a2:	29 c0       	rjmp	.+82     	; 0x3f6 <__vector_19+0x94>
		T data = m[m_read];
		if(++m_read == size)
			m_read = 0;
     3a4:	10 92 34 03 	sts	0x0334, r1
     3a8:	10 92 33 03 	sts	0x0333, r1
     3ac:	24 c0       	rjmp	.+72     	; 0x3f6 <__vector_19+0x94>
	}
	else
	{
		//PORTE &= ~(1<<PE2);
		//PORTE |= (1<<PE3);
		UCSR0B &= ~(1<<UDRIE0);
     3ae:	55 98       	cbi	0x0a, 5	; 10
     3b0:	23 c0       	rjmp	.+70     	; 0x3f8 <__vector_19+0x96>
	volatile uint16_t m_write;
public:
	volatile bool overwrite;
	bool is_empty() const
	{
		if(m_write == m_read)
     3b2:	20 91 35 03 	lds	r18, 0x0335
     3b6:	30 91 36 03 	lds	r19, 0x0336
     3ba:	80 91 33 03 	lds	r24, 0x0333
     3be:	90 91 34 03 	lds	r25, 0x0334
     3c2:	28 17       	cp	r18, r24
     3c4:	39 07       	cpc	r19, r25
     3c6:	31 f3       	breq	.-52     	; 0x394 <__vector_19+0x32>
	}
	T pop ()
	{
		if(is_empty())
			return m[m_read];
		T data = m[m_read];
     3c8:	e0 91 33 03 	lds	r30, 0x0333
     3cc:	f0 91 34 03 	lds	r31, 0x0334
     3d0:	ed 52       	subi	r30, 0x2D	; 45
     3d2:	fd 4f       	sbci	r31, 0xFD	; 253
     3d4:	e0 81       	ld	r30, Z
		if(++m_read == size)
     3d6:	80 91 33 03 	lds	r24, 0x0333
     3da:	90 91 34 03 	lds	r25, 0x0334
     3de:	01 96       	adiw	r24, 0x01	; 1
     3e0:	90 93 34 03 	sts	0x0334, r25
     3e4:	80 93 33 03 	sts	0x0333, r24
     3e8:	80 91 33 03 	lds	r24, 0x0333
     3ec:	90 91 34 03 	lds	r25, 0x0334
     3f0:	80 36       	cpi	r24, 0x60	; 96
     3f2:	91 05       	cpc	r25, r1
     3f4:	b9 f2       	breq	.-82     	; 0x3a4 <__vector_19+0x42>
	uint8_t data;
	if(bus.data_out(data))
	{
		//PORTE &= ~(1<<PE3);
		//PORTE |= (1<<PE2);
		UDR0 = data;
     3f6:	ec b9       	out	0x0c, r30	; 12
	{
		//PORTE &= ~(1<<PE2);
		//PORTE |= (1<<PE3);
		UCSR0B &= ~(1<<UDRIE0);
	}
}
     3f8:	ff 91       	pop	r31
     3fa:	ef 91       	pop	r30
     3fc:	9f 91       	pop	r25
     3fe:	8f 91       	pop	r24
     400:	3f 91       	pop	r19
     402:	2f 91       	pop	r18
     404:	0f 90       	pop	r0
     406:	0b be       	out	0x3b, r0	; 59
     408:	0f 90       	pop	r0
     40a:	0f be       	out	0x3f, r0	; 63
     40c:	0f 90       	pop	r0
     40e:	1f 90       	pop	r1
     410:	18 95       	reti

00000412 <_ZN5led_t3txdEh>:

public:

	void txd(uint8_t stav)
	{
		switch(stav)
     412:	61 30       	cpi	r22, 0x01	; 1
     414:	29 f0       	breq	.+10     	; 0x420 <_ZN5led_t3txdEh+0xe>
     416:	61 30       	cpi	r22, 0x01	; 1
     418:	38 f0       	brcs	.+14     	; 0x428 <_ZN5led_t3txdEh+0x16>
     41a:	62 30       	cpi	r22, 0x02	; 2
     41c:	41 f4       	brne	.+16     	; 0x42e <_ZN5led_t3txdEh+0x1c>
     41e:	02 c0       	rjmp	.+4      	; 0x424 <_ZN5led_t3txdEh+0x12>
			case 0:
				PORTC |= (1<<PC1);
				break;

			case 1:
				PORTC &= ~(1<<PC1);
     420:	a9 98       	cbi	0x15, 1	; 21
     422:	08 95       	ret
				break;

			case 2:
				if((PINC & (1<<PC1)) == 0)
     424:	99 99       	sbic	0x13, 1	; 19
     426:	02 c0       	rjmp	.+4      	; 0x42c <_ZN5led_t3txdEh+0x1a>
					PORTC |= (1<<PC1);
     428:	a9 9a       	sbi	0x15, 1	; 21
     42a:	08 95       	ret
				else
					PORTC &= ~(1<<PC1);
     42c:	a9 98       	cbi	0x15, 1	; 21
     42e:	08 95       	ret

00000430 <_ZN5led_t3rxdEh>:
				break;
		}
	}
	void rxd(uint8_t stav)
	{
		switch(stav)
     430:	61 30       	cpi	r22, 0x01	; 1
     432:	29 f0       	breq	.+10     	; 0x43e <_ZN5led_t3rxdEh+0xe>
     434:	61 30       	cpi	r22, 0x01	; 1
     436:	38 f0       	brcs	.+14     	; 0x446 <_ZN5led_t3rxdEh+0x16>
     438:	62 30       	cpi	r22, 0x02	; 2
     43a:	41 f4       	brne	.+16     	; 0x44c <_ZN5led_t3rxdEh+0x1c>
     43c:	02 c0       	rjmp	.+4      	; 0x442 <_ZN5led_t3rxdEh+0x12>
			case 0:
				PORTC |= (1<<PC2);
				break;

			case 1:
				PORTC &= ~(1<<PC2);
     43e:	aa 98       	cbi	0x15, 2	; 21
     440:	08 95       	ret
				break;

			case 2:
				if((PINC & (1<<PC2)) == 0)
     442:	9a 99       	sbic	0x13, 2	; 19
     444:	02 c0       	rjmp	.+4      	; 0x44a <_ZN5led_t3rxdEh+0x1a>
					PORTC |= (1<<PC2);
     446:	aa 9a       	sbi	0x15, 2	; 21
     448:	08 95       	ret
				else
					PORTC &= ~(1<<PC2);
     44a:	aa 98       	cbi	0x15, 2	; 21
     44c:	08 95       	ret

0000044e <_ZN5led_t6manageEh>:
				break;
		}
	}
	void manage(uint8_t stav)
	{
		switch(stav)
     44e:	61 30       	cpi	r22, 0x01	; 1
     450:	29 f0       	breq	.+10     	; 0x45c <_ZN5led_t6manageEh+0xe>
     452:	61 30       	cpi	r22, 0x01	; 1
     454:	38 f0       	brcs	.+14     	; 0x464 <_ZN5led_t6manageEh+0x16>
     456:	62 30       	cpi	r22, 0x02	; 2
     458:	41 f4       	brne	.+16     	; 0x46a <_ZN5led_t6manageEh+0x1c>
     45a:	02 c0       	rjmp	.+4      	; 0x460 <_ZN5led_t6manageEh+0x12>
			case 0:
				PORTC |= (1<<PC4);
				break;

			case 1:
				PORTC &= ~(1<<PC4);
     45c:	ac 98       	cbi	0x15, 4	; 21
     45e:	08 95       	ret
				break;

			case 2:
				if((PINC & (1<<PC4)) == 0)
     460:	9c 99       	sbic	0x13, 4	; 19
     462:	02 c0       	rjmp	.+4      	; 0x468 <_ZN5led_t6manageEh+0x1a>
					PORTC |= (1<<PC4);
     464:	ac 9a       	sbi	0x15, 4	; 21
     466:	08 95       	ret
				else
					PORTC &= ~(1<<PC4);
     468:	ac 98       	cbi	0x15, 4	; 21
     46a:	08 95       	ret

0000046c <_ZN5led_t7programEh>:
				break;
		}
	}
	void program(uint8_t stav)
	{
		switch(stav)
     46c:	61 30       	cpi	r22, 0x01	; 1
     46e:	29 f0       	breq	.+10     	; 0x47a <_ZN5led_t7programEh+0xe>
     470:	61 30       	cpi	r22, 0x01	; 1
     472:	38 f0       	brcs	.+14     	; 0x482 <_ZN5led_t7programEh+0x16>
     474:	62 30       	cpi	r22, 0x02	; 2
     476:	41 f4       	brne	.+16     	; 0x488 <_ZN5led_t7programEh+0x1c>
     478:	02 c0       	rjmp	.+4      	; 0x47e <_ZN5led_t7programEh+0x12>
			case 0:
				PORTC |= (1<<PC5);
				break;

			case 1:
				PORTC &= ~(1<<PC5);
     47a:	ad 98       	cbi	0x15, 5	; 21
     47c:	08 95       	ret
				break;

			case 2:
				if((PINC & (1<<PC5)) == 0)
     47e:	9d 99       	sbic	0x13, 5	; 19
     480:	02 c0       	rjmp	.+4      	; 0x486 <_ZN5led_t7programEh+0x1a>
					PORTC |= (1<<PC5);
     482:	ad 9a       	sbi	0x15, 5	; 21
     484:	08 95       	ret
				else
					PORTC &= ~(1<<PC5);
     486:	ad 98       	cbi	0x15, 5	; 21
     488:	08 95       	ret

0000048a <_ZN5led_t4playEh>:
				break;
		}
	}
	void play(uint8_t stav)
	{
		switch(stav)
     48a:	61 30       	cpi	r22, 0x01	; 1
     48c:	29 f0       	breq	.+10     	; 0x498 <_ZN5led_t4playEh+0xe>
     48e:	61 30       	cpi	r22, 0x01	; 1
     490:	38 f0       	brcs	.+14     	; 0x4a0 <_ZN5led_t4playEh+0x16>
     492:	62 30       	cpi	r22, 0x02	; 2
     494:	41 f4       	brne	.+16     	; 0x4a6 <_ZN5led_t4playEh+0x1c>
     496:	02 c0       	rjmp	.+4      	; 0x49c <_ZN5led_t4playEh+0x12>
			case 0:
				PORTC |= (1<<PC6);
				break;

			case 1:
				PORTC &= ~(1<<PC6);
     498:	ae 98       	cbi	0x15, 6	; 21
     49a:	08 95       	ret
				break;

			case 2:
				if((PINC & (1<<PC6)) == 0)
     49c:	9e 99       	sbic	0x13, 6	; 19
     49e:	02 c0       	rjmp	.+4      	; 0x4a4 <_ZN5led_t4playEh+0x1a>
					PORTC |= (1<<PC6);
     4a0:	ae 9a       	sbi	0x15, 6	; 21
     4a2:	08 95       	ret
				else
					PORTC &= ~(1<<PC6);
     4a4:	ae 98       	cbi	0x15, 6	; 21
     4a6:	08 95       	ret

000004a8 <_Z19prepocet_klavesnicev>:
uint8_t tlacitka[5] = {0,0,0,0,0};


void prepocet_klavesnice()
{
	TL1 = 0;
     4a8:	10 92 20 04 	sts	0x0420, r1
     4ac:	10 92 1f 04 	sts	0x041F, r1
	TL2 = 0;
     4b0:	10 92 22 04 	sts	0x0422, r1
     4b4:	10 92 21 04 	sts	0x0421, r1
	TL3 = 0;
     4b8:	10 92 24 04 	sts	0x0424, r1
     4bc:	10 92 23 04 	sts	0x0423, r1
	TL4 = 0;
     4c0:	10 92 26 04 	sts	0x0426, r1
     4c4:	10 92 25 04 	sts	0x0425, r1
	TL5 = 0;
     4c8:	10 92 28 04 	sts	0x0428, r1
     4cc:	10 92 27 04 	sts	0x0427, r1
	TL6 = 0;
     4d0:	10 92 2a 04 	sts	0x042A, r1
     4d4:	10 92 29 04 	sts	0x0429, r1
	TL7 = 0;
     4d8:	10 92 2c 04 	sts	0x042C, r1
     4dc:	10 92 2b 04 	sts	0x042B, r1
	TL8 = 0;
     4e0:	10 92 2e 04 	sts	0x042E, r1
     4e4:	10 92 2d 04 	sts	0x042D, r1
	TL9 = 0;
     4e8:	10 92 30 04 	sts	0x0430, r1
     4ec:	10 92 2f 04 	sts	0x042F, r1
	TL10 = 0;
     4f0:	10 92 32 04 	sts	0x0432, r1
     4f4:	10 92 31 04 	sts	0x0431, r1
	TL11 = 0;
     4f8:	10 92 34 04 	sts	0x0434, r1
     4fc:	10 92 33 04 	sts	0x0433, r1
	TL12 = 0;
     500:	10 92 36 04 	sts	0x0436, r1
     504:	10 92 35 04 	sts	0x0435, r1
	TL13 = 0;
     508:	10 92 38 04 	sts	0x0438, r1
     50c:	10 92 37 04 	sts	0x0437, r1
	TL14 = 0;
     510:	10 92 3a 04 	sts	0x043A, r1
     514:	10 92 39 04 	sts	0x0439, r1
	TL15 = 0;
     518:	10 92 3c 04 	sts	0x043C, r1
     51c:	10 92 3b 04 	sts	0x043B, r1
	TL16 = 0;
     520:	10 92 3e 04 	sts	0x043E, r1
     524:	10 92 3d 04 	sts	0x043D, r1
	TL17 = 0;
     528:	10 92 40 04 	sts	0x0440, r1
     52c:	10 92 3f 04 	sts	0x043F, r1
	TL18 = 0;
     530:	10 92 42 04 	sts	0x0442, r1
     534:	10 92 41 04 	sts	0x0441, r1
	TL19 = 0;
     538:	10 92 44 04 	sts	0x0444, r1
     53c:	10 92 43 04 	sts	0x0443, r1
	TL20 = 0;
     540:	10 92 46 04 	sts	0x0446, r1
     544:	10 92 45 04 	sts	0x0445, r1
	TL21 = 0;
     548:	10 92 48 04 	sts	0x0448, r1
     54c:	10 92 47 04 	sts	0x0447, r1
	TL22 = 0;
     550:	10 92 4a 04 	sts	0x044A, r1
     554:	10 92 49 04 	sts	0x0449, r1
	TL23 = 0;
     558:	10 92 4c 04 	sts	0x044C, r1
     55c:	10 92 4b 04 	sts	0x044B, r1
	TL24 = 0;
     560:	10 92 4e 04 	sts	0x044E, r1
     564:	10 92 4d 04 	sts	0x044D, r1
	TL25 = 0;
     568:	10 92 50 04 	sts	0x0450, r1
     56c:	10 92 4f 04 	sts	0x044F, r1
	TL26 = 0;
     570:	10 92 52 04 	sts	0x0452, r1
     574:	10 92 51 04 	sts	0x0451, r1
	TL27 = 0;
     578:	10 92 54 04 	sts	0x0454, r1
     57c:	10 92 53 04 	sts	0x0453, r1
	TL28 = 0;
     580:	10 92 56 04 	sts	0x0456, r1
     584:	10 92 55 04 	sts	0x0455, r1
	TL29 = 0;
     588:	10 92 58 04 	sts	0x0458, r1
     58c:	10 92 57 04 	sts	0x0457, r1
	TL30 = 0;
     590:	10 92 5a 04 	sts	0x045A, r1
     594:	10 92 59 04 	sts	0x0459, r1
	TL31 = 0;
     598:	10 92 5c 04 	sts	0x045C, r1
     59c:	10 92 5b 04 	sts	0x045B, r1
	TL32 = 0;
     5a0:	10 92 5e 04 	sts	0x045E, r1
     5a4:	10 92 5d 04 	sts	0x045D, r1
	TL33 = 0;
     5a8:	10 92 60 04 	sts	0x0460, r1
     5ac:	10 92 5f 04 	sts	0x045F, r1
	TL34 = 0;
     5b0:	10 92 62 04 	sts	0x0462, r1
     5b4:	10 92 61 04 	sts	0x0461, r1
	TL35 = 0;
     5b8:	10 92 64 04 	sts	0x0464, r1
     5bc:	10 92 63 04 	sts	0x0463, r1
	TL36 = 0;
     5c0:	10 92 66 04 	sts	0x0466, r1
     5c4:	10 92 65 04 	sts	0x0465, r1
	TL37 = 0;
     5c8:	10 92 68 04 	sts	0x0468, r1
     5cc:	10 92 67 04 	sts	0x0467, r1
	TL38 = 0;
     5d0:	10 92 6a 04 	sts	0x046A, r1
     5d4:	10 92 69 04 	sts	0x0469, r1
	TL39 = 0;
     5d8:	10 92 6c 04 	sts	0x046C, r1
     5dc:	10 92 6b 04 	sts	0x046B, r1
	TL40 = 0;
     5e0:	10 92 6e 04 	sts	0x046E, r1
     5e4:	10 92 6d 04 	sts	0x046D, r1

	if (tlacitka[0] == 129 or tlacitka[0] == 65 or tlacitka[0] == 33 or tlacitka[0] == 17 or tlacitka[0] == 9 or tlacitka[0] == 5 or tlacitka[0] == 3 or tlacitka[0] == 1)
     5e8:	20 91 c5 04 	lds	r18, 0x04C5
     5ec:	21 38       	cpi	r18, 0x81	; 129
     5ee:	71 f0       	breq	.+28     	; 0x60c <_Z19prepocet_klavesnicev+0x164>
     5f0:	21 34       	cpi	r18, 0x41	; 65
     5f2:	61 f0       	breq	.+24     	; 0x60c <_Z19prepocet_klavesnicev+0x164>
     5f4:	21 32       	cpi	r18, 0x21	; 33
     5f6:	51 f0       	breq	.+20     	; 0x60c <_Z19prepocet_klavesnicev+0x164>
     5f8:	21 31       	cpi	r18, 0x11	; 17
     5fa:	41 f0       	breq	.+16     	; 0x60c <_Z19prepocet_klavesnicev+0x164>
     5fc:	29 30       	cpi	r18, 0x09	; 9
     5fe:	31 f0       	breq	.+12     	; 0x60c <_Z19prepocet_klavesnicev+0x164>
     600:	25 30       	cpi	r18, 0x05	; 5
     602:	21 f0       	breq	.+8      	; 0x60c <_Z19prepocet_klavesnicev+0x164>
     604:	23 30       	cpi	r18, 0x03	; 3
     606:	11 f0       	breq	.+4      	; 0x60c <_Z19prepocet_klavesnicev+0x164>
     608:	21 30       	cpi	r18, 0x01	; 1
     60a:	31 f4       	brne	.+12     	; 0x618 <_Z19prepocet_klavesnicev+0x170>
	{
		TL1 = 1;
     60c:	81 e0       	ldi	r24, 0x01	; 1
     60e:	90 e0       	ldi	r25, 0x00	; 0
     610:	90 93 20 04 	sts	0x0420, r25
     614:	80 93 1f 04 	sts	0x041F, r24
	}
	if (tlacitka[0] == 130 or tlacitka[0] == 66 or tlacitka[0] == 34 or tlacitka[0] == 18 or tlacitka[0] == 10 or tlacitka[0] == 6 or tlacitka[0] == 3 or tlacitka[0] == 2)
     618:	22 38       	cpi	r18, 0x82	; 130
     61a:	71 f0       	breq	.+28     	; 0x638 <_Z19prepocet_klavesnicev+0x190>
     61c:	22 34       	cpi	r18, 0x42	; 66
     61e:	61 f0       	breq	.+24     	; 0x638 <_Z19prepocet_klavesnicev+0x190>
     620:	22 32       	cpi	r18, 0x22	; 34
     622:	51 f0       	breq	.+20     	; 0x638 <_Z19prepocet_klavesnicev+0x190>
     624:	22 31       	cpi	r18, 0x12	; 18
     626:	41 f0       	breq	.+16     	; 0x638 <_Z19prepocet_klavesnicev+0x190>
     628:	2a 30       	cpi	r18, 0x0A	; 10
     62a:	31 f0       	breq	.+12     	; 0x638 <_Z19prepocet_klavesnicev+0x190>
     62c:	26 30       	cpi	r18, 0x06	; 6
     62e:	21 f0       	breq	.+8      	; 0x638 <_Z19prepocet_klavesnicev+0x190>
     630:	23 30       	cpi	r18, 0x03	; 3
     632:	11 f0       	breq	.+4      	; 0x638 <_Z19prepocet_klavesnicev+0x190>
     634:	22 30       	cpi	r18, 0x02	; 2
     636:	31 f4       	brne	.+12     	; 0x644 <_Z19prepocet_klavesnicev+0x19c>
	{
		TL2 = 1;
     638:	81 e0       	ldi	r24, 0x01	; 1
     63a:	90 e0       	ldi	r25, 0x00	; 0
     63c:	90 93 22 04 	sts	0x0422, r25
     640:	80 93 21 04 	sts	0x0421, r24
	}
	if (tlacitka[0] == 132 or tlacitka[0] == 68 or tlacitka[0] == 36 or tlacitka[0] == 20 or tlacitka[0] == 12 or tlacitka[0] == 6 or tlacitka[0] == 5 or tlacitka[0] == 4)
     644:	24 38       	cpi	r18, 0x84	; 132
     646:	71 f0       	breq	.+28     	; 0x664 <_Z19prepocet_klavesnicev+0x1bc>
     648:	24 34       	cpi	r18, 0x44	; 68
     64a:	61 f0       	breq	.+24     	; 0x664 <_Z19prepocet_klavesnicev+0x1bc>
     64c:	24 32       	cpi	r18, 0x24	; 36
     64e:	51 f0       	breq	.+20     	; 0x664 <_Z19prepocet_klavesnicev+0x1bc>
     650:	24 31       	cpi	r18, 0x14	; 20
     652:	41 f0       	breq	.+16     	; 0x664 <_Z19prepocet_klavesnicev+0x1bc>
     654:	2c 30       	cpi	r18, 0x0C	; 12
     656:	31 f0       	breq	.+12     	; 0x664 <_Z19prepocet_klavesnicev+0x1bc>
     658:	26 30       	cpi	r18, 0x06	; 6
     65a:	21 f0       	breq	.+8      	; 0x664 <_Z19prepocet_klavesnicev+0x1bc>
     65c:	25 30       	cpi	r18, 0x05	; 5
     65e:	11 f0       	breq	.+4      	; 0x664 <_Z19prepocet_klavesnicev+0x1bc>
     660:	24 30       	cpi	r18, 0x04	; 4
     662:	31 f4       	brne	.+12     	; 0x670 <_Z19prepocet_klavesnicev+0x1c8>
	{
		TL3 = 1;
     664:	81 e0       	ldi	r24, 0x01	; 1
     666:	90 e0       	ldi	r25, 0x00	; 0
     668:	90 93 24 04 	sts	0x0424, r25
     66c:	80 93 23 04 	sts	0x0423, r24
	}
	if (tlacitka[0] == 136 or tlacitka[0] == 72 or tlacitka[0] == 40 or tlacitka[0] == 24 or tlacitka[0] == 12 or tlacitka[0] == 10 or tlacitka[0] == 9 or tlacitka[0] == 8)
     670:	28 38       	cpi	r18, 0x88	; 136
     672:	71 f0       	breq	.+28     	; 0x690 <_Z19prepocet_klavesnicev+0x1e8>
     674:	28 34       	cpi	r18, 0x48	; 72
     676:	61 f0       	breq	.+24     	; 0x690 <_Z19prepocet_klavesnicev+0x1e8>
     678:	28 32       	cpi	r18, 0x28	; 40
     67a:	51 f0       	breq	.+20     	; 0x690 <_Z19prepocet_klavesnicev+0x1e8>
     67c:	28 31       	cpi	r18, 0x18	; 24
     67e:	41 f0       	breq	.+16     	; 0x690 <_Z19prepocet_klavesnicev+0x1e8>
     680:	2c 30       	cpi	r18, 0x0C	; 12
     682:	31 f0       	breq	.+12     	; 0x690 <_Z19prepocet_klavesnicev+0x1e8>
     684:	2a 30       	cpi	r18, 0x0A	; 10
     686:	21 f0       	breq	.+8      	; 0x690 <_Z19prepocet_klavesnicev+0x1e8>
     688:	29 30       	cpi	r18, 0x09	; 9
     68a:	11 f0       	breq	.+4      	; 0x690 <_Z19prepocet_klavesnicev+0x1e8>
     68c:	28 30       	cpi	r18, 0x08	; 8
     68e:	31 f4       	brne	.+12     	; 0x69c <_Z19prepocet_klavesnicev+0x1f4>
	{
		TL4 = 1;
     690:	81 e0       	ldi	r24, 0x01	; 1
     692:	90 e0       	ldi	r25, 0x00	; 0
     694:	90 93 26 04 	sts	0x0426, r25
     698:	80 93 25 04 	sts	0x0425, r24
	}
	if (tlacitka[0] == 144 or tlacitka[0] == 80 or tlacitka[0] == 48 or tlacitka[0] == 32 or tlacitka[0] == 20 or tlacitka[0] == 18 or tlacitka[0] == 17 or tlacitka[0] == 16)
     69c:	20 39       	cpi	r18, 0x90	; 144
     69e:	71 f0       	breq	.+28     	; 0x6bc <_Z19prepocet_klavesnicev+0x214>
     6a0:	20 35       	cpi	r18, 0x50	; 80
     6a2:	61 f0       	breq	.+24     	; 0x6bc <_Z19prepocet_klavesnicev+0x214>
     6a4:	20 33       	cpi	r18, 0x30	; 48
     6a6:	51 f0       	breq	.+20     	; 0x6bc <_Z19prepocet_klavesnicev+0x214>
     6a8:	20 32       	cpi	r18, 0x20	; 32
     6aa:	41 f0       	breq	.+16     	; 0x6bc <_Z19prepocet_klavesnicev+0x214>
     6ac:	24 31       	cpi	r18, 0x14	; 20
     6ae:	31 f0       	breq	.+12     	; 0x6bc <_Z19prepocet_klavesnicev+0x214>
     6b0:	22 31       	cpi	r18, 0x12	; 18
     6b2:	21 f0       	breq	.+8      	; 0x6bc <_Z19prepocet_klavesnicev+0x214>
     6b4:	21 31       	cpi	r18, 0x11	; 17
     6b6:	11 f0       	breq	.+4      	; 0x6bc <_Z19prepocet_klavesnicev+0x214>
     6b8:	20 31       	cpi	r18, 0x10	; 16
     6ba:	31 f4       	brne	.+12     	; 0x6c8 <_Z19prepocet_klavesnicev+0x220>
	{
		TL5 = 1;
     6bc:	81 e0       	ldi	r24, 0x01	; 1
     6be:	90 e0       	ldi	r25, 0x00	; 0
     6c0:	90 93 28 04 	sts	0x0428, r25
     6c4:	80 93 27 04 	sts	0x0427, r24
	}
	if (tlacitka[0] == 160 or tlacitka[0] == 96 or tlacitka[0] == 48 or tlacitka[0] == 40 or tlacitka[0] == 36 or tlacitka[0] == 34 or tlacitka[0] == 33 or tlacitka[0] == 32)
     6c8:	20 3a       	cpi	r18, 0xA0	; 160
     6ca:	71 f0       	breq	.+28     	; 0x6e8 <_Z19prepocet_klavesnicev+0x240>
     6cc:	20 36       	cpi	r18, 0x60	; 96
     6ce:	61 f0       	breq	.+24     	; 0x6e8 <_Z19prepocet_klavesnicev+0x240>
     6d0:	20 33       	cpi	r18, 0x30	; 48
     6d2:	51 f0       	breq	.+20     	; 0x6e8 <_Z19prepocet_klavesnicev+0x240>
     6d4:	28 32       	cpi	r18, 0x28	; 40
     6d6:	41 f0       	breq	.+16     	; 0x6e8 <_Z19prepocet_klavesnicev+0x240>
     6d8:	24 32       	cpi	r18, 0x24	; 36
     6da:	31 f0       	breq	.+12     	; 0x6e8 <_Z19prepocet_klavesnicev+0x240>
     6dc:	22 32       	cpi	r18, 0x22	; 34
     6de:	21 f0       	breq	.+8      	; 0x6e8 <_Z19prepocet_klavesnicev+0x240>
     6e0:	21 32       	cpi	r18, 0x21	; 33
     6e2:	11 f0       	breq	.+4      	; 0x6e8 <_Z19prepocet_klavesnicev+0x240>
     6e4:	20 32       	cpi	r18, 0x20	; 32
     6e6:	31 f4       	brne	.+12     	; 0x6f4 <_Z19prepocet_klavesnicev+0x24c>
	{
		TL6 = 1;
     6e8:	81 e0       	ldi	r24, 0x01	; 1
     6ea:	90 e0       	ldi	r25, 0x00	; 0
     6ec:	90 93 2a 04 	sts	0x042A, r25
     6f0:	80 93 29 04 	sts	0x0429, r24
	}
	if (tlacitka[0] == 192 or tlacitka[0] == 96 or tlacitka[0] == 80 or tlacitka[0] == 72 or tlacitka[0] == 68 or tlacitka[0] == 66 or tlacitka[0] == 65 or tlacitka[0] == 64)
     6f4:	20 3c       	cpi	r18, 0xC0	; 192
     6f6:	71 f0       	breq	.+28     	; 0x714 <_Z19prepocet_klavesnicev+0x26c>
     6f8:	20 36       	cpi	r18, 0x60	; 96
     6fa:	61 f0       	breq	.+24     	; 0x714 <_Z19prepocet_klavesnicev+0x26c>
     6fc:	20 35       	cpi	r18, 0x50	; 80
     6fe:	51 f0       	breq	.+20     	; 0x714 <_Z19prepocet_klavesnicev+0x26c>
     700:	28 34       	cpi	r18, 0x48	; 72
     702:	41 f0       	breq	.+16     	; 0x714 <_Z19prepocet_klavesnicev+0x26c>
     704:	24 34       	cpi	r18, 0x44	; 68
     706:	31 f0       	breq	.+12     	; 0x714 <_Z19prepocet_klavesnicev+0x26c>
     708:	22 34       	cpi	r18, 0x42	; 66
     70a:	21 f0       	breq	.+8      	; 0x714 <_Z19prepocet_klavesnicev+0x26c>
     70c:	21 34       	cpi	r18, 0x41	; 65
     70e:	11 f0       	breq	.+4      	; 0x714 <_Z19prepocet_klavesnicev+0x26c>
     710:	20 34       	cpi	r18, 0x40	; 64
     712:	41 f4       	brne	.+16     	; 0x724 <_Z19prepocet_klavesnicev+0x27c>
	{
		TL7 = 1;
     714:	81 e0       	ldi	r24, 0x01	; 1
     716:	90 e0       	ldi	r25, 0x00	; 0
     718:	90 93 2c 04 	sts	0x042C, r25
     71c:	80 93 2b 04 	sts	0x042B, r24
	}
	if (tlacitka[0] == 192 or tlacitka[0] == 160 or tlacitka[0] == 144 or tlacitka[0] == 136 or tlacitka[0] == 132 or tlacitka[0] == 130 or tlacitka[0] == 131 or tlacitka[0] == 128)
     720:	20 3c       	cpi	r18, 0xC0	; 192
     722:	71 f0       	breq	.+28     	; 0x740 <_Z19prepocet_klavesnicev+0x298>
     724:	20 3a       	cpi	r18, 0xA0	; 160
     726:	61 f0       	breq	.+24     	; 0x740 <_Z19prepocet_klavesnicev+0x298>
     728:	20 39       	cpi	r18, 0x90	; 144
     72a:	51 f0       	breq	.+20     	; 0x740 <_Z19prepocet_klavesnicev+0x298>
     72c:	28 38       	cpi	r18, 0x88	; 136
     72e:	41 f0       	breq	.+16     	; 0x740 <_Z19prepocet_klavesnicev+0x298>
     730:	24 38       	cpi	r18, 0x84	; 132
     732:	31 f0       	breq	.+12     	; 0x740 <_Z19prepocet_klavesnicev+0x298>
     734:	22 38       	cpi	r18, 0x82	; 130
     736:	21 f0       	breq	.+8      	; 0x740 <_Z19prepocet_klavesnicev+0x298>
     738:	23 38       	cpi	r18, 0x83	; 131
     73a:	11 f0       	breq	.+4      	; 0x740 <_Z19prepocet_klavesnicev+0x298>
     73c:	20 38       	cpi	r18, 0x80	; 128
     73e:	31 f4       	brne	.+12     	; 0x74c <_Z19prepocet_klavesnicev+0x2a4>
	{
		TL8 = 1;
     740:	81 e0       	ldi	r24, 0x01	; 1
     742:	90 e0       	ldi	r25, 0x00	; 0
     744:	90 93 2e 04 	sts	0x042E, r25
     748:	80 93 2d 04 	sts	0x042D, r24
	}
	if (tlacitka[1] == 129 or tlacitka[1] == 65 or tlacitka[1] == 33 or tlacitka[1] == 17 or tlacitka[1] == 9 or tlacitka[1] == 5 or tlacitka[1] == 3 or tlacitka[1] == 1)
     74c:	20 91 c6 04 	lds	r18, 0x04C6
     750:	21 38       	cpi	r18, 0x81	; 129
     752:	71 f0       	breq	.+28     	; 0x770 <_Z19prepocet_klavesnicev+0x2c8>
     754:	21 34       	cpi	r18, 0x41	; 65
     756:	61 f0       	breq	.+24     	; 0x770 <_Z19prepocet_klavesnicev+0x2c8>
     758:	21 32       	cpi	r18, 0x21	; 33
     75a:	51 f0       	breq	.+20     	; 0x770 <_Z19prepocet_klavesnicev+0x2c8>
     75c:	21 31       	cpi	r18, 0x11	; 17
     75e:	41 f0       	breq	.+16     	; 0x770 <_Z19prepocet_klavesnicev+0x2c8>
     760:	29 30       	cpi	r18, 0x09	; 9
     762:	31 f0       	breq	.+12     	; 0x770 <_Z19prepocet_klavesnicev+0x2c8>
     764:	25 30       	cpi	r18, 0x05	; 5
     766:	21 f0       	breq	.+8      	; 0x770 <_Z19prepocet_klavesnicev+0x2c8>
     768:	23 30       	cpi	r18, 0x03	; 3
     76a:	11 f0       	breq	.+4      	; 0x770 <_Z19prepocet_klavesnicev+0x2c8>
     76c:	21 30       	cpi	r18, 0x01	; 1
     76e:	31 f4       	brne	.+12     	; 0x77c <_Z19prepocet_klavesnicev+0x2d4>
	{
		TL9 = 1;
     770:	81 e0       	ldi	r24, 0x01	; 1
     772:	90 e0       	ldi	r25, 0x00	; 0
     774:	90 93 30 04 	sts	0x0430, r25
     778:	80 93 2f 04 	sts	0x042F, r24
	}
	if (tlacitka[1] == 130 or tlacitka[1] == 66 or tlacitka[1] == 34 or tlacitka[1] == 18 or tlacitka[1] == 10 or tlacitka[1] == 6 or tlacitka[1] == 3 or tlacitka[1] == 2)
     77c:	22 38       	cpi	r18, 0x82	; 130
     77e:	71 f0       	breq	.+28     	; 0x79c <_Z19prepocet_klavesnicev+0x2f4>
     780:	22 34       	cpi	r18, 0x42	; 66
     782:	61 f0       	breq	.+24     	; 0x79c <_Z19prepocet_klavesnicev+0x2f4>
     784:	22 32       	cpi	r18, 0x22	; 34
     786:	51 f0       	breq	.+20     	; 0x79c <_Z19prepocet_klavesnicev+0x2f4>
     788:	22 31       	cpi	r18, 0x12	; 18
     78a:	41 f0       	breq	.+16     	; 0x79c <_Z19prepocet_klavesnicev+0x2f4>
     78c:	2a 30       	cpi	r18, 0x0A	; 10
     78e:	31 f0       	breq	.+12     	; 0x79c <_Z19prepocet_klavesnicev+0x2f4>
     790:	26 30       	cpi	r18, 0x06	; 6
     792:	21 f0       	breq	.+8      	; 0x79c <_Z19prepocet_klavesnicev+0x2f4>
     794:	23 30       	cpi	r18, 0x03	; 3
     796:	11 f0       	breq	.+4      	; 0x79c <_Z19prepocet_klavesnicev+0x2f4>
     798:	22 30       	cpi	r18, 0x02	; 2
     79a:	31 f4       	brne	.+12     	; 0x7a8 <_Z19prepocet_klavesnicev+0x300>
	{
		TL10 = 1;
     79c:	81 e0       	ldi	r24, 0x01	; 1
     79e:	90 e0       	ldi	r25, 0x00	; 0
     7a0:	90 93 32 04 	sts	0x0432, r25
     7a4:	80 93 31 04 	sts	0x0431, r24
	}
	if (tlacitka[1] == 132 or tlacitka[1] == 68 or tlacitka[1] == 36 or tlacitka[1] == 20 or tlacitka[1] == 12 or tlacitka[1] == 6 or tlacitka[1] == 5 or tlacitka[1] == 4)
     7a8:	24 38       	cpi	r18, 0x84	; 132
     7aa:	71 f0       	breq	.+28     	; 0x7c8 <_Z19prepocet_klavesnicev+0x320>
     7ac:	24 34       	cpi	r18, 0x44	; 68
     7ae:	61 f0       	breq	.+24     	; 0x7c8 <_Z19prepocet_klavesnicev+0x320>
     7b0:	24 32       	cpi	r18, 0x24	; 36
     7b2:	51 f0       	breq	.+20     	; 0x7c8 <_Z19prepocet_klavesnicev+0x320>
     7b4:	24 31       	cpi	r18, 0x14	; 20
     7b6:	41 f0       	breq	.+16     	; 0x7c8 <_Z19prepocet_klavesnicev+0x320>
     7b8:	2c 30       	cpi	r18, 0x0C	; 12
     7ba:	31 f0       	breq	.+12     	; 0x7c8 <_Z19prepocet_klavesnicev+0x320>
     7bc:	26 30       	cpi	r18, 0x06	; 6
     7be:	21 f0       	breq	.+8      	; 0x7c8 <_Z19prepocet_klavesnicev+0x320>
     7c0:	25 30       	cpi	r18, 0x05	; 5
     7c2:	11 f0       	breq	.+4      	; 0x7c8 <_Z19prepocet_klavesnicev+0x320>
     7c4:	24 30       	cpi	r18, 0x04	; 4
     7c6:	31 f4       	brne	.+12     	; 0x7d4 <_Z19prepocet_klavesnicev+0x32c>
	{
		TL11 = 1;
     7c8:	81 e0       	ldi	r24, 0x01	; 1
     7ca:	90 e0       	ldi	r25, 0x00	; 0
     7cc:	90 93 34 04 	sts	0x0434, r25
     7d0:	80 93 33 04 	sts	0x0433, r24
	}
	if (tlacitka[1] == 136 or tlacitka[1] == 72 or tlacitka[1] == 40 or tlacitka[1] == 24 or tlacitka[1] == 12 or tlacitka[1] == 10 or tlacitka[1] == 9 or tlacitka[1] == 8)
     7d4:	28 38       	cpi	r18, 0x88	; 136
     7d6:	71 f0       	breq	.+28     	; 0x7f4 <_Z19prepocet_klavesnicev+0x34c>
     7d8:	28 34       	cpi	r18, 0x48	; 72
     7da:	61 f0       	breq	.+24     	; 0x7f4 <_Z19prepocet_klavesnicev+0x34c>
     7dc:	28 32       	cpi	r18, 0x28	; 40
     7de:	51 f0       	breq	.+20     	; 0x7f4 <_Z19prepocet_klavesnicev+0x34c>
     7e0:	28 31       	cpi	r18, 0x18	; 24
     7e2:	41 f0       	breq	.+16     	; 0x7f4 <_Z19prepocet_klavesnicev+0x34c>
     7e4:	2c 30       	cpi	r18, 0x0C	; 12
     7e6:	31 f0       	breq	.+12     	; 0x7f4 <_Z19prepocet_klavesnicev+0x34c>
     7e8:	2a 30       	cpi	r18, 0x0A	; 10
     7ea:	21 f0       	breq	.+8      	; 0x7f4 <_Z19prepocet_klavesnicev+0x34c>
     7ec:	29 30       	cpi	r18, 0x09	; 9
     7ee:	11 f0       	breq	.+4      	; 0x7f4 <_Z19prepocet_klavesnicev+0x34c>
     7f0:	28 30       	cpi	r18, 0x08	; 8
     7f2:	31 f4       	brne	.+12     	; 0x800 <_Z19prepocet_klavesnicev+0x358>
	{
		TL12 = 1;
     7f4:	81 e0       	ldi	r24, 0x01	; 1
     7f6:	90 e0       	ldi	r25, 0x00	; 0
     7f8:	90 93 36 04 	sts	0x0436, r25
     7fc:	80 93 35 04 	sts	0x0435, r24
	}
	if (tlacitka[1] == 144 or tlacitka[1] == 80 or tlacitka[1] == 48 or tlacitka[1] == 32 or tlacitka[1] == 20 or tlacitka[1] == 18 or tlacitka[1] == 17 or tlacitka[1] == 16)
     800:	20 39       	cpi	r18, 0x90	; 144
     802:	71 f0       	breq	.+28     	; 0x820 <_Z19prepocet_klavesnicev+0x378>
     804:	20 35       	cpi	r18, 0x50	; 80
     806:	61 f0       	breq	.+24     	; 0x820 <_Z19prepocet_klavesnicev+0x378>
     808:	20 33       	cpi	r18, 0x30	; 48
     80a:	51 f0       	breq	.+20     	; 0x820 <_Z19prepocet_klavesnicev+0x378>
     80c:	20 32       	cpi	r18, 0x20	; 32
     80e:	41 f0       	breq	.+16     	; 0x820 <_Z19prepocet_klavesnicev+0x378>
     810:	24 31       	cpi	r18, 0x14	; 20
     812:	31 f0       	breq	.+12     	; 0x820 <_Z19prepocet_klavesnicev+0x378>
     814:	22 31       	cpi	r18, 0x12	; 18
     816:	21 f0       	breq	.+8      	; 0x820 <_Z19prepocet_klavesnicev+0x378>
     818:	21 31       	cpi	r18, 0x11	; 17
     81a:	11 f0       	breq	.+4      	; 0x820 <_Z19prepocet_klavesnicev+0x378>
     81c:	20 31       	cpi	r18, 0x10	; 16
     81e:	31 f4       	brne	.+12     	; 0x82c <_Z19prepocet_klavesnicev+0x384>
	{
		TL13 = 1;
     820:	81 e0       	ldi	r24, 0x01	; 1
     822:	90 e0       	ldi	r25, 0x00	; 0
     824:	90 93 38 04 	sts	0x0438, r25
     828:	80 93 37 04 	sts	0x0437, r24
	}
	if (tlacitka[1] == 160 or tlacitka[1] == 96 or tlacitka[1] == 48 or tlacitka[1] == 40 or tlacitka[1] == 36 or tlacitka[1] == 34 or tlacitka[1] == 33 or tlacitka[1] == 32)
     82c:	20 3a       	cpi	r18, 0xA0	; 160
     82e:	71 f0       	breq	.+28     	; 0x84c <_Z19prepocet_klavesnicev+0x3a4>
     830:	20 36       	cpi	r18, 0x60	; 96
     832:	61 f0       	breq	.+24     	; 0x84c <_Z19prepocet_klavesnicev+0x3a4>
     834:	20 33       	cpi	r18, 0x30	; 48
     836:	51 f0       	breq	.+20     	; 0x84c <_Z19prepocet_klavesnicev+0x3a4>
     838:	28 32       	cpi	r18, 0x28	; 40
     83a:	41 f0       	breq	.+16     	; 0x84c <_Z19prepocet_klavesnicev+0x3a4>
     83c:	24 32       	cpi	r18, 0x24	; 36
     83e:	31 f0       	breq	.+12     	; 0x84c <_Z19prepocet_klavesnicev+0x3a4>
     840:	22 32       	cpi	r18, 0x22	; 34
     842:	21 f0       	breq	.+8      	; 0x84c <_Z19prepocet_klavesnicev+0x3a4>
     844:	21 32       	cpi	r18, 0x21	; 33
     846:	11 f0       	breq	.+4      	; 0x84c <_Z19prepocet_klavesnicev+0x3a4>
     848:	20 32       	cpi	r18, 0x20	; 32
     84a:	31 f4       	brne	.+12     	; 0x858 <_Z19prepocet_klavesnicev+0x3b0>
	{
		TL14 = 1;
     84c:	81 e0       	ldi	r24, 0x01	; 1
     84e:	90 e0       	ldi	r25, 0x00	; 0
     850:	90 93 3a 04 	sts	0x043A, r25
     854:	80 93 39 04 	sts	0x0439, r24
	}
	if (tlacitka[1] == 192 or tlacitka[1] == 96 or tlacitka[1] == 80 or tlacitka[1] == 72 or tlacitka[1] == 68 or tlacitka[1] == 66 or tlacitka[1] == 65 or tlacitka[1] == 64)
     858:	20 3c       	cpi	r18, 0xC0	; 192
     85a:	71 f0       	breq	.+28     	; 0x878 <_Z19prepocet_klavesnicev+0x3d0>
     85c:	20 36       	cpi	r18, 0x60	; 96
     85e:	61 f0       	breq	.+24     	; 0x878 <_Z19prepocet_klavesnicev+0x3d0>
     860:	20 35       	cpi	r18, 0x50	; 80
     862:	51 f0       	breq	.+20     	; 0x878 <_Z19prepocet_klavesnicev+0x3d0>
     864:	28 34       	cpi	r18, 0x48	; 72
     866:	41 f0       	breq	.+16     	; 0x878 <_Z19prepocet_klavesnicev+0x3d0>
     868:	24 34       	cpi	r18, 0x44	; 68
     86a:	31 f0       	breq	.+12     	; 0x878 <_Z19prepocet_klavesnicev+0x3d0>
     86c:	22 34       	cpi	r18, 0x42	; 66
     86e:	21 f0       	breq	.+8      	; 0x878 <_Z19prepocet_klavesnicev+0x3d0>
     870:	21 34       	cpi	r18, 0x41	; 65
     872:	11 f0       	breq	.+4      	; 0x878 <_Z19prepocet_klavesnicev+0x3d0>
     874:	20 34       	cpi	r18, 0x40	; 64
     876:	41 f4       	brne	.+16     	; 0x888 <_Z19prepocet_klavesnicev+0x3e0>
	{
		TL15 = 1;
     878:	81 e0       	ldi	r24, 0x01	; 1
     87a:	90 e0       	ldi	r25, 0x00	; 0
     87c:	90 93 3c 04 	sts	0x043C, r25
     880:	80 93 3b 04 	sts	0x043B, r24
	}
	if (tlacitka[1] == 192 or tlacitka[1] == 160 or tlacitka[1] == 144 or tlacitka[1] == 136 or tlacitka[1] == 132 or tlacitka[1] == 130 or tlacitka[1] == 131 or tlacitka[1] == 128)
     884:	20 3c       	cpi	r18, 0xC0	; 192
     886:	71 f0       	breq	.+28     	; 0x8a4 <_Z19prepocet_klavesnicev+0x3fc>
     888:	20 3a       	cpi	r18, 0xA0	; 160
     88a:	61 f0       	breq	.+24     	; 0x8a4 <_Z19prepocet_klavesnicev+0x3fc>
     88c:	20 39       	cpi	r18, 0x90	; 144
     88e:	51 f0       	breq	.+20     	; 0x8a4 <_Z19prepocet_klavesnicev+0x3fc>
     890:	28 38       	cpi	r18, 0x88	; 136
     892:	41 f0       	breq	.+16     	; 0x8a4 <_Z19prepocet_klavesnicev+0x3fc>
     894:	24 38       	cpi	r18, 0x84	; 132
     896:	31 f0       	breq	.+12     	; 0x8a4 <_Z19prepocet_klavesnicev+0x3fc>
     898:	22 38       	cpi	r18, 0x82	; 130
     89a:	21 f0       	breq	.+8      	; 0x8a4 <_Z19prepocet_klavesnicev+0x3fc>
     89c:	23 38       	cpi	r18, 0x83	; 131
     89e:	11 f0       	breq	.+4      	; 0x8a4 <_Z19prepocet_klavesnicev+0x3fc>
     8a0:	20 38       	cpi	r18, 0x80	; 128
     8a2:	31 f4       	brne	.+12     	; 0x8b0 <_Z19prepocet_klavesnicev+0x408>
	{
		TL16 = 1;
     8a4:	81 e0       	ldi	r24, 0x01	; 1
     8a6:	90 e0       	ldi	r25, 0x00	; 0
     8a8:	90 93 3e 04 	sts	0x043E, r25
     8ac:	80 93 3d 04 	sts	0x043D, r24
	}
	if (tlacitka[2] == 129 or tlacitka[2] == 65 or tlacitka[2] == 33 or tlacitka[2] == 17 or tlacitka[2] == 9 or tlacitka[2] == 5 or tlacitka[2] == 3 or tlacitka[2] == 1)
     8b0:	20 91 c7 04 	lds	r18, 0x04C7
     8b4:	21 38       	cpi	r18, 0x81	; 129
     8b6:	71 f0       	breq	.+28     	; 0x8d4 <_Z19prepocet_klavesnicev+0x42c>
     8b8:	21 34       	cpi	r18, 0x41	; 65
     8ba:	61 f0       	breq	.+24     	; 0x8d4 <_Z19prepocet_klavesnicev+0x42c>
     8bc:	21 32       	cpi	r18, 0x21	; 33
     8be:	51 f0       	breq	.+20     	; 0x8d4 <_Z19prepocet_klavesnicev+0x42c>
     8c0:	21 31       	cpi	r18, 0x11	; 17
     8c2:	41 f0       	breq	.+16     	; 0x8d4 <_Z19prepocet_klavesnicev+0x42c>
     8c4:	29 30       	cpi	r18, 0x09	; 9
     8c6:	31 f0       	breq	.+12     	; 0x8d4 <_Z19prepocet_klavesnicev+0x42c>
     8c8:	25 30       	cpi	r18, 0x05	; 5
     8ca:	21 f0       	breq	.+8      	; 0x8d4 <_Z19prepocet_klavesnicev+0x42c>
     8cc:	23 30       	cpi	r18, 0x03	; 3
     8ce:	11 f0       	breq	.+4      	; 0x8d4 <_Z19prepocet_klavesnicev+0x42c>
     8d0:	21 30       	cpi	r18, 0x01	; 1
     8d2:	31 f4       	brne	.+12     	; 0x8e0 <_Z19prepocet_klavesnicev+0x438>
	{
		TL17 = 1;
     8d4:	81 e0       	ldi	r24, 0x01	; 1
     8d6:	90 e0       	ldi	r25, 0x00	; 0
     8d8:	90 93 40 04 	sts	0x0440, r25
     8dc:	80 93 3f 04 	sts	0x043F, r24
	}
	if (tlacitka[2] == 130 or tlacitka[2] == 66 or tlacitka[2] == 34 or tlacitka[2] == 18 or tlacitka[2] == 10 or tlacitka[2] == 6 or tlacitka[2] == 3 or tlacitka[2] == 2)
     8e0:	22 38       	cpi	r18, 0x82	; 130
     8e2:	71 f0       	breq	.+28     	; 0x900 <_Z19prepocet_klavesnicev+0x458>
     8e4:	22 34       	cpi	r18, 0x42	; 66
     8e6:	61 f0       	breq	.+24     	; 0x900 <_Z19prepocet_klavesnicev+0x458>
     8e8:	22 32       	cpi	r18, 0x22	; 34
     8ea:	51 f0       	breq	.+20     	; 0x900 <_Z19prepocet_klavesnicev+0x458>
     8ec:	22 31       	cpi	r18, 0x12	; 18
     8ee:	41 f0       	breq	.+16     	; 0x900 <_Z19prepocet_klavesnicev+0x458>
     8f0:	2a 30       	cpi	r18, 0x0A	; 10
     8f2:	31 f0       	breq	.+12     	; 0x900 <_Z19prepocet_klavesnicev+0x458>
     8f4:	26 30       	cpi	r18, 0x06	; 6
     8f6:	21 f0       	breq	.+8      	; 0x900 <_Z19prepocet_klavesnicev+0x458>
     8f8:	23 30       	cpi	r18, 0x03	; 3
     8fa:	11 f0       	breq	.+4      	; 0x900 <_Z19prepocet_klavesnicev+0x458>
     8fc:	22 30       	cpi	r18, 0x02	; 2
     8fe:	31 f4       	brne	.+12     	; 0x90c <_Z19prepocet_klavesnicev+0x464>
	{
		TL18 = 1;
     900:	81 e0       	ldi	r24, 0x01	; 1
     902:	90 e0       	ldi	r25, 0x00	; 0
     904:	90 93 42 04 	sts	0x0442, r25
     908:	80 93 41 04 	sts	0x0441, r24
	}
	if (tlacitka[2] == 132 or tlacitka[2] == 68 or tlacitka[2] == 36 or tlacitka[2] == 20 or tlacitka[2] == 12 or tlacitka[2] == 6 or tlacitka[2] == 5 or tlacitka[2] == 4)
     90c:	24 38       	cpi	r18, 0x84	; 132
     90e:	71 f0       	breq	.+28     	; 0x92c <_Z19prepocet_klavesnicev+0x484>
     910:	24 34       	cpi	r18, 0x44	; 68
     912:	61 f0       	breq	.+24     	; 0x92c <_Z19prepocet_klavesnicev+0x484>
     914:	24 32       	cpi	r18, 0x24	; 36
     916:	51 f0       	breq	.+20     	; 0x92c <_Z19prepocet_klavesnicev+0x484>
     918:	24 31       	cpi	r18, 0x14	; 20
     91a:	41 f0       	breq	.+16     	; 0x92c <_Z19prepocet_klavesnicev+0x484>
     91c:	2c 30       	cpi	r18, 0x0C	; 12
     91e:	31 f0       	breq	.+12     	; 0x92c <_Z19prepocet_klavesnicev+0x484>
     920:	26 30       	cpi	r18, 0x06	; 6
     922:	21 f0       	breq	.+8      	; 0x92c <_Z19prepocet_klavesnicev+0x484>
     924:	25 30       	cpi	r18, 0x05	; 5
     926:	11 f0       	breq	.+4      	; 0x92c <_Z19prepocet_klavesnicev+0x484>
     928:	24 30       	cpi	r18, 0x04	; 4
     92a:	31 f4       	brne	.+12     	; 0x938 <_Z19prepocet_klavesnicev+0x490>
	{
		TL19 = 1;
     92c:	81 e0       	ldi	r24, 0x01	; 1
     92e:	90 e0       	ldi	r25, 0x00	; 0
     930:	90 93 44 04 	sts	0x0444, r25
     934:	80 93 43 04 	sts	0x0443, r24
	}
	if (tlacitka[2] == 136 or tlacitka[2] == 72 or tlacitka[2] == 40 or tlacitka[2] == 24 or tlacitka[2] == 12 or tlacitka[2] == 10 or tlacitka[2] == 9 or tlacitka[2] == 8)
     938:	28 38       	cpi	r18, 0x88	; 136
     93a:	71 f0       	breq	.+28     	; 0x958 <_Z19prepocet_klavesnicev+0x4b0>
     93c:	28 34       	cpi	r18, 0x48	; 72
     93e:	61 f0       	breq	.+24     	; 0x958 <_Z19prepocet_klavesnicev+0x4b0>
     940:	28 32       	cpi	r18, 0x28	; 40
     942:	51 f0       	breq	.+20     	; 0x958 <_Z19prepocet_klavesnicev+0x4b0>
     944:	28 31       	cpi	r18, 0x18	; 24
     946:	41 f0       	breq	.+16     	; 0x958 <_Z19prepocet_klavesnicev+0x4b0>
     948:	2c 30       	cpi	r18, 0x0C	; 12
     94a:	31 f0       	breq	.+12     	; 0x958 <_Z19prepocet_klavesnicev+0x4b0>
     94c:	2a 30       	cpi	r18, 0x0A	; 10
     94e:	21 f0       	breq	.+8      	; 0x958 <_Z19prepocet_klavesnicev+0x4b0>
     950:	29 30       	cpi	r18, 0x09	; 9
     952:	11 f0       	breq	.+4      	; 0x958 <_Z19prepocet_klavesnicev+0x4b0>
     954:	28 30       	cpi	r18, 0x08	; 8
     956:	31 f4       	brne	.+12     	; 0x964 <_Z19prepocet_klavesnicev+0x4bc>
	{
		TL20 = 1;
     958:	81 e0       	ldi	r24, 0x01	; 1
     95a:	90 e0       	ldi	r25, 0x00	; 0
     95c:	90 93 46 04 	sts	0x0446, r25
     960:	80 93 45 04 	sts	0x0445, r24
	}
	if (tlacitka[2] == 144 or tlacitka[2] == 80 or tlacitka[2] == 48 or tlacitka[2] == 32 or tlacitka[2] == 20 or tlacitka[2] == 18 or tlacitka[2] == 17 or tlacitka[2] == 16)
     964:	20 39       	cpi	r18, 0x90	; 144
     966:	71 f0       	breq	.+28     	; 0x984 <_Z19prepocet_klavesnicev+0x4dc>
     968:	20 35       	cpi	r18, 0x50	; 80
     96a:	61 f0       	breq	.+24     	; 0x984 <_Z19prepocet_klavesnicev+0x4dc>
     96c:	20 33       	cpi	r18, 0x30	; 48
     96e:	51 f0       	breq	.+20     	; 0x984 <_Z19prepocet_klavesnicev+0x4dc>
     970:	20 32       	cpi	r18, 0x20	; 32
     972:	41 f0       	breq	.+16     	; 0x984 <_Z19prepocet_klavesnicev+0x4dc>
     974:	24 31       	cpi	r18, 0x14	; 20
     976:	31 f0       	breq	.+12     	; 0x984 <_Z19prepocet_klavesnicev+0x4dc>
     978:	22 31       	cpi	r18, 0x12	; 18
     97a:	21 f0       	breq	.+8      	; 0x984 <_Z19prepocet_klavesnicev+0x4dc>
     97c:	21 31       	cpi	r18, 0x11	; 17
     97e:	11 f0       	breq	.+4      	; 0x984 <_Z19prepocet_klavesnicev+0x4dc>
     980:	20 31       	cpi	r18, 0x10	; 16
     982:	31 f4       	brne	.+12     	; 0x990 <_Z19prepocet_klavesnicev+0x4e8>
	{
		TL21 = 1;
     984:	81 e0       	ldi	r24, 0x01	; 1
     986:	90 e0       	ldi	r25, 0x00	; 0
     988:	90 93 48 04 	sts	0x0448, r25
     98c:	80 93 47 04 	sts	0x0447, r24
	}
	if (tlacitka[2] == 160 or tlacitka[2] == 96 or tlacitka[2] == 48 or tlacitka[2] == 40 or tlacitka[2] == 36 or tlacitka[2] == 34 or tlacitka[2] == 33 or tlacitka[2] == 32)
     990:	20 3a       	cpi	r18, 0xA0	; 160
     992:	71 f0       	breq	.+28     	; 0x9b0 <_Z19prepocet_klavesnicev+0x508>
     994:	20 36       	cpi	r18, 0x60	; 96
     996:	61 f0       	breq	.+24     	; 0x9b0 <_Z19prepocet_klavesnicev+0x508>
     998:	20 33       	cpi	r18, 0x30	; 48
     99a:	51 f0       	breq	.+20     	; 0x9b0 <_Z19prepocet_klavesnicev+0x508>
     99c:	28 32       	cpi	r18, 0x28	; 40
     99e:	41 f0       	breq	.+16     	; 0x9b0 <_Z19prepocet_klavesnicev+0x508>
     9a0:	24 32       	cpi	r18, 0x24	; 36
     9a2:	31 f0       	breq	.+12     	; 0x9b0 <_Z19prepocet_klavesnicev+0x508>
     9a4:	22 32       	cpi	r18, 0x22	; 34
     9a6:	21 f0       	breq	.+8      	; 0x9b0 <_Z19prepocet_klavesnicev+0x508>
     9a8:	21 32       	cpi	r18, 0x21	; 33
     9aa:	11 f0       	breq	.+4      	; 0x9b0 <_Z19prepocet_klavesnicev+0x508>
     9ac:	20 32       	cpi	r18, 0x20	; 32
     9ae:	31 f4       	brne	.+12     	; 0x9bc <_Z19prepocet_klavesnicev+0x514>
	{
		TL22 = 1;
     9b0:	81 e0       	ldi	r24, 0x01	; 1
     9b2:	90 e0       	ldi	r25, 0x00	; 0
     9b4:	90 93 4a 04 	sts	0x044A, r25
     9b8:	80 93 49 04 	sts	0x0449, r24
	}
	if (tlacitka[2] == 192 or tlacitka[2] == 96 or tlacitka[2] == 80 or tlacitka[2] == 72 or tlacitka[2] == 68 or tlacitka[2] == 66 or tlacitka[2] == 65 or tlacitka[2] == 64)
     9bc:	20 3c       	cpi	r18, 0xC0	; 192
     9be:	71 f0       	breq	.+28     	; 0x9dc <_Z19prepocet_klavesnicev+0x534>
     9c0:	20 36       	cpi	r18, 0x60	; 96
     9c2:	61 f0       	breq	.+24     	; 0x9dc <_Z19prepocet_klavesnicev+0x534>
     9c4:	20 35       	cpi	r18, 0x50	; 80
     9c6:	51 f0       	breq	.+20     	; 0x9dc <_Z19prepocet_klavesnicev+0x534>
     9c8:	28 34       	cpi	r18, 0x48	; 72
     9ca:	41 f0       	breq	.+16     	; 0x9dc <_Z19prepocet_klavesnicev+0x534>
     9cc:	24 34       	cpi	r18, 0x44	; 68
     9ce:	31 f0       	breq	.+12     	; 0x9dc <_Z19prepocet_klavesnicev+0x534>
     9d0:	22 34       	cpi	r18, 0x42	; 66
     9d2:	21 f0       	breq	.+8      	; 0x9dc <_Z19prepocet_klavesnicev+0x534>
     9d4:	21 34       	cpi	r18, 0x41	; 65
     9d6:	11 f0       	breq	.+4      	; 0x9dc <_Z19prepocet_klavesnicev+0x534>
     9d8:	20 34       	cpi	r18, 0x40	; 64
     9da:	41 f4       	brne	.+16     	; 0x9ec <_Z19prepocet_klavesnicev+0x544>
	{
		TL23 = 1;
     9dc:	81 e0       	ldi	r24, 0x01	; 1
     9de:	90 e0       	ldi	r25, 0x00	; 0
     9e0:	90 93 4c 04 	sts	0x044C, r25
     9e4:	80 93 4b 04 	sts	0x044B, r24
	}
	if (tlacitka[2] == 192 or tlacitka[2] == 160 or tlacitka[2] == 144 or tlacitka[2] == 136 or tlacitka[2] == 132 or tlacitka[2] == 130 or tlacitka[2] == 131 or tlacitka[2] == 128)
     9e8:	20 3c       	cpi	r18, 0xC0	; 192
     9ea:	71 f0       	breq	.+28     	; 0xa08 <_Z19prepocet_klavesnicev+0x560>
     9ec:	20 3a       	cpi	r18, 0xA0	; 160
     9ee:	61 f0       	breq	.+24     	; 0xa08 <_Z19prepocet_klavesnicev+0x560>
     9f0:	20 39       	cpi	r18, 0x90	; 144
     9f2:	51 f0       	breq	.+20     	; 0xa08 <_Z19prepocet_klavesnicev+0x560>
     9f4:	28 38       	cpi	r18, 0x88	; 136
     9f6:	41 f0       	breq	.+16     	; 0xa08 <_Z19prepocet_klavesnicev+0x560>
     9f8:	24 38       	cpi	r18, 0x84	; 132
     9fa:	31 f0       	breq	.+12     	; 0xa08 <_Z19prepocet_klavesnicev+0x560>
     9fc:	22 38       	cpi	r18, 0x82	; 130
     9fe:	21 f0       	breq	.+8      	; 0xa08 <_Z19prepocet_klavesnicev+0x560>
     a00:	23 38       	cpi	r18, 0x83	; 131
     a02:	11 f0       	breq	.+4      	; 0xa08 <_Z19prepocet_klavesnicev+0x560>
     a04:	20 38       	cpi	r18, 0x80	; 128
     a06:	31 f4       	brne	.+12     	; 0xa14 <_Z19prepocet_klavesnicev+0x56c>
	{
		TL24 = 1;
     a08:	81 e0       	ldi	r24, 0x01	; 1
     a0a:	90 e0       	ldi	r25, 0x00	; 0
     a0c:	90 93 4e 04 	sts	0x044E, r25
     a10:	80 93 4d 04 	sts	0x044D, r24
	}
	if (tlacitka[3] == 129 or tlacitka[3] == 65 or tlacitka[3] == 33 or tlacitka[3] == 17 or tlacitka[3] == 9 or tlacitka[3] == 5 or tlacitka[3] == 3 or tlacitka[3] == 1)
     a14:	20 91 c8 04 	lds	r18, 0x04C8
     a18:	21 38       	cpi	r18, 0x81	; 129
     a1a:	71 f0       	breq	.+28     	; 0xa38 <_Z19prepocet_klavesnicev+0x590>
     a1c:	21 34       	cpi	r18, 0x41	; 65
     a1e:	61 f0       	breq	.+24     	; 0xa38 <_Z19prepocet_klavesnicev+0x590>
     a20:	21 32       	cpi	r18, 0x21	; 33
     a22:	51 f0       	breq	.+20     	; 0xa38 <_Z19prepocet_klavesnicev+0x590>
     a24:	21 31       	cpi	r18, 0x11	; 17
     a26:	41 f0       	breq	.+16     	; 0xa38 <_Z19prepocet_klavesnicev+0x590>
     a28:	29 30       	cpi	r18, 0x09	; 9
     a2a:	31 f0       	breq	.+12     	; 0xa38 <_Z19prepocet_klavesnicev+0x590>
     a2c:	25 30       	cpi	r18, 0x05	; 5
     a2e:	21 f0       	breq	.+8      	; 0xa38 <_Z19prepocet_klavesnicev+0x590>
     a30:	23 30       	cpi	r18, 0x03	; 3
     a32:	11 f0       	breq	.+4      	; 0xa38 <_Z19prepocet_klavesnicev+0x590>
     a34:	21 30       	cpi	r18, 0x01	; 1
     a36:	31 f4       	brne	.+12     	; 0xa44 <_Z19prepocet_klavesnicev+0x59c>
	{
		TL25 = 1;
     a38:	81 e0       	ldi	r24, 0x01	; 1
     a3a:	90 e0       	ldi	r25, 0x00	; 0
     a3c:	90 93 50 04 	sts	0x0450, r25
     a40:	80 93 4f 04 	sts	0x044F, r24
	}
	if (tlacitka[3] == 130 or tlacitka[3] == 66 or tlacitka[3] == 34 or tlacitka[3] == 18 or tlacitka[3] == 10 or tlacitka[3] == 6 or tlacitka[3] == 3 or tlacitka[3] == 2)
     a44:	22 38       	cpi	r18, 0x82	; 130
     a46:	71 f0       	breq	.+28     	; 0xa64 <_Z19prepocet_klavesnicev+0x5bc>
     a48:	22 34       	cpi	r18, 0x42	; 66
     a4a:	61 f0       	breq	.+24     	; 0xa64 <_Z19prepocet_klavesnicev+0x5bc>
     a4c:	22 32       	cpi	r18, 0x22	; 34
     a4e:	51 f0       	breq	.+20     	; 0xa64 <_Z19prepocet_klavesnicev+0x5bc>
     a50:	22 31       	cpi	r18, 0x12	; 18
     a52:	41 f0       	breq	.+16     	; 0xa64 <_Z19prepocet_klavesnicev+0x5bc>
     a54:	2a 30       	cpi	r18, 0x0A	; 10
     a56:	31 f0       	breq	.+12     	; 0xa64 <_Z19prepocet_klavesnicev+0x5bc>
     a58:	26 30       	cpi	r18, 0x06	; 6
     a5a:	21 f0       	breq	.+8      	; 0xa64 <_Z19prepocet_klavesnicev+0x5bc>
     a5c:	23 30       	cpi	r18, 0x03	; 3
     a5e:	11 f0       	breq	.+4      	; 0xa64 <_Z19prepocet_klavesnicev+0x5bc>
     a60:	22 30       	cpi	r18, 0x02	; 2
     a62:	31 f4       	brne	.+12     	; 0xa70 <_Z19prepocet_klavesnicev+0x5c8>
	{
		TL26 = 1;
     a64:	81 e0       	ldi	r24, 0x01	; 1
     a66:	90 e0       	ldi	r25, 0x00	; 0
     a68:	90 93 52 04 	sts	0x0452, r25
     a6c:	80 93 51 04 	sts	0x0451, r24
	}
	if (tlacitka[3] == 132 or tlacitka[3] == 68 or tlacitka[3] == 36 or tlacitka[3] == 20 or tlacitka[3] == 12 or tlacitka[3] == 6 or tlacitka[3] == 5 or tlacitka[3] == 4)
     a70:	24 38       	cpi	r18, 0x84	; 132
     a72:	71 f0       	breq	.+28     	; 0xa90 <_Z19prepocet_klavesnicev+0x5e8>
     a74:	24 34       	cpi	r18, 0x44	; 68
     a76:	61 f0       	breq	.+24     	; 0xa90 <_Z19prepocet_klavesnicev+0x5e8>
     a78:	24 32       	cpi	r18, 0x24	; 36
     a7a:	51 f0       	breq	.+20     	; 0xa90 <_Z19prepocet_klavesnicev+0x5e8>
     a7c:	24 31       	cpi	r18, 0x14	; 20
     a7e:	41 f0       	breq	.+16     	; 0xa90 <_Z19prepocet_klavesnicev+0x5e8>
     a80:	2c 30       	cpi	r18, 0x0C	; 12
     a82:	31 f0       	breq	.+12     	; 0xa90 <_Z19prepocet_klavesnicev+0x5e8>
     a84:	26 30       	cpi	r18, 0x06	; 6
     a86:	21 f0       	breq	.+8      	; 0xa90 <_Z19prepocet_klavesnicev+0x5e8>
     a88:	25 30       	cpi	r18, 0x05	; 5
     a8a:	11 f0       	breq	.+4      	; 0xa90 <_Z19prepocet_klavesnicev+0x5e8>
     a8c:	24 30       	cpi	r18, 0x04	; 4
     a8e:	31 f4       	brne	.+12     	; 0xa9c <_Z19prepocet_klavesnicev+0x5f4>
	{
		TL27 = 1;
     a90:	81 e0       	ldi	r24, 0x01	; 1
     a92:	90 e0       	ldi	r25, 0x00	; 0
     a94:	90 93 54 04 	sts	0x0454, r25
     a98:	80 93 53 04 	sts	0x0453, r24
	}
	if (tlacitka[3] == 136 or tlacitka[3] == 72 or tlacitka[3] == 40 or tlacitka[3] == 24 or tlacitka[3] == 12 or tlacitka[3] == 10 or tlacitka[3] == 9 or tlacitka[3] == 8)
     a9c:	28 38       	cpi	r18, 0x88	; 136
     a9e:	71 f0       	breq	.+28     	; 0xabc <_Z19prepocet_klavesnicev+0x614>
     aa0:	28 34       	cpi	r18, 0x48	; 72
     aa2:	61 f0       	breq	.+24     	; 0xabc <_Z19prepocet_klavesnicev+0x614>
     aa4:	28 32       	cpi	r18, 0x28	; 40
     aa6:	51 f0       	breq	.+20     	; 0xabc <_Z19prepocet_klavesnicev+0x614>
     aa8:	28 31       	cpi	r18, 0x18	; 24
     aaa:	41 f0       	breq	.+16     	; 0xabc <_Z19prepocet_klavesnicev+0x614>
     aac:	2c 30       	cpi	r18, 0x0C	; 12
     aae:	31 f0       	breq	.+12     	; 0xabc <_Z19prepocet_klavesnicev+0x614>
     ab0:	2a 30       	cpi	r18, 0x0A	; 10
     ab2:	21 f0       	breq	.+8      	; 0xabc <_Z19prepocet_klavesnicev+0x614>
     ab4:	29 30       	cpi	r18, 0x09	; 9
     ab6:	11 f0       	breq	.+4      	; 0xabc <_Z19prepocet_klavesnicev+0x614>
     ab8:	28 30       	cpi	r18, 0x08	; 8
     aba:	31 f4       	brne	.+12     	; 0xac8 <_Z19prepocet_klavesnicev+0x620>
	{
		TL28 = 1;
     abc:	81 e0       	ldi	r24, 0x01	; 1
     abe:	90 e0       	ldi	r25, 0x00	; 0
     ac0:	90 93 56 04 	sts	0x0456, r25
     ac4:	80 93 55 04 	sts	0x0455, r24
	}
	if (tlacitka[3] == 144 or tlacitka[3] == 80 or tlacitka[3] == 48 or tlacitka[3] == 32 or tlacitka[3] == 20 or tlacitka[3] == 18 or tlacitka[3] == 17 or tlacitka[3] == 16)
     ac8:	20 39       	cpi	r18, 0x90	; 144
     aca:	71 f0       	breq	.+28     	; 0xae8 <_Z19prepocet_klavesnicev+0x640>
     acc:	20 35       	cpi	r18, 0x50	; 80
     ace:	61 f0       	breq	.+24     	; 0xae8 <_Z19prepocet_klavesnicev+0x640>
     ad0:	20 33       	cpi	r18, 0x30	; 48
     ad2:	51 f0       	breq	.+20     	; 0xae8 <_Z19prepocet_klavesnicev+0x640>
     ad4:	20 32       	cpi	r18, 0x20	; 32
     ad6:	41 f0       	breq	.+16     	; 0xae8 <_Z19prepocet_klavesnicev+0x640>
     ad8:	24 31       	cpi	r18, 0x14	; 20
     ada:	31 f0       	breq	.+12     	; 0xae8 <_Z19prepocet_klavesnicev+0x640>
     adc:	22 31       	cpi	r18, 0x12	; 18
     ade:	21 f0       	breq	.+8      	; 0xae8 <_Z19prepocet_klavesnicev+0x640>
     ae0:	21 31       	cpi	r18, 0x11	; 17
     ae2:	11 f0       	breq	.+4      	; 0xae8 <_Z19prepocet_klavesnicev+0x640>
     ae4:	20 31       	cpi	r18, 0x10	; 16
     ae6:	31 f4       	brne	.+12     	; 0xaf4 <_Z19prepocet_klavesnicev+0x64c>
	{
		TL29 = 1;
     ae8:	81 e0       	ldi	r24, 0x01	; 1
     aea:	90 e0       	ldi	r25, 0x00	; 0
     aec:	90 93 58 04 	sts	0x0458, r25
     af0:	80 93 57 04 	sts	0x0457, r24
	}
	if (tlacitka[3] == 160)
     af4:	20 3a       	cpi	r18, 0xA0	; 160
     af6:	39 f4       	brne	.+14     	; 0xb06 <_Z19prepocet_klavesnicev+0x65e>
	{
		TL30 = 1;
     af8:	81 e0       	ldi	r24, 0x01	; 1
     afa:	90 e0       	ldi	r25, 0x00	; 0
     afc:	90 93 5a 04 	sts	0x045A, r25
     b00:	80 93 59 04 	sts	0x0459, r24
     b04:	42 c0       	rjmp	.+132    	; 0xb8a <_Z19prepocet_klavesnicev+0x6e2>
	}
	if (tlacitka[3] == 96)
     b06:	20 36       	cpi	r18, 0x60	; 96
     b08:	39 f4       	brne	.+14     	; 0xb18 <_Z19prepocet_klavesnicev+0x670>
	{
		TL30 = 1;
     b0a:	81 e0       	ldi	r24, 0x01	; 1
     b0c:	90 e0       	ldi	r25, 0x00	; 0
     b0e:	90 93 5a 04 	sts	0x045A, r25
     b12:	80 93 59 04 	sts	0x0459, r24
     b16:	23 c0       	rjmp	.+70     	; 0xb5e <_Z19prepocet_klavesnicev+0x6b6>
	}
	if (tlacitka[3] == 48)
     b18:	20 33       	cpi	r18, 0x30	; 48
     b1a:	51 f0       	breq	.+20     	; 0xb30 <_Z19prepocet_klavesnicev+0x688>
	{
		TL30 = 1;
	}
	if (tlacitka[3] == 40)
     b1c:	28 32       	cpi	r18, 0x28	; 40
     b1e:	41 f0       	breq	.+16     	; 0xb30 <_Z19prepocet_klavesnicev+0x688>
	{
		TL30 = 1;
	}
	if (tlacitka[3] == 36)
     b20:	24 32       	cpi	r18, 0x24	; 36
     b22:	31 f0       	breq	.+12     	; 0xb30 <_Z19prepocet_klavesnicev+0x688>
	{
		TL30 = 1;
	}
	if (tlacitka[3] == 34)
     b24:	22 32       	cpi	r18, 0x22	; 34
     b26:	21 f0       	breq	.+8      	; 0xb30 <_Z19prepocet_klavesnicev+0x688>
	{
		TL30 = 1;
	}
	if (tlacitka[3] == 33)
     b28:	21 32       	cpi	r18, 0x21	; 33
     b2a:	11 f0       	breq	.+4      	; 0xb30 <_Z19prepocet_klavesnicev+0x688>
	{
		TL30 = 1;
	}
	if (tlacitka[3] == 32)
     b2c:	20 32       	cpi	r18, 0x20	; 32
     b2e:	39 f4       	brne	.+14     	; 0xb3e <_Z19prepocet_klavesnicev+0x696>
	{
		TL30 = 1;
     b30:	81 e0       	ldi	r24, 0x01	; 1
     b32:	90 e0       	ldi	r25, 0x00	; 0
     b34:	90 93 5a 04 	sts	0x045A, r25
     b38:	80 93 59 04 	sts	0x0459, r24
     b3c:	2c c0       	rjmp	.+88     	; 0xb96 <_Z19prepocet_klavesnicev+0x6ee>
	}
	if (tlacitka[3] == 192 or tlacitka[3] == 96 or tlacitka[3] == 80 or tlacitka[3] == 72 or tlacitka[3] == 68 or tlacitka[3] == 66 or tlacitka[3] == 65 or tlacitka[3] == 64)
     b3e:	20 3c       	cpi	r18, 0xC0	; 192
     b40:	71 f0       	breq	.+28     	; 0xb5e <_Z19prepocet_klavesnicev+0x6b6>
     b42:	20 36       	cpi	r18, 0x60	; 96
     b44:	61 f0       	breq	.+24     	; 0xb5e <_Z19prepocet_klavesnicev+0x6b6>
     b46:	20 35       	cpi	r18, 0x50	; 80
     b48:	51 f0       	breq	.+20     	; 0xb5e <_Z19prepocet_klavesnicev+0x6b6>
     b4a:	28 34       	cpi	r18, 0x48	; 72
     b4c:	41 f0       	breq	.+16     	; 0xb5e <_Z19prepocet_klavesnicev+0x6b6>
     b4e:	24 34       	cpi	r18, 0x44	; 68
     b50:	31 f0       	breq	.+12     	; 0xb5e <_Z19prepocet_klavesnicev+0x6b6>
     b52:	22 34       	cpi	r18, 0x42	; 66
     b54:	21 f0       	breq	.+8      	; 0xb5e <_Z19prepocet_klavesnicev+0x6b6>
     b56:	21 34       	cpi	r18, 0x41	; 65
     b58:	11 f0       	breq	.+4      	; 0xb5e <_Z19prepocet_klavesnicev+0x6b6>
     b5a:	20 34       	cpi	r18, 0x40	; 64
     b5c:	41 f4       	brne	.+16     	; 0xb6e <_Z19prepocet_klavesnicev+0x6c6>
	{
		TL31 = 1;
     b5e:	81 e0       	ldi	r24, 0x01	; 1
     b60:	90 e0       	ldi	r25, 0x00	; 0
     b62:	90 93 5c 04 	sts	0x045C, r25
     b66:	80 93 5b 04 	sts	0x045B, r24
	}
	if (tlacitka[3] == 192 or tlacitka[3] == 160 or tlacitka[3] == 144 or tlacitka[3] == 136 or tlacitka[3] == 132 or tlacitka[3] == 130 or tlacitka[3] == 131 or tlacitka[3] == 128)
     b6a:	20 3c       	cpi	r18, 0xC0	; 192
     b6c:	71 f0       	breq	.+28     	; 0xb8a <_Z19prepocet_klavesnicev+0x6e2>
     b6e:	20 3a       	cpi	r18, 0xA0	; 160
     b70:	61 f0       	breq	.+24     	; 0xb8a <_Z19prepocet_klavesnicev+0x6e2>
     b72:	20 39       	cpi	r18, 0x90	; 144
     b74:	51 f0       	breq	.+20     	; 0xb8a <_Z19prepocet_klavesnicev+0x6e2>
     b76:	28 38       	cpi	r18, 0x88	; 136
     b78:	41 f0       	breq	.+16     	; 0xb8a <_Z19prepocet_klavesnicev+0x6e2>
     b7a:	24 38       	cpi	r18, 0x84	; 132
     b7c:	31 f0       	breq	.+12     	; 0xb8a <_Z19prepocet_klavesnicev+0x6e2>
     b7e:	22 38       	cpi	r18, 0x82	; 130
     b80:	21 f0       	breq	.+8      	; 0xb8a <_Z19prepocet_klavesnicev+0x6e2>
     b82:	23 38       	cpi	r18, 0x83	; 131
     b84:	11 f0       	breq	.+4      	; 0xb8a <_Z19prepocet_klavesnicev+0x6e2>
     b86:	20 38       	cpi	r18, 0x80	; 128
     b88:	31 f4       	brne	.+12     	; 0xb96 <_Z19prepocet_klavesnicev+0x6ee>
	{
		TL32 = 1;
     b8a:	81 e0       	ldi	r24, 0x01	; 1
     b8c:	90 e0       	ldi	r25, 0x00	; 0
     b8e:	90 93 5e 04 	sts	0x045E, r25
     b92:	80 93 5d 04 	sts	0x045D, r24
	}
	//chlivky + default pozice

	if (tlacitka[4] == 129 || tlacitka[4] == 65 || tlacitka[4] == 33 || tlacitka[4] == 17 || tlacitka[4] == 9 || tlacitka[4] == 5 || tlacitka[4] == 3 || tlacitka[4] == 1)
     b96:	20 91 c9 04 	lds	r18, 0x04C9
     b9a:	21 38       	cpi	r18, 0x81	; 129
     b9c:	71 f0       	breq	.+28     	; 0xbba <_Z19prepocet_klavesnicev+0x712>
     b9e:	21 34       	cpi	r18, 0x41	; 65
     ba0:	61 f0       	breq	.+24     	; 0xbba <_Z19prepocet_klavesnicev+0x712>
     ba2:	21 32       	cpi	r18, 0x21	; 33
     ba4:	51 f0       	breq	.+20     	; 0xbba <_Z19prepocet_klavesnicev+0x712>
     ba6:	21 31       	cpi	r18, 0x11	; 17
     ba8:	41 f0       	breq	.+16     	; 0xbba <_Z19prepocet_klavesnicev+0x712>
     baa:	29 30       	cpi	r18, 0x09	; 9
     bac:	31 f0       	breq	.+12     	; 0xbba <_Z19prepocet_klavesnicev+0x712>
     bae:	25 30       	cpi	r18, 0x05	; 5
     bb0:	21 f0       	breq	.+8      	; 0xbba <_Z19prepocet_klavesnicev+0x712>
     bb2:	23 30       	cpi	r18, 0x03	; 3
     bb4:	11 f0       	breq	.+4      	; 0xbba <_Z19prepocet_klavesnicev+0x712>
     bb6:	21 30       	cpi	r18, 0x01	; 1
     bb8:	31 f4       	brne	.+12     	; 0xbc6 <_Z19prepocet_klavesnicev+0x71e>
	{
		TL33 = 1;
     bba:	81 e0       	ldi	r24, 0x01	; 1
     bbc:	90 e0       	ldi	r25, 0x00	; 0
     bbe:	90 93 60 04 	sts	0x0460, r25
     bc2:	80 93 5f 04 	sts	0x045F, r24
	}	
	if (tlacitka[4] == 130 or tlacitka[4] == 66 or tlacitka[4] == 34 or tlacitka[4] == 18 or tlacitka[4] == 10 or tlacitka[4] == 6 or tlacitka[4] == 3 or tlacitka[4] == 2)
     bc6:	22 38       	cpi	r18, 0x82	; 130
     bc8:	71 f0       	breq	.+28     	; 0xbe6 <_Z19prepocet_klavesnicev+0x73e>
     bca:	22 34       	cpi	r18, 0x42	; 66
     bcc:	61 f0       	breq	.+24     	; 0xbe6 <_Z19prepocet_klavesnicev+0x73e>
     bce:	22 32       	cpi	r18, 0x22	; 34
     bd0:	51 f0       	breq	.+20     	; 0xbe6 <_Z19prepocet_klavesnicev+0x73e>
     bd2:	22 31       	cpi	r18, 0x12	; 18
     bd4:	41 f0       	breq	.+16     	; 0xbe6 <_Z19prepocet_klavesnicev+0x73e>
     bd6:	2a 30       	cpi	r18, 0x0A	; 10
     bd8:	31 f0       	breq	.+12     	; 0xbe6 <_Z19prepocet_klavesnicev+0x73e>
     bda:	26 30       	cpi	r18, 0x06	; 6
     bdc:	21 f0       	breq	.+8      	; 0xbe6 <_Z19prepocet_klavesnicev+0x73e>
     bde:	23 30       	cpi	r18, 0x03	; 3
     be0:	11 f0       	breq	.+4      	; 0xbe6 <_Z19prepocet_klavesnicev+0x73e>
     be2:	22 30       	cpi	r18, 0x02	; 2
     be4:	31 f4       	brne	.+12     	; 0xbf2 <_Z19prepocet_klavesnicev+0x74a>
	{
		TL34 = 1;
     be6:	81 e0       	ldi	r24, 0x01	; 1
     be8:	90 e0       	ldi	r25, 0x00	; 0
     bea:	90 93 62 04 	sts	0x0462, r25
     bee:	80 93 61 04 	sts	0x0461, r24
	}
	if (tlacitka[4] == 132 or tlacitka[4] == 68 or tlacitka[4] == 36 or tlacitka[4] == 20 or tlacitka[4] == 12 or tlacitka[4] == 6 or tlacitka[4] == 5 or tlacitka[4] == 4)
     bf2:	24 38       	cpi	r18, 0x84	; 132
     bf4:	71 f0       	breq	.+28     	; 0xc12 <_Z19prepocet_klavesnicev+0x76a>
     bf6:	24 34       	cpi	r18, 0x44	; 68
     bf8:	61 f0       	breq	.+24     	; 0xc12 <_Z19prepocet_klavesnicev+0x76a>
     bfa:	24 32       	cpi	r18, 0x24	; 36
     bfc:	51 f0       	breq	.+20     	; 0xc12 <_Z19prepocet_klavesnicev+0x76a>
     bfe:	24 31       	cpi	r18, 0x14	; 20
     c00:	41 f0       	breq	.+16     	; 0xc12 <_Z19prepocet_klavesnicev+0x76a>
     c02:	2c 30       	cpi	r18, 0x0C	; 12
     c04:	31 f0       	breq	.+12     	; 0xc12 <_Z19prepocet_klavesnicev+0x76a>
     c06:	26 30       	cpi	r18, 0x06	; 6
     c08:	21 f0       	breq	.+8      	; 0xc12 <_Z19prepocet_klavesnicev+0x76a>
     c0a:	25 30       	cpi	r18, 0x05	; 5
     c0c:	11 f0       	breq	.+4      	; 0xc12 <_Z19prepocet_klavesnicev+0x76a>
     c0e:	24 30       	cpi	r18, 0x04	; 4
     c10:	31 f4       	brne	.+12     	; 0xc1e <_Z19prepocet_klavesnicev+0x776>
	{
		TL35 = 1;
     c12:	81 e0       	ldi	r24, 0x01	; 1
     c14:	90 e0       	ldi	r25, 0x00	; 0
     c16:	90 93 64 04 	sts	0x0464, r25
     c1a:	80 93 63 04 	sts	0x0463, r24
	}
	if (tlacitka[4] == 136 or tlacitka[4] == 72 or tlacitka[4] == 40 or tlacitka[4] == 24 or tlacitka[4] == 12 or tlacitka[4] == 10 or tlacitka[4] == 9 or tlacitka[4] == 8)
     c1e:	28 38       	cpi	r18, 0x88	; 136
     c20:	71 f0       	breq	.+28     	; 0xc3e <_Z19prepocet_klavesnicev+0x796>
     c22:	28 34       	cpi	r18, 0x48	; 72
     c24:	61 f0       	breq	.+24     	; 0xc3e <_Z19prepocet_klavesnicev+0x796>
     c26:	28 32       	cpi	r18, 0x28	; 40
     c28:	51 f0       	breq	.+20     	; 0xc3e <_Z19prepocet_klavesnicev+0x796>
     c2a:	28 31       	cpi	r18, 0x18	; 24
     c2c:	41 f0       	breq	.+16     	; 0xc3e <_Z19prepocet_klavesnicev+0x796>
     c2e:	2c 30       	cpi	r18, 0x0C	; 12
     c30:	31 f0       	breq	.+12     	; 0xc3e <_Z19prepocet_klavesnicev+0x796>
     c32:	2a 30       	cpi	r18, 0x0A	; 10
     c34:	21 f0       	breq	.+8      	; 0xc3e <_Z19prepocet_klavesnicev+0x796>
     c36:	29 30       	cpi	r18, 0x09	; 9
     c38:	11 f0       	breq	.+4      	; 0xc3e <_Z19prepocet_klavesnicev+0x796>
     c3a:	28 30       	cpi	r18, 0x08	; 8
     c3c:	31 f4       	brne	.+12     	; 0xc4a <_Z19prepocet_klavesnicev+0x7a2>
	{
		TL36 = 1;
     c3e:	81 e0       	ldi	r24, 0x01	; 1
     c40:	90 e0       	ldi	r25, 0x00	; 0
     c42:	90 93 66 04 	sts	0x0466, r25
     c46:	80 93 65 04 	sts	0x0465, r24
	}
	if (tlacitka[4] == 144 or tlacitka[4] == 80 or tlacitka[4] == 48 or tlacitka[4] == 32 or tlacitka[4] == 20 or tlacitka[4] == 18 or tlacitka[4] == 17 or tlacitka[4] == 16)
     c4a:	20 39       	cpi	r18, 0x90	; 144
     c4c:	71 f0       	breq	.+28     	; 0xc6a <_Z19prepocet_klavesnicev+0x7c2>
     c4e:	20 35       	cpi	r18, 0x50	; 80
     c50:	61 f0       	breq	.+24     	; 0xc6a <_Z19prepocet_klavesnicev+0x7c2>
     c52:	20 33       	cpi	r18, 0x30	; 48
     c54:	51 f0       	breq	.+20     	; 0xc6a <_Z19prepocet_klavesnicev+0x7c2>
     c56:	20 32       	cpi	r18, 0x20	; 32
     c58:	41 f0       	breq	.+16     	; 0xc6a <_Z19prepocet_klavesnicev+0x7c2>
     c5a:	24 31       	cpi	r18, 0x14	; 20
     c5c:	31 f0       	breq	.+12     	; 0xc6a <_Z19prepocet_klavesnicev+0x7c2>
     c5e:	22 31       	cpi	r18, 0x12	; 18
     c60:	21 f0       	breq	.+8      	; 0xc6a <_Z19prepocet_klavesnicev+0x7c2>
     c62:	21 31       	cpi	r18, 0x11	; 17
     c64:	11 f0       	breq	.+4      	; 0xc6a <_Z19prepocet_klavesnicev+0x7c2>
     c66:	20 31       	cpi	r18, 0x10	; 16
     c68:	31 f4       	brne	.+12     	; 0xc76 <_Z19prepocet_klavesnicev+0x7ce>
	{
		TL37 = 1;
     c6a:	81 e0       	ldi	r24, 0x01	; 1
     c6c:	90 e0       	ldi	r25, 0x00	; 0
     c6e:	90 93 68 04 	sts	0x0468, r25
     c72:	80 93 67 04 	sts	0x0467, r24
	}
	if (tlacitka[4] == 160 or tlacitka[4] == 96 or tlacitka[4] == 48 or tlacitka[4] == 40 or tlacitka[4] == 36 or tlacitka[4] == 34 or tlacitka[4] == 33 or tlacitka[4] == 32)
     c76:	20 3a       	cpi	r18, 0xA0	; 160
     c78:	71 f0       	breq	.+28     	; 0xc96 <_Z19prepocet_klavesnicev+0x7ee>
     c7a:	20 36       	cpi	r18, 0x60	; 96
     c7c:	61 f0       	breq	.+24     	; 0xc96 <_Z19prepocet_klavesnicev+0x7ee>
     c7e:	20 33       	cpi	r18, 0x30	; 48
     c80:	51 f0       	breq	.+20     	; 0xc96 <_Z19prepocet_klavesnicev+0x7ee>
     c82:	28 32       	cpi	r18, 0x28	; 40
     c84:	41 f0       	breq	.+16     	; 0xc96 <_Z19prepocet_klavesnicev+0x7ee>
     c86:	24 32       	cpi	r18, 0x24	; 36
     c88:	31 f0       	breq	.+12     	; 0xc96 <_Z19prepocet_klavesnicev+0x7ee>
     c8a:	22 32       	cpi	r18, 0x22	; 34
     c8c:	21 f0       	breq	.+8      	; 0xc96 <_Z19prepocet_klavesnicev+0x7ee>
     c8e:	21 32       	cpi	r18, 0x21	; 33
     c90:	11 f0       	breq	.+4      	; 0xc96 <_Z19prepocet_klavesnicev+0x7ee>
     c92:	20 32       	cpi	r18, 0x20	; 32
     c94:	31 f4       	brne	.+12     	; 0xca2 <_Z19prepocet_klavesnicev+0x7fa>
	{
		TL38 = 1;
     c96:	81 e0       	ldi	r24, 0x01	; 1
     c98:	90 e0       	ldi	r25, 0x00	; 0
     c9a:	90 93 6a 04 	sts	0x046A, r25
     c9e:	80 93 69 04 	sts	0x0469, r24
	}
	if (tlacitka[4] == 192 or tlacitka[4] == 96 or tlacitka[4] == 80 or tlacitka[4] == 72 or tlacitka[4] == 68 or tlacitka[4] == 66 or tlacitka[4] == 65 or tlacitka[4] == 64)
     ca2:	20 3c       	cpi	r18, 0xC0	; 192
     ca4:	71 f0       	breq	.+28     	; 0xcc2 <_Z19prepocet_klavesnicev+0x81a>
     ca6:	20 36       	cpi	r18, 0x60	; 96
     ca8:	61 f0       	breq	.+24     	; 0xcc2 <_Z19prepocet_klavesnicev+0x81a>
     caa:	20 35       	cpi	r18, 0x50	; 80
     cac:	51 f0       	breq	.+20     	; 0xcc2 <_Z19prepocet_klavesnicev+0x81a>
     cae:	28 34       	cpi	r18, 0x48	; 72
     cb0:	41 f0       	breq	.+16     	; 0xcc2 <_Z19prepocet_klavesnicev+0x81a>
     cb2:	24 34       	cpi	r18, 0x44	; 68
     cb4:	31 f0       	breq	.+12     	; 0xcc2 <_Z19prepocet_klavesnicev+0x81a>
     cb6:	22 34       	cpi	r18, 0x42	; 66
     cb8:	21 f0       	breq	.+8      	; 0xcc2 <_Z19prepocet_klavesnicev+0x81a>
     cba:	21 34       	cpi	r18, 0x41	; 65
     cbc:	11 f0       	breq	.+4      	; 0xcc2 <_Z19prepocet_klavesnicev+0x81a>
     cbe:	20 34       	cpi	r18, 0x40	; 64
     cc0:	41 f4       	brne	.+16     	; 0xcd2 <_Z19prepocet_klavesnicev+0x82a>
	{
		TL39 = 1;
     cc2:	81 e0       	ldi	r24, 0x01	; 1
     cc4:	90 e0       	ldi	r25, 0x00	; 0
     cc6:	90 93 6c 04 	sts	0x046C, r25
     cca:	80 93 6b 04 	sts	0x046B, r24
	}
	if (tlacitka[4] == 192 or tlacitka[4] == 160 or tlacitka[4] == 144 or tlacitka[4] == 136 or tlacitka[4] == 132 or tlacitka[4] == 130 or tlacitka[4] == 131 or tlacitka[4] == 128)
     cce:	20 3c       	cpi	r18, 0xC0	; 192
     cd0:	71 f0       	breq	.+28     	; 0xcee <_Z19prepocet_klavesnicev+0x846>
     cd2:	20 3a       	cpi	r18, 0xA0	; 160
     cd4:	61 f0       	breq	.+24     	; 0xcee <_Z19prepocet_klavesnicev+0x846>
     cd6:	20 39       	cpi	r18, 0x90	; 144
     cd8:	51 f0       	breq	.+20     	; 0xcee <_Z19prepocet_klavesnicev+0x846>
     cda:	28 38       	cpi	r18, 0x88	; 136
     cdc:	41 f0       	breq	.+16     	; 0xcee <_Z19prepocet_klavesnicev+0x846>
     cde:	24 38       	cpi	r18, 0x84	; 132
     ce0:	31 f0       	breq	.+12     	; 0xcee <_Z19prepocet_klavesnicev+0x846>
     ce2:	22 38       	cpi	r18, 0x82	; 130
     ce4:	21 f0       	breq	.+8      	; 0xcee <_Z19prepocet_klavesnicev+0x846>
     ce6:	23 38       	cpi	r18, 0x83	; 131
     ce8:	11 f0       	breq	.+4      	; 0xcee <_Z19prepocet_klavesnicev+0x846>
     cea:	20 38       	cpi	r18, 0x80	; 128
     cec:	31 f4       	brne	.+12     	; 0xcfa <_Z19prepocet_klavesnicev+0x852>
	{
		TL40 = 1;
     cee:	81 e0       	ldi	r24, 0x01	; 1
     cf0:	90 e0       	ldi	r25, 0x00	; 0
     cf2:	90 93 6e 04 	sts	0x046E, r25
     cf6:	80 93 6d 04 	sts	0x046D, r24
     cfa:	08 95       	ret

00000cfc <_Z8definicev>:
	}
}

void definice()
{
	TL0_1 = 0;
     cfc:	10 92 70 04 	sts	0x0470, r1
     d00:	10 92 6f 04 	sts	0x046F, r1
	TL1_1 = 1;
     d04:	81 e0       	ldi	r24, 0x01	; 1
     d06:	90 e0       	ldi	r25, 0x00	; 0
     d08:	90 93 72 04 	sts	0x0472, r25
     d0c:	80 93 71 04 	sts	0x0471, r24
	TL2_1 = 2;
     d10:	82 e0       	ldi	r24, 0x02	; 2
     d12:	90 e0       	ldi	r25, 0x00	; 0
     d14:	90 93 74 04 	sts	0x0474, r25
     d18:	80 93 73 04 	sts	0x0473, r24
	TL3_1 = 3;
     d1c:	83 e0       	ldi	r24, 0x03	; 3
     d1e:	90 e0       	ldi	r25, 0x00	; 0
     d20:	90 93 76 04 	sts	0x0476, r25
     d24:	80 93 75 04 	sts	0x0475, r24
	TL4_1 = 4;
     d28:	84 e0       	ldi	r24, 0x04	; 4
     d2a:	90 e0       	ldi	r25, 0x00	; 0
     d2c:	90 93 78 04 	sts	0x0478, r25
     d30:	80 93 77 04 	sts	0x0477, r24
	TL5_1 = 5;
     d34:	85 e0       	ldi	r24, 0x05	; 5
     d36:	90 e0       	ldi	r25, 0x00	; 0
     d38:	90 93 7a 04 	sts	0x047A, r25
     d3c:	80 93 79 04 	sts	0x0479, r24
	TL6_1 = 6;
     d40:	86 e0       	ldi	r24, 0x06	; 6
     d42:	90 e0       	ldi	r25, 0x00	; 0
     d44:	90 93 7c 04 	sts	0x047C, r25
     d48:	80 93 7b 04 	sts	0x047B, r24
	TL7_1 = 7;
     d4c:	87 e0       	ldi	r24, 0x07	; 7
     d4e:	90 e0       	ldi	r25, 0x00	; 0
     d50:	90 93 7e 04 	sts	0x047E, r25
     d54:	80 93 7d 04 	sts	0x047D, r24
	TL8_1 = 8;
     d58:	88 e0       	ldi	r24, 0x08	; 8
     d5a:	90 e0       	ldi	r25, 0x00	; 0
     d5c:	90 93 80 04 	sts	0x0480, r25
     d60:	80 93 7f 04 	sts	0x047F, r24
	TL9_1 = 9;
     d64:	89 e0       	ldi	r24, 0x09	; 9
     d66:	90 e0       	ldi	r25, 0x00	; 0
     d68:	90 93 82 04 	sts	0x0482, r25
     d6c:	80 93 81 04 	sts	0x0481, r24
	TL10_1 = 10;
     d70:	8a e0       	ldi	r24, 0x0A	; 10
     d72:	90 e0       	ldi	r25, 0x00	; 0
     d74:	90 93 84 04 	sts	0x0484, r25
     d78:	80 93 83 04 	sts	0x0483, r24
	TL11_1 = 11;
     d7c:	8b e0       	ldi	r24, 0x0B	; 11
     d7e:	90 e0       	ldi	r25, 0x00	; 0
     d80:	90 93 86 04 	sts	0x0486, r25
     d84:	80 93 85 04 	sts	0x0485, r24
	TL12_1 = 12;
     d88:	8c e0       	ldi	r24, 0x0C	; 12
     d8a:	90 e0       	ldi	r25, 0x00	; 0
     d8c:	90 93 88 04 	sts	0x0488, r25
     d90:	80 93 87 04 	sts	0x0487, r24
	TL13_1 = 13;
     d94:	8d e0       	ldi	r24, 0x0D	; 13
     d96:	90 e0       	ldi	r25, 0x00	; 0
     d98:	90 93 8a 04 	sts	0x048A, r25
     d9c:	80 93 89 04 	sts	0x0489, r24
	TL14_1 = 14;
     da0:	8e e0       	ldi	r24, 0x0E	; 14
     da2:	90 e0       	ldi	r25, 0x00	; 0
     da4:	90 93 8c 04 	sts	0x048C, r25
     da8:	80 93 8b 04 	sts	0x048B, r24
	TL15_1 = 15;
     dac:	8f e0       	ldi	r24, 0x0F	; 15
     dae:	90 e0       	ldi	r25, 0x00	; 0
     db0:	90 93 8e 04 	sts	0x048E, r25
     db4:	80 93 8d 04 	sts	0x048D, r24
	TL16_1 = 16;
     db8:	80 e1       	ldi	r24, 0x10	; 16
     dba:	90 e0       	ldi	r25, 0x00	; 0
     dbc:	90 93 90 04 	sts	0x0490, r25
     dc0:	80 93 8f 04 	sts	0x048F, r24
	TL17_1 = 17;
     dc4:	81 e1       	ldi	r24, 0x11	; 17
     dc6:	90 e0       	ldi	r25, 0x00	; 0
     dc8:	90 93 92 04 	sts	0x0492, r25
     dcc:	80 93 91 04 	sts	0x0491, r24
	TL18_1 = 18;
     dd0:	82 e1       	ldi	r24, 0x12	; 18
     dd2:	90 e0       	ldi	r25, 0x00	; 0
     dd4:	90 93 94 04 	sts	0x0494, r25
     dd8:	80 93 93 04 	sts	0x0493, r24
	TL19_1 = 19;
     ddc:	83 e1       	ldi	r24, 0x13	; 19
     dde:	90 e0       	ldi	r25, 0x00	; 0
     de0:	90 93 96 04 	sts	0x0496, r25
     de4:	80 93 95 04 	sts	0x0495, r24
	TL20_1 = 20;
     de8:	84 e1       	ldi	r24, 0x14	; 20
     dea:	90 e0       	ldi	r25, 0x00	; 0
     dec:	90 93 98 04 	sts	0x0498, r25
     df0:	80 93 97 04 	sts	0x0497, r24
	TL21_1 = 21;
     df4:	85 e1       	ldi	r24, 0x15	; 21
     df6:	90 e0       	ldi	r25, 0x00	; 0
     df8:	90 93 9a 04 	sts	0x049A, r25
     dfc:	80 93 99 04 	sts	0x0499, r24
	TL22_1 = 22;
     e00:	86 e1       	ldi	r24, 0x16	; 22
     e02:	90 e0       	ldi	r25, 0x00	; 0
     e04:	90 93 9c 04 	sts	0x049C, r25
     e08:	80 93 9b 04 	sts	0x049B, r24
	TL23_1 = 23;
     e0c:	87 e1       	ldi	r24, 0x17	; 23
     e0e:	90 e0       	ldi	r25, 0x00	; 0
     e10:	90 93 9e 04 	sts	0x049E, r25
     e14:	80 93 9d 04 	sts	0x049D, r24
	TL24_1 = 24;
     e18:	88 e1       	ldi	r24, 0x18	; 24
     e1a:	90 e0       	ldi	r25, 0x00	; 0
     e1c:	90 93 a0 04 	sts	0x04A0, r25
     e20:	80 93 9f 04 	sts	0x049F, r24
	TL25_1 = 25;
     e24:	89 e1       	ldi	r24, 0x19	; 25
     e26:	90 e0       	ldi	r25, 0x00	; 0
     e28:	90 93 a2 04 	sts	0x04A2, r25
     e2c:	80 93 a1 04 	sts	0x04A1, r24
	TL26_1 = 26;
     e30:	8a e1       	ldi	r24, 0x1A	; 26
     e32:	90 e0       	ldi	r25, 0x00	; 0
     e34:	90 93 a4 04 	sts	0x04A4, r25
     e38:	80 93 a3 04 	sts	0x04A3, r24
	TL27_1 = 27;
     e3c:	8b e1       	ldi	r24, 0x1B	; 27
     e3e:	90 e0       	ldi	r25, 0x00	; 0
     e40:	90 93 a6 04 	sts	0x04A6, r25
     e44:	80 93 a5 04 	sts	0x04A5, r24
	TL28_1 = 28;
     e48:	8c e1       	ldi	r24, 0x1C	; 28
     e4a:	90 e0       	ldi	r25, 0x00	; 0
     e4c:	90 93 a8 04 	sts	0x04A8, r25
     e50:	80 93 a7 04 	sts	0x04A7, r24
	TL29_1 = 29;
     e54:	8d e1       	ldi	r24, 0x1D	; 29
     e56:	90 e0       	ldi	r25, 0x00	; 0
     e58:	90 93 aa 04 	sts	0x04AA, r25
     e5c:	80 93 a9 04 	sts	0x04A9, r24
	TL30_1 = 30;
     e60:	8e e1       	ldi	r24, 0x1E	; 30
     e62:	90 e0       	ldi	r25, 0x00	; 0
     e64:	90 93 ac 04 	sts	0x04AC, r25
     e68:	80 93 ab 04 	sts	0x04AB, r24
	TL31_1 = 31;
     e6c:	8f e1       	ldi	r24, 0x1F	; 31
     e6e:	90 e0       	ldi	r25, 0x00	; 0
     e70:	90 93 ae 04 	sts	0x04AE, r25
     e74:	80 93 ad 04 	sts	0x04AD, r24
	TL32_1 = 32;
     e78:	80 e2       	ldi	r24, 0x20	; 32
     e7a:	90 e0       	ldi	r25, 0x00	; 0
     e7c:	90 93 b0 04 	sts	0x04B0, r25
     e80:	80 93 af 04 	sts	0x04AF, r24
}
     e84:	08 95       	ret

00000e86 <_Z21kalkulace_tahu_clovekv>:
}


void kalkulace_tahu_clovek()
{
	if (D == 32)
     e86:	80 91 0d 04 	lds	r24, 0x040D
     e8a:	90 91 0e 04 	lds	r25, 0x040E
     e8e:	80 97       	sbiw	r24, 0x20	; 32
     e90:	21 f4       	brne	.+8      	; 0xe9a <_Z21kalkulace_tahu_clovekv+0x14>
	{
		D = 0;
     e92:	10 92 0e 04 	sts	0x040E, r1
     e96:	10 92 0d 04 	sts	0x040D, r1
	}
	if (C == 17)//figurka na pozici TL17_1
     e9a:	20 91 0b 04 	lds	r18, 0x040B
     e9e:	30 91 0c 04 	lds	r19, 0x040C
     ea2:	21 31       	cpi	r18, 0x11	; 17
     ea4:	31 05       	cpc	r19, r1
     ea6:	49 f4       	brne	.+18     	; 0xeba <_Z21kalkulace_tahu_clovekv+0x34>
	{
		D = TL17_1;
     ea8:	80 91 91 04 	lds	r24, 0x0491
     eac:	90 91 92 04 	lds	r25, 0x0492
     eb0:	90 93 0e 04 	sts	0x040E, r25
     eb4:	80 93 0d 04 	sts	0x040D, r24
     eb8:	24 c0       	rjmp	.+72     	; 0xf02 <_Z21kalkulace_tahu_clovekv+0x7c>
	}
	if (C == 18)//figurka na pozici TL18_1
     eba:	22 31       	cpi	r18, 0x12	; 18
     ebc:	31 05       	cpc	r19, r1
     ebe:	49 f4       	brne	.+18     	; 0xed2 <_Z21kalkulace_tahu_clovekv+0x4c>
	{
		D = TL18_1;
     ec0:	80 91 93 04 	lds	r24, 0x0493
     ec4:	90 91 94 04 	lds	r25, 0x0494
     ec8:	90 93 0e 04 	sts	0x040E, r25
     ecc:	80 93 0d 04 	sts	0x040D, r24
     ed0:	24 c0       	rjmp	.+72     	; 0xf1a <_Z21kalkulace_tahu_clovekv+0x94>
	}
	if (C == 19)//figurka na pozici TL19_1
     ed2:	23 31       	cpi	r18, 0x13	; 19
     ed4:	31 05       	cpc	r19, r1
     ed6:	49 f4       	brne	.+18     	; 0xeea <_Z21kalkulace_tahu_clovekv+0x64>
	{
		D = TL19_1;
     ed8:	80 91 95 04 	lds	r24, 0x0495
     edc:	90 91 96 04 	lds	r25, 0x0496
     ee0:	90 93 0e 04 	sts	0x040E, r25
     ee4:	80 93 0d 04 	sts	0x040D, r24
     ee8:	24 c0       	rjmp	.+72     	; 0xf32 <_Z21kalkulace_tahu_clovekv+0xac>
	}
	if (C == 20)//figurka na pozici TL20_1
     eea:	24 31       	cpi	r18, 0x14	; 20
     eec:	31 05       	cpc	r19, r1
     eee:	49 f4       	brne	.+18     	; 0xf02 <_Z21kalkulace_tahu_clovekv+0x7c>
	{
		D = TL20_1;
     ef0:	80 91 97 04 	lds	r24, 0x0497
     ef4:	90 91 98 04 	lds	r25, 0x0498
     ef8:	90 93 0e 04 	sts	0x040E, r25
     efc:	80 93 0d 04 	sts	0x040D, r24
     f00:	24 c0       	rjmp	.+72     	; 0xf4a <_Z21kalkulace_tahu_clovekv+0xc4>
	}
	if (C == 21)//figurka na pozici TL21_1
     f02:	25 31       	cpi	r18, 0x15	; 21
     f04:	31 05       	cpc	r19, r1
     f06:	49 f4       	brne	.+18     	; 0xf1a <_Z21kalkulace_tahu_clovekv+0x94>
	{
		D = TL21_1;
     f08:	80 91 99 04 	lds	r24, 0x0499
     f0c:	90 91 9a 04 	lds	r25, 0x049A
     f10:	90 93 0e 04 	sts	0x040E, r25
     f14:	80 93 0d 04 	sts	0x040D, r24
     f18:	24 c0       	rjmp	.+72     	; 0xf62 <_Z21kalkulace_tahu_clovekv+0xdc>
	}
	if (C == 22)//figurka na pozici TL22_1
     f1a:	26 31       	cpi	r18, 0x16	; 22
     f1c:	31 05       	cpc	r19, r1
     f1e:	49 f4       	brne	.+18     	; 0xf32 <_Z21kalkulace_tahu_clovekv+0xac>
	{
		D = TL22_1;
     f20:	80 91 9b 04 	lds	r24, 0x049B
     f24:	90 91 9c 04 	lds	r25, 0x049C
     f28:	90 93 0e 04 	sts	0x040E, r25
     f2c:	80 93 0d 04 	sts	0x040D, r24
     f30:	24 c0       	rjmp	.+72     	; 0xf7a <_Z21kalkulace_tahu_clovekv+0xf4>
	}	
	if (C == 23)//figurka na pozici TL23_1
     f32:	27 31       	cpi	r18, 0x17	; 23
     f34:	31 05       	cpc	r19, r1
     f36:	49 f4       	brne	.+18     	; 0xf4a <_Z21kalkulace_tahu_clovekv+0xc4>
	{
		D = TL23_1;
     f38:	80 91 9d 04 	lds	r24, 0x049D
     f3c:	90 91 9e 04 	lds	r25, 0x049E
     f40:	90 93 0e 04 	sts	0x040E, r25
     f44:	80 93 0d 04 	sts	0x040D, r24
     f48:	24 c0       	rjmp	.+72     	; 0xf92 <_Z21kalkulace_tahu_clovekv+0x10c>
	}
	if (C == 24)//figurka na pozici TL24_1
     f4a:	28 31       	cpi	r18, 0x18	; 24
     f4c:	31 05       	cpc	r19, r1
     f4e:	49 f4       	brne	.+18     	; 0xf62 <_Z21kalkulace_tahu_clovekv+0xdc>
	{
		D = TL24_1;
     f50:	80 91 9f 04 	lds	r24, 0x049F
     f54:	90 91 a0 04 	lds	r25, 0x04A0
     f58:	90 93 0e 04 	sts	0x040E, r25
     f5c:	80 93 0d 04 	sts	0x040D, r24
     f60:	24 c0       	rjmp	.+72     	; 0xfaa <_Z21kalkulace_tahu_clovekv+0x124>
	}
	if (C == 25)//figurka na pozici TL25_1
     f62:	29 31       	cpi	r18, 0x19	; 25
     f64:	31 05       	cpc	r19, r1
     f66:	49 f4       	brne	.+18     	; 0xf7a <_Z21kalkulace_tahu_clovekv+0xf4>
	{
		D = TL25_1;
     f68:	80 91 a1 04 	lds	r24, 0x04A1
     f6c:	90 91 a2 04 	lds	r25, 0x04A2
     f70:	90 93 0e 04 	sts	0x040E, r25
     f74:	80 93 0d 04 	sts	0x040D, r24
     f78:	20 c0       	rjmp	.+64     	; 0xfba <_Z21kalkulace_tahu_clovekv+0x134>
	}
	if (C == 26)//figurka na pozici TL26_1
     f7a:	2a 31       	cpi	r18, 0x1A	; 26
     f7c:	31 05       	cpc	r19, r1
     f7e:	49 f4       	brne	.+18     	; 0xf92 <_Z21kalkulace_tahu_clovekv+0x10c>
	{
		D = TL26_1;
     f80:	80 91 a3 04 	lds	r24, 0x04A3
     f84:	90 91 a4 04 	lds	r25, 0x04A4
     f88:	90 93 0e 04 	sts	0x040E, r25
     f8c:	80 93 0d 04 	sts	0x040D, r24
     f90:	20 c0       	rjmp	.+64     	; 0xfd2 <_Z21kalkulace_tahu_clovekv+0x14c>
	}
	if (C == 27)//figurka na pozici TL27_1
     f92:	2b 31       	cpi	r18, 0x1B	; 27
     f94:	31 05       	cpc	r19, r1
     f96:	49 f4       	brne	.+18     	; 0xfaa <_Z21kalkulace_tahu_clovekv+0x124>
	{
		D = TL27_1;
     f98:	80 91 a5 04 	lds	r24, 0x04A5
     f9c:	90 91 a6 04 	lds	r25, 0x04A6
     fa0:	90 93 0e 04 	sts	0x040E, r25
     fa4:	80 93 0d 04 	sts	0x040D, r24
     fa8:	20 c0       	rjmp	.+64     	; 0xfea <_Z21kalkulace_tahu_clovekv+0x164>
	}
	if (C == 28)//figurka na pozici TL28_1
     faa:	2c 31       	cpi	r18, 0x1C	; 28
     fac:	31 05       	cpc	r19, r1
     fae:	29 f4       	brne	.+10     	; 0xfba <_Z21kalkulace_tahu_clovekv+0x134>
	{
		D = TL28_1;
     fb0:	80 91 a7 04 	lds	r24, 0x04A7
     fb4:	90 91 a8 04 	lds	r25, 0x04A8
     fb8:	07 c0       	rjmp	.+14     	; 0xfc8 <_Z21kalkulace_tahu_clovekv+0x142>
	}
	if (C == 29)//figurka na pozici TL29_1
     fba:	2d 31       	cpi	r18, 0x1D	; 29
     fbc:	31 05       	cpc	r19, r1
     fbe:	49 f4       	brne	.+18     	; 0xfd2 <_Z21kalkulace_tahu_clovekv+0x14c>
	{
		D = TL29_1;
     fc0:	80 91 a9 04 	lds	r24, 0x04A9
     fc4:	90 91 aa 04 	lds	r25, 0x04AA
     fc8:	90 93 0e 04 	sts	0x040E, r25
     fcc:	80 93 0d 04 	sts	0x040D, r24
     fd0:	24 c0       	rjmp	.+72     	; 0x101a <_Z21kalkulace_tahu_clovekv+0x194>
	}
	if (C == 30)//figurka na pozici TL30_1
     fd2:	2e 31       	cpi	r18, 0x1E	; 30
     fd4:	31 05       	cpc	r19, r1
     fd6:	49 f4       	brne	.+18     	; 0xfea <_Z21kalkulace_tahu_clovekv+0x164>
	{
		D = TL30_1;
     fd8:	80 91 ab 04 	lds	r24, 0x04AB
     fdc:	90 91 ac 04 	lds	r25, 0x04AC
     fe0:	90 93 0e 04 	sts	0x040E, r25
     fe4:	80 93 0d 04 	sts	0x040D, r24
     fe8:	24 c0       	rjmp	.+72     	; 0x1032 <_Z21kalkulace_tahu_clovekv+0x1ac>
	}
	if (C == 31)//figurka na pozici TL31_1
     fea:	2f 31       	cpi	r18, 0x1F	; 31
     fec:	31 05       	cpc	r19, r1
     fee:	49 f4       	brne	.+18     	; 0x1002 <_Z21kalkulace_tahu_clovekv+0x17c>
	{
		D = TL31_1;
     ff0:	80 91 ad 04 	lds	r24, 0x04AD
     ff4:	90 91 ae 04 	lds	r25, 0x04AE
     ff8:	90 93 0e 04 	sts	0x040E, r25
     ffc:	80 93 0d 04 	sts	0x040D, r24
    1000:	24 c0       	rjmp	.+72     	; 0x104a <_Z21kalkulace_tahu_clovekv+0x1c4>
	}
	if (C == 0)//figurka na pozici TL0_1
    1002:	21 15       	cp	r18, r1
    1004:	31 05       	cpc	r19, r1
    1006:	49 f4       	brne	.+18     	; 0x101a <_Z21kalkulace_tahu_clovekv+0x194>
	{
		D = TL0_1;
    1008:	80 91 6f 04 	lds	r24, 0x046F
    100c:	90 91 70 04 	lds	r25, 0x0470
    1010:	90 93 0e 04 	sts	0x040E, r25
    1014:	80 93 0d 04 	sts	0x040D, r24
    1018:	24 c0       	rjmp	.+72     	; 0x1062 <_Z21kalkulace_tahu_clovekv+0x1dc>
	}
	if (C == 1)//figurka na pozici TL1_1
    101a:	21 30       	cpi	r18, 0x01	; 1
    101c:	31 05       	cpc	r19, r1
    101e:	49 f4       	brne	.+18     	; 0x1032 <_Z21kalkulace_tahu_clovekv+0x1ac>
	{
		D = TL1_1;
    1020:	80 91 71 04 	lds	r24, 0x0471
    1024:	90 91 72 04 	lds	r25, 0x0472
    1028:	90 93 0e 04 	sts	0x040E, r25
    102c:	80 93 0d 04 	sts	0x040D, r24
    1030:	24 c0       	rjmp	.+72     	; 0x107a <_Z21kalkulace_tahu_clovekv+0x1f4>
	}
	if (C == 2)//figurka na pozici TL2_1
    1032:	22 30       	cpi	r18, 0x02	; 2
    1034:	31 05       	cpc	r19, r1
    1036:	49 f4       	brne	.+18     	; 0x104a <_Z21kalkulace_tahu_clovekv+0x1c4>
	{
		D = TL2_1;
    1038:	80 91 73 04 	lds	r24, 0x0473
    103c:	90 91 74 04 	lds	r25, 0x0474
    1040:	90 93 0e 04 	sts	0x040E, r25
    1044:	80 93 0d 04 	sts	0x040D, r24
    1048:	24 c0       	rjmp	.+72     	; 0x1092 <_Z21kalkulace_tahu_clovekv+0x20c>
	}
	if (C == 3)//figurka na pozici TL3_1
    104a:	23 30       	cpi	r18, 0x03	; 3
    104c:	31 05       	cpc	r19, r1
    104e:	49 f4       	brne	.+18     	; 0x1062 <_Z21kalkulace_tahu_clovekv+0x1dc>
	{
		D = TL3_1;
    1050:	80 91 75 04 	lds	r24, 0x0475
    1054:	90 91 76 04 	lds	r25, 0x0476
    1058:	90 93 0e 04 	sts	0x040E, r25
    105c:	80 93 0d 04 	sts	0x040D, r24
    1060:	24 c0       	rjmp	.+72     	; 0x10aa <_Z21kalkulace_tahu_clovekv+0x224>
	}
	if (C == 4)//figurka na pozici TL4_1
    1062:	24 30       	cpi	r18, 0x04	; 4
    1064:	31 05       	cpc	r19, r1
    1066:	49 f4       	brne	.+18     	; 0x107a <_Z21kalkulace_tahu_clovekv+0x1f4>
	{
		D = TL4_1;
    1068:	80 91 77 04 	lds	r24, 0x0477
    106c:	90 91 78 04 	lds	r25, 0x0478
    1070:	90 93 0e 04 	sts	0x040E, r25
    1074:	80 93 0d 04 	sts	0x040D, r24
    1078:	24 c0       	rjmp	.+72     	; 0x10c2 <_Z21kalkulace_tahu_clovekv+0x23c>
	}
	if (C == 5)//figurka na pozici TL5_1
    107a:	25 30       	cpi	r18, 0x05	; 5
    107c:	31 05       	cpc	r19, r1
    107e:	49 f4       	brne	.+18     	; 0x1092 <_Z21kalkulace_tahu_clovekv+0x20c>
	{
		D = TL5_1;
    1080:	80 91 79 04 	lds	r24, 0x0479
    1084:	90 91 7a 04 	lds	r25, 0x047A
    1088:	90 93 0e 04 	sts	0x040E, r25
    108c:	80 93 0d 04 	sts	0x040D, r24
    1090:	24 c0       	rjmp	.+72     	; 0x10da <_Z21kalkulace_tahu_clovekv+0x254>
	}
	if (C == 6)//figurka na pozici TL6_1
    1092:	26 30       	cpi	r18, 0x06	; 6
    1094:	31 05       	cpc	r19, r1
    1096:	49 f4       	brne	.+18     	; 0x10aa <_Z21kalkulace_tahu_clovekv+0x224>
	{
		D = TL6_1;
    1098:	80 91 7b 04 	lds	r24, 0x047B
    109c:	90 91 7c 04 	lds	r25, 0x047C
    10a0:	90 93 0e 04 	sts	0x040E, r25
    10a4:	80 93 0d 04 	sts	0x040D, r24
    10a8:	24 c0       	rjmp	.+72     	; 0x10f2 <_Z21kalkulace_tahu_clovekv+0x26c>
	}
	if (C == 7)//figurka na pozici TL7_1
    10aa:	27 30       	cpi	r18, 0x07	; 7
    10ac:	31 05       	cpc	r19, r1
    10ae:	49 f4       	brne	.+18     	; 0x10c2 <_Z21kalkulace_tahu_clovekv+0x23c>
	{
		D = TL7_1;
    10b0:	80 91 7d 04 	lds	r24, 0x047D
    10b4:	90 91 7e 04 	lds	r25, 0x047E
    10b8:	90 93 0e 04 	sts	0x040E, r25
    10bc:	80 93 0d 04 	sts	0x040D, r24
    10c0:	24 c0       	rjmp	.+72     	; 0x110a <__stack+0xb>
	}
	if (C == 8)//figurka na pozici TL8_1
    10c2:	28 30       	cpi	r18, 0x08	; 8
    10c4:	31 05       	cpc	r19, r1
    10c6:	49 f4       	brne	.+18     	; 0x10da <_Z21kalkulace_tahu_clovekv+0x254>
	{
		D = TL8_1;
    10c8:	80 91 7f 04 	lds	r24, 0x047F
    10cc:	90 91 80 04 	lds	r25, 0x0480
    10d0:	90 93 0e 04 	sts	0x040E, r25
    10d4:	80 93 0d 04 	sts	0x040D, r24
    10d8:	24 c0       	rjmp	.+72     	; 0x1122 <__stack+0x23>
	}
	if (C == 9)//figurka na pozici TL9_1
    10da:	29 30       	cpi	r18, 0x09	; 9
    10dc:	31 05       	cpc	r19, r1
    10de:	49 f4       	brne	.+18     	; 0x10f2 <_Z21kalkulace_tahu_clovekv+0x26c>
	{
		D = TL9_1;
    10e0:	80 91 81 04 	lds	r24, 0x0481
    10e4:	90 91 82 04 	lds	r25, 0x0482
    10e8:	90 93 0e 04 	sts	0x040E, r25
    10ec:	80 93 0d 04 	sts	0x040D, r24
    10f0:	24 c0       	rjmp	.+72     	; 0x113a <__stack+0x3b>
	}
	if (C == 10)//figurka na pozici TL10_1
    10f2:	2a 30       	cpi	r18, 0x0A	; 10
    10f4:	31 05       	cpc	r19, r1
    10f6:	49 f4       	brne	.+18     	; 0x110a <__stack+0xb>
	{
		D = TL10_1;
    10f8:	80 91 83 04 	lds	r24, 0x0483
    10fc:	90 91 84 04 	lds	r25, 0x0484
    1100:	90 93 0e 04 	sts	0x040E, r25
    1104:	80 93 0d 04 	sts	0x040D, r24
    1108:	20 c0       	rjmp	.+64     	; 0x114a <__stack+0x4b>
	}
	if (C == 11)//figurka na pozici TL11_1
    110a:	2b 30       	cpi	r18, 0x0B	; 11
    110c:	31 05       	cpc	r19, r1
    110e:	49 f4       	brne	.+18     	; 0x1122 <__stack+0x23>
	{
		D = TL11_1;
    1110:	80 91 85 04 	lds	r24, 0x0485
    1114:	90 91 86 04 	lds	r25, 0x0486
    1118:	90 93 0e 04 	sts	0x040E, r25
    111c:	80 93 0d 04 	sts	0x040D, r24
    1120:	1c c0       	rjmp	.+56     	; 0x115a <__stack+0x5b>
	}
	if (C == 12)//figurka na pozici TL12_1
    1122:	2c 30       	cpi	r18, 0x0C	; 12
    1124:	31 05       	cpc	r19, r1
    1126:	49 f4       	brne	.+18     	; 0x113a <__stack+0x3b>
	{
		D = TL12_1;
    1128:	80 91 87 04 	lds	r24, 0x0487
    112c:	90 91 88 04 	lds	r25, 0x0488
    1130:	90 93 0e 04 	sts	0x040E, r25
    1134:	80 93 0d 04 	sts	0x040D, r24
    1138:	1c c0       	rjmp	.+56     	; 0x1172 <__stack+0x73>
	}
	if (C == 13)//figurka na pozici TL13_1
    113a:	2d 30       	cpi	r18, 0x0D	; 13
    113c:	31 05       	cpc	r19, r1
    113e:	29 f4       	brne	.+10     	; 0x114a <__stack+0x4b>
	{
		D = TL13_1;
    1140:	80 91 89 04 	lds	r24, 0x0489
    1144:	90 91 8a 04 	lds	r25, 0x048A
    1148:	0f c0       	rjmp	.+30     	; 0x1168 <__stack+0x69>
	}
	if (C == 14)//figurka na pozici TL14_1
    114a:	2e 30       	cpi	r18, 0x0E	; 14
    114c:	31 05       	cpc	r19, r1
    114e:	29 f4       	brne	.+10     	; 0x115a <__stack+0x5b>
	{
		D = TL14_1;
    1150:	80 91 8b 04 	lds	r24, 0x048B
    1154:	90 91 8c 04 	lds	r25, 0x048C
    1158:	07 c0       	rjmp	.+14     	; 0x1168 <__stack+0x69>
	}
	if (C == 15)//figurka na pozici TL15_1
    115a:	2f 30       	cpi	r18, 0x0F	; 15
    115c:	31 05       	cpc	r19, r1
    115e:	49 f4       	brne	.+18     	; 0x1172 <__stack+0x73>
	{
		D = TL15_1;
    1160:	80 91 8d 04 	lds	r24, 0x048D
    1164:	90 91 8e 04 	lds	r25, 0x048E
    1168:	90 93 0e 04 	sts	0x040E, r25
    116c:	80 93 0d 04 	sts	0x040D, r24
    1170:	08 95       	ret
	}
	if (C == 16)//figurka na pozici TL16_1
    1172:	20 31       	cpi	r18, 0x10	; 16
    1174:	31 05       	cpc	r19, r1
    1176:	41 f4       	brne	.+16     	; 0x1188 <__stack+0x89>
	{
		D = TL16_1;
    1178:	80 91 8f 04 	lds	r24, 0x048F
    117c:	90 91 90 04 	lds	r25, 0x0490
    1180:	90 93 0e 04 	sts	0x040E, r25
    1184:	80 93 0d 04 	sts	0x040D, r24
    1188:	08 95       	ret

0000118a <_Z12cti_tlacitkaPh>:
	}
}
void cti_tlacitka(uint8_t tlacitka[])
    118a:	0f 93       	push	r16
    118c:	1f 93       	push	r17
    118e:	cf 93       	push	r28
    1190:	df 93       	push	r29
    1192:	8c 01       	movw	r16, r24
    1194:	c0 e0       	ldi	r28, 0x00	; 0
    1196:	d0 e0       	ldi	r29, 0x00	; 0
	volatile uint16_t m_write;
public:
	volatile bool overwrite;
	bool is_empty() const
	{
		if(m_write == m_read)
    1198:	20 91 de 01 	lds	r18, 0x01DE
    119c:	30 91 df 01 	lds	r19, 0x01DF
    11a0:	80 91 dc 01 	lds	r24, 0x01DC
    11a4:	90 91 dd 01 	lds	r25, 0x01DD
    11a8:	28 17       	cp	r18, r24
    11aa:	39 07       	cpc	r19, r25
    11ac:	99 f4       	brne	.+38     	; 0x11d4 <_Z12cti_tlacitkaPh+0x4a>
    11ae:	f4 cf       	rjmp	.-24     	; 0x1198 <_Z12cti_tlacitkaPh+0xe>
		return true;
	}
	T pop ()
	{
		if(is_empty())
			return m[m_read];
    11b0:	e0 91 dc 01 	lds	r30, 0x01DC
    11b4:	f0 91 dd 01 	lds	r31, 0x01DD
    11b8:	e4 58       	subi	r30, 0x84	; 132
    11ba:	fe 4f       	sbci	r31, 0xFE	; 254
    11bc:	20 81       	ld	r18, Z
    11be:	2c c0       	rjmp	.+88     	; 0x1218 <_Z12cti_tlacitkaPh+0x8e>
		T data = m[m_read];
		if(++m_read == size)
			m_read = 0;
    11c0:	10 92 dd 01 	sts	0x01DD, r1
    11c4:	10 92 dc 01 	sts	0x01DC, r1
    11c8:	27 c0       	rjmp	.+78     	; 0x1218 <_Z12cti_tlacitkaPh+0x8e>
		tlacitka[i] = pc.get();	
		led.rxd(1);
		syncWait(100000);
		led.rxd(0);
	}
}
    11ca:	df 91       	pop	r29
    11cc:	cf 91       	pop	r28
    11ce:	1f 91       	pop	r17
    11d0:	0f 91       	pop	r16
    11d2:	08 95       	ret
	volatile uint16_t m_write;
public:
	volatile bool overwrite;
	bool is_empty() const
	{
		if(m_write == m_read)
    11d4:	20 91 de 01 	lds	r18, 0x01DE
    11d8:	30 91 df 01 	lds	r19, 0x01DF
    11dc:	80 91 dc 01 	lds	r24, 0x01DC
    11e0:	90 91 dd 01 	lds	r25, 0x01DD
    11e4:	28 17       	cp	r18, r24
    11e6:	39 07       	cpc	r19, r25
    11e8:	19 f3       	breq	.-58     	; 0x11b0 <_Z12cti_tlacitkaPh+0x26>
	}
	T pop ()
	{
		if(is_empty())
			return m[m_read];
		T data = m[m_read];
    11ea:	e0 91 dc 01 	lds	r30, 0x01DC
    11ee:	f0 91 dd 01 	lds	r31, 0x01DD
    11f2:	e4 58       	subi	r30, 0x84	; 132
    11f4:	fe 4f       	sbci	r31, 0xFE	; 254
    11f6:	20 81       	ld	r18, Z
		if(++m_read == size)
    11f8:	80 91 dc 01 	lds	r24, 0x01DC
    11fc:	90 91 dd 01 	lds	r25, 0x01DD
    1200:	01 96       	adiw	r24, 0x01	; 1
    1202:	90 93 dd 01 	sts	0x01DD, r25
    1206:	80 93 dc 01 	sts	0x01DC, r24
    120a:	80 91 dc 01 	lds	r24, 0x01DC
    120e:	90 91 dd 01 	lds	r25, 0x01DD
    1212:	80 36       	cpi	r24, 0x60	; 96
    1214:	91 05       	cpc	r25, r1
    1216:	a1 f2       	breq	.-88     	; 0x11c0 <_Z12cti_tlacitkaPh+0x36>
}
void cti_tlacitka(uint8_t tlacitka[])
{
	for(int i=0; i!=5; ++i)
	{
		tlacitka[i] = pc.get();	
    1218:	f8 01       	movw	r30, r16
    121a:	ec 0f       	add	r30, r28
    121c:	fd 1f       	adc	r31, r29
    121e:	20 83       	st	Z, r18
		led.rxd(1);
    1220:	85 e0       	ldi	r24, 0x05	; 5
    1222:	94 e0       	ldi	r25, 0x04	; 4
    1224:	61 e0       	ldi	r22, 0x01	; 1
    1226:	0e 94 18 02 	call	0x430	; 0x430 <_ZN5led_t3rxdEh>
		syncWait(100000);
    122a:	60 ea       	ldi	r22, 0xA0	; 160
    122c:	76 e8       	ldi	r23, 0x86	; 134
    122e:	81 e0       	ldi	r24, 0x01	; 1
    1230:	90 e0       	ldi	r25, 0x00	; 0
    1232:	0e 94 e1 00 	call	0x1c2	; 0x1c2 <_Z8syncWaitm>
		led.rxd(0);
    1236:	85 e0       	ldi	r24, 0x05	; 5
    1238:	94 e0       	ldi	r25, 0x04	; 4
    123a:	60 e0       	ldi	r22, 0x00	; 0
    123c:	0e 94 18 02 	call	0x430	; 0x430 <_ZN5led_t3rxdEh>
		D = TL16_1;
	}
}
void cti_tlacitka(uint8_t tlacitka[])
{
	for(int i=0; i!=5; ++i)
    1240:	21 96       	adiw	r28, 0x01	; 1
    1242:	c5 30       	cpi	r28, 0x05	; 5
    1244:	d1 05       	cpc	r29, r1
    1246:	09 f0       	breq	.+2      	; 0x124a <_Z12cti_tlacitkaPh+0xc0>
    1248:	a7 cf       	rjmp	.-178    	; 0x1198 <_Z12cti_tlacitkaPh+0xe>
    124a:	bf cf       	rjmp	.-130    	; 0x11ca <_Z12cti_tlacitkaPh+0x40>

0000124c <_Z9zobrazeniv>:
	 }
	 pc << "Kostka je  " <<Cislo<< endl;
}
void zobrazeni()
{
	if (Cislo == 1)//vystupy na ridici jednotku,binarni kostka
    124c:	80 91 c1 04 	lds	r24, 0x04C1
    1250:	90 91 c2 04 	lds	r25, 0x04C2
    1254:	81 30       	cpi	r24, 0x01	; 1
    1256:	91 05       	cpc	r25, r1
    1258:	21 f4       	brne	.+8      	; 0x1262 <_Z9zobrazeniv+0x16>
	{
		led.manage(0);
    125a:	85 e0       	ldi	r24, 0x05	; 5
    125c:	94 e0       	ldi	r25, 0x04	; 4
    125e:	60 e0       	ldi	r22, 0x00	; 0
    1260:	2f c0       	rjmp	.+94     	; 0x12c0 <_Z9zobrazeniv+0x74>
		led.program(0);
		led.play(1);
	}
	else if (Cislo == 2)
    1262:	82 30       	cpi	r24, 0x02	; 2
    1264:	91 05       	cpc	r25, r1
    1266:	49 f4       	brne	.+18     	; 0x127a <_Z9zobrazeniv+0x2e>
	{
		led.manage(0);
    1268:	85 e0       	ldi	r24, 0x05	; 5
    126a:	94 e0       	ldi	r25, 0x04	; 4
    126c:	60 e0       	ldi	r22, 0x00	; 0
    126e:	0e 94 27 02 	call	0x44e	; 0x44e <_ZN5led_t6manageEh>
		led.program(1);
    1272:	85 e0       	ldi	r24, 0x05	; 5
    1274:	94 e0       	ldi	r25, 0x04	; 4
    1276:	61 e0       	ldi	r22, 0x01	; 1
    1278:	17 c0       	rjmp	.+46     	; 0x12a8 <_Z9zobrazeniv+0x5c>
		led.play(0);
	}
	else if (Cislo == 3)
    127a:	83 30       	cpi	r24, 0x03	; 3
    127c:	91 05       	cpc	r25, r1
    127e:	49 f4       	brne	.+18     	; 0x1292 <_Z9zobrazeniv+0x46>
	{
		led.manage(0);
    1280:	85 e0       	ldi	r24, 0x05	; 5
    1282:	94 e0       	ldi	r25, 0x04	; 4
    1284:	60 e0       	ldi	r22, 0x00	; 0
    1286:	0e 94 27 02 	call	0x44e	; 0x44e <_ZN5led_t6manageEh>
		led.program(1);
    128a:	85 e0       	ldi	r24, 0x05	; 5
    128c:	94 e0       	ldi	r25, 0x04	; 4
    128e:	61 e0       	ldi	r22, 0x01	; 1
    1290:	1c c0       	rjmp	.+56     	; 0x12ca <_Z9zobrazeniv+0x7e>
		led.play(1);
	}
	else if (Cislo == 4)
    1292:	84 30       	cpi	r24, 0x04	; 4
    1294:	91 05       	cpc	r25, r1
    1296:	71 f4       	brne	.+28     	; 0x12b4 <_Z9zobrazeniv+0x68>
	{
		led.manage(1);
    1298:	85 e0       	ldi	r24, 0x05	; 5
    129a:	94 e0       	ldi	r25, 0x04	; 4
    129c:	61 e0       	ldi	r22, 0x01	; 1
    129e:	0e 94 27 02 	call	0x44e	; 0x44e <_ZN5led_t6manageEh>
		led.program(0);
    12a2:	85 e0       	ldi	r24, 0x05	; 5
    12a4:	94 e0       	ldi	r25, 0x04	; 4
    12a6:	60 e0       	ldi	r22, 0x00	; 0
    12a8:	0e 94 36 02 	call	0x46c	; 0x46c <_ZN5led_t7programEh>
		led.play(0);
    12ac:	85 e0       	ldi	r24, 0x05	; 5
    12ae:	94 e0       	ldi	r25, 0x04	; 4
    12b0:	60 e0       	ldi	r22, 0x00	; 0
    12b2:	10 c0       	rjmp	.+32     	; 0x12d4 <_Z9zobrazeniv+0x88>
	}
	else if (Cislo == 5)
    12b4:	85 30       	cpi	r24, 0x05	; 5
    12b6:	91 05       	cpc	r25, r1
    12b8:	81 f4       	brne	.+32     	; 0x12da <_Z9zobrazeniv+0x8e>
	{
		led.manage(1);
    12ba:	85 e0       	ldi	r24, 0x05	; 5
    12bc:	94 e0       	ldi	r25, 0x04	; 4
    12be:	61 e0       	ldi	r22, 0x01	; 1
    12c0:	0e 94 27 02 	call	0x44e	; 0x44e <_ZN5led_t6manageEh>
		led.program(0);
    12c4:	85 e0       	ldi	r24, 0x05	; 5
    12c6:	94 e0       	ldi	r25, 0x04	; 4
    12c8:	60 e0       	ldi	r22, 0x00	; 0
    12ca:	0e 94 36 02 	call	0x46c	; 0x46c <_ZN5led_t7programEh>
		led.play(1);
    12ce:	85 e0       	ldi	r24, 0x05	; 5
    12d0:	94 e0       	ldi	r25, 0x04	; 4
    12d2:	61 e0       	ldi	r22, 0x01	; 1
    12d4:	0e 94 45 02 	call	0x48a	; 0x48a <_ZN5led_t4playEh>
    12d8:	08 95       	ret
	}
	else if (Cislo == 6)
    12da:	06 97       	sbiw	r24, 0x06	; 6
    12dc:	79 f4       	brne	.+30     	; 0x12fc <_Z9zobrazeniv+0xb0>
	{
		led.manage(1);
    12de:	85 e0       	ldi	r24, 0x05	; 5
    12e0:	94 e0       	ldi	r25, 0x04	; 4
    12e2:	61 e0       	ldi	r22, 0x01	; 1
    12e4:	0e 94 27 02 	call	0x44e	; 0x44e <_ZN5led_t6manageEh>
		led.program(1);
    12e8:	85 e0       	ldi	r24, 0x05	; 5
    12ea:	94 e0       	ldi	r25, 0x04	; 4
    12ec:	61 e0       	ldi	r22, 0x01	; 1
    12ee:	0e 94 36 02 	call	0x46c	; 0x46c <_ZN5led_t7programEh>
		led.play(0);
    12f2:	85 e0       	ldi	r24, 0x05	; 5
    12f4:	94 e0       	ldi	r25, 0x04	; 4
    12f6:	60 e0       	ldi	r22, 0x00	; 0
    12f8:	0e 94 45 02 	call	0x48a	; 0x48a <_ZN5led_t4playEh>
    12fc:	08 95       	ret

000012fe <_Z10zobrazeni0v>:
	}
	

}
void zobrazeni0()
    12fe:	0f 93       	push	r16
    1300:	1f 93       	push	r17
{
		led.manage(0);
    1302:	05 e0       	ldi	r16, 0x05	; 5
    1304:	14 e0       	ldi	r17, 0x04	; 4
    1306:	c8 01       	movw	r24, r16
    1308:	60 e0       	ldi	r22, 0x00	; 0
    130a:	0e 94 27 02 	call	0x44e	; 0x44e <_ZN5led_t6manageEh>
		led.program(0);
    130e:	c8 01       	movw	r24, r16
    1310:	60 e0       	ldi	r22, 0x00	; 0
    1312:	0e 94 36 02 	call	0x46c	; 0x46c <_ZN5led_t7programEh>
		led.play(0);
    1316:	c8 01       	movw	r24, r16
    1318:	60 e0       	ldi	r22, 0x00	; 0
    131a:	0e 94 45 02 	call	0x48a	; 0x48a <_ZN5led_t4playEh>
}
    131e:	1f 91       	pop	r17
    1320:	0f 91       	pop	r16
    1322:	08 95       	ret

00001324 <_ZN5queueIcLj96EE4pushEc>:
	{
		if((m_write == (m_read - 1))||((m_write == (size - 1))&&(m_read == 0)))
			return true;
		return false;
	}
	bool push (T data)
    1324:	cf 93       	push	r28
    1326:	df 93       	push	r29
    1328:	dc 01       	movw	r26, r24
	{
		m[m_write] = data;
    132a:	ec 01       	movw	r28, r24
    132c:	ce 59       	subi	r28, 0x9E	; 158
    132e:	df 4f       	sbci	r29, 0xFF	; 255
    1330:	e8 81       	ld	r30, Y
    1332:	f9 81       	ldd	r31, Y+1	; 0x01
    1334:	e8 0f       	add	r30, r24
    1336:	f9 1f       	adc	r31, r25
    1338:	60 83       	st	Z, r22
			return true;
		return false;
	}
	bool is_full() const
	{
		if((m_write == (m_read - 1))||((m_write == (size - 1))&&(m_read == 0)))
    133a:	28 81       	ld	r18, Y
    133c:	39 81       	ldd	r19, Y+1	; 0x01
    133e:	fc 01       	movw	r30, r24
    1340:	e0 5a       	subi	r30, 0xA0	; 160
    1342:	ff 4f       	sbci	r31, 0xFF	; 255
    1344:	80 81       	ld	r24, Z
    1346:	91 81       	ldd	r25, Z+1	; 0x01
    1348:	01 97       	sbiw	r24, 0x01	; 1
    134a:	28 17       	cp	r18, r24
    134c:	39 07       	cpc	r19, r25
    134e:	49 f0       	breq	.+18     	; 0x1362 <_ZN5queueIcLj96EE4pushEc+0x3e>
    1350:	88 81       	ld	r24, Y
    1352:	99 81       	ldd	r25, Y+1	; 0x01
    1354:	8f 35       	cpi	r24, 0x5F	; 95
    1356:	91 05       	cpc	r25, r1
    1358:	91 f4       	brne	.+36     	; 0x137e <_ZN5queueIcLj96EE4pushEc+0x5a>
    135a:	80 81       	ld	r24, Z
    135c:	91 81       	ldd	r25, Z+1	; 0x01
    135e:	89 2b       	or	r24, r25
    1360:	71 f4       	brne	.+28     	; 0x137e <_ZN5queueIcLj96EE4pushEc+0x5a>
		return false;
	}
	bool push (T data)
	{
		m[m_write] = data;
		if(is_full()&&!overwrite)
    1362:	ac 59       	subi	r26, 0x9C	; 156
    1364:	bf 4f       	sbci	r27, 0xFF	; 255
    1366:	8c 91       	ld	r24, X
    1368:	a4 56       	subi	r26, 0x64	; 100
    136a:	b0 40       	sbci	r27, 0x00	; 0
    136c:	88 23       	and	r24, r24
    136e:	39 f4       	brne	.+14     	; 0x137e <_ZN5queueIcLj96EE4pushEc+0x5a>
    1370:	03 c0       	rjmp	.+6      	; 0x1378 <_ZN5queueIcLj96EE4pushEc+0x54>
			return false;
		if(++m_write == size)
			m_write = 0;
    1372:	11 82       	std	Z+1, r1	; 0x01
    1374:	10 82       	st	Z, r1
    1376:	81 e0       	ldi	r24, 0x01	; 1
		return true;
	}
    1378:	df 91       	pop	r29
    137a:	cf 91       	pop	r28
    137c:	08 95       	ret
	bool push (T data)
	{
		m[m_write] = data;
		if(is_full()&&!overwrite)
			return false;
		if(++m_write == size)
    137e:	fd 01       	movw	r30, r26
    1380:	ee 59       	subi	r30, 0x9E	; 158
    1382:	ff 4f       	sbci	r31, 0xFF	; 255
    1384:	80 81       	ld	r24, Z
    1386:	91 81       	ldd	r25, Z+1	; 0x01
    1388:	01 96       	adiw	r24, 0x01	; 1
    138a:	91 83       	std	Z+1, r25	; 0x01
    138c:	80 83       	st	Z, r24
    138e:	80 81       	ld	r24, Z
    1390:	91 81       	ldd	r25, Z+1	; 0x01
    1392:	80 36       	cpi	r24, 0x60	; 96
    1394:	91 05       	cpc	r25, r1
    1396:	79 f7       	brne	.-34     	; 0x1376 <_ZN5queueIcLj96EE4pushEc+0x52>
    1398:	ec cf       	rjmp	.-40     	; 0x1372 <_ZN5queueIcLj96EE4pushEc+0x4e>

0000139a <_ZN8USART1_t8sendCharEc>:
		UBRR1L = (speed&0x00FF);
		numbersSpaces = 1;
		cin_isFirst = true;
		cin_isGood = true;
	}
	void sendChar(char data)
    139a:	1f 93       	push	r17
    139c:	cf 93       	push	r28
    139e:	df 93       	push	r29
    13a0:	16 2f       	mov	r17, r22
	{
		while(!m_tx.push(data)) {}
    13a2:	ec 01       	movw	r28, r24
    13a4:	cb 59       	subi	r28, 0x9B	; 155
    13a6:	df 4f       	sbci	r29, 0xFF	; 255
    13a8:	ce 01       	movw	r24, r28
    13aa:	61 2f       	mov	r22, r17
    13ac:	0e 94 92 09 	call	0x1324	; 0x1324 <_ZN5queueIcLj96EE4pushEc>
    13b0:	88 23       	and	r24, r24
    13b2:	d1 f3       	breq	.-12     	; 0x13a8 <_ZN8USART1_t8sendCharEc+0xe>
		UCSR1B |= (1<<UDRIE1);
    13b4:	80 91 9a 00 	lds	r24, 0x009A
    13b8:	80 62       	ori	r24, 0x20	; 32
    13ba:	80 93 9a 00 	sts	0x009A, r24
	}
    13be:	df 91       	pop	r29
    13c0:	cf 91       	pop	r28
    13c2:	1f 91       	pop	r17
    13c4:	08 95       	ret

000013c6 <_ZN8USART1_t10sendNumberElh>:
	{
		for(; *str != 0; ++str)
			sendCharImediatly(*str);
	}

	void sendNumber(int32_t number, uint8_t width = 4)
    13c6:	2f 92       	push	r2
    13c8:	3f 92       	push	r3
    13ca:	4f 92       	push	r4
    13cc:	5f 92       	push	r5
    13ce:	6f 92       	push	r6
    13d0:	7f 92       	push	r7
    13d2:	8f 92       	push	r8
    13d4:	9f 92       	push	r9
    13d6:	af 92       	push	r10
    13d8:	bf 92       	push	r11
    13da:	cf 92       	push	r12
    13dc:	df 92       	push	r13
    13de:	ef 92       	push	r14
    13e0:	ff 92       	push	r15
    13e2:	0f 93       	push	r16
    13e4:	1f 93       	push	r17
    13e6:	df 93       	push	r29
    13e8:	cf 93       	push	r28
    13ea:	cd b7       	in	r28, 0x3d	; 61
    13ec:	de b7       	in	r29, 0x3e	; 62
    13ee:	2c 97       	sbiw	r28, 0x0c	; 12
    13f0:	0f b6       	in	r0, 0x3f	; 63
    13f2:	f8 94       	cli
    13f4:	de bf       	out	0x3e, r29	; 62
    13f6:	0f be       	out	0x3f, r0	; 63
    13f8:	cd bf       	out	0x3d, r28	; 61
    13fa:	1c 01       	movw	r2, r24
    13fc:	4a 01       	movw	r8, r20
    13fe:	5b 01       	movw	r10, r22
    1400:	52 2e       	mov	r5, r18
	{
		char buff[12];
		uint8_t buffP = 0;
		if(number == 0)
    1402:	41 15       	cp	r20, r1
    1404:	51 05       	cpc	r21, r1
    1406:	61 05       	cpc	r22, r1
    1408:	71 05       	cpc	r23, r1
    140a:	71 f4       	brne	.+28     	; 0x1428 <_ZN8USART1_t10sendNumberElh+0x62>
    140c:	11 e0       	ldi	r17, 0x01	; 1
    140e:	05 c0       	rjmp	.+10     	; 0x141a <_ZN8USART1_t10sendNumberElh+0x54>
		{
			for(uint8_t i = 1; i < width; ++i)
				sendChar(' ');
    1410:	c1 01       	movw	r24, r2
    1412:	60 e2       	ldi	r22, 0x20	; 32
    1414:	0e 94 cd 09 	call	0x139a	; 0x139a <_ZN8USART1_t8sendCharEc>
	{
		char buff[12];
		uint8_t buffP = 0;
		if(number == 0)
		{
			for(uint8_t i = 1; i < width; ++i)
    1418:	1f 5f       	subi	r17, 0xFF	; 255
    141a:	15 15       	cp	r17, r5
    141c:	c8 f3       	brcs	.-14     	; 0x1410 <_ZN8USART1_t10sendNumberElh+0x4a>
				sendChar(' ');
			sendChar('0');
    141e:	c1 01       	movw	r24, r2
    1420:	60 e3       	ldi	r22, 0x30	; 48
    1422:	0e 94 cd 09 	call	0x139a	; 0x139a <_ZN8USART1_t8sendCharEc>
    1426:	65 c0       	rjmp	.+202    	; 0x14f2 <_ZN8USART1_t10sendNumberElh+0x12c>
			return;
		}
		else if(number < 0)
    1428:	77 fd       	sbrc	r23, 7
    142a:	02 c0       	rjmp	.+4      	; 0x1430 <_ZN8USART1_t10sendNumberElh+0x6a>
    142c:	44 24       	eor	r4, r4
    142e:	0d c0       	rjmp	.+26     	; 0x144a <_ZN8USART1_t10sendNumberElh+0x84>
		{
			buff[buffP++] = '-';
    1430:	8d e2       	ldi	r24, 0x2D	; 45
    1432:	89 83       	std	Y+1, r24	; 0x01
			number = -number;
    1434:	b0 94       	com	r11
    1436:	a0 94       	com	r10
    1438:	90 94       	com	r9
    143a:	80 94       	com	r8
    143c:	81 1c       	adc	r8, r1
    143e:	91 1c       	adc	r9, r1
    1440:	a1 1c       	adc	r10, r1
    1442:	b1 1c       	adc	r11, r1
			--width;
    1444:	5a 94       	dec	r5
    1446:	44 24       	eor	r4, r4
    1448:	43 94       	inc	r4
    144a:	c1 2c       	mov	r12, r1
    144c:	ea ec       	ldi	r30, 0xCA	; 202
    144e:	de 2e       	mov	r13, r30
    1450:	ea e9       	ldi	r30, 0x9A	; 154
    1452:	ee 2e       	mov	r14, r30
    1454:	eb e3       	ldi	r30, 0x3B	; 59
    1456:	fe 2e       	mov	r15, r30
    1458:	66 24       	eor	r6, r6
    145a:	77 24       	eor	r7, r7
		}
		for(int32_t i = 1000000000;i >= 1; i = (i / 10))
		{
			if(number >= i)
    145c:	8c 14       	cp	r8, r12
    145e:	9d 04       	cpc	r9, r13
    1460:	ae 04       	cpc	r10, r14
    1462:	bf 04       	cpc	r11, r15
    1464:	d4 f0       	brlt	.+52     	; 0x149a <_ZN8USART1_t10sendNumberElh+0xd4>
			{
				buff[buffP++] = ('0' + ((number / i) % 10));
    1466:	01 e0       	ldi	r16, 0x01	; 1
    1468:	10 e0       	ldi	r17, 0x00	; 0
    146a:	0c 0f       	add	r16, r28
    146c:	1d 1f       	adc	r17, r29
    146e:	04 0d       	add	r16, r4
    1470:	11 1d       	adc	r17, r1
    1472:	c5 01       	movw	r24, r10
    1474:	b4 01       	movw	r22, r8
    1476:	a7 01       	movw	r20, r14
    1478:	96 01       	movw	r18, r12
    147a:	0e 94 24 4b 	call	0x9648	; 0x9648 <__divmodsi4>
    147e:	ca 01       	movw	r24, r20
    1480:	b9 01       	movw	r22, r18
    1482:	2a e0       	ldi	r18, 0x0A	; 10
    1484:	30 e0       	ldi	r19, 0x00	; 0
    1486:	40 e0       	ldi	r20, 0x00	; 0
    1488:	50 e0       	ldi	r21, 0x00	; 0
    148a:	0e 94 24 4b 	call	0x9648	; 0x9648 <__divmodsi4>
    148e:	60 5d       	subi	r22, 0xD0	; 208
    1490:	f8 01       	movw	r30, r16
    1492:	60 83       	st	Z, r22
    1494:	43 94       	inc	r4
				if(width != 0)
    1496:	51 10       	cpse	r5, r1
					--width;
    1498:	5a 94       	dec	r5
		{
			buff[buffP++] = '-';
			number = -number;
			--width;
		}
		for(int32_t i = 1000000000;i >= 1; i = (i / 10))
    149a:	c7 01       	movw	r24, r14
    149c:	b6 01       	movw	r22, r12
    149e:	2a e0       	ldi	r18, 0x0A	; 10
    14a0:	30 e0       	ldi	r19, 0x00	; 0
    14a2:	40 e0       	ldi	r20, 0x00	; 0
    14a4:	50 e0       	ldi	r21, 0x00	; 0
    14a6:	0e 94 24 4b 	call	0x9648	; 0x9648 <__divmodsi4>
    14aa:	c9 01       	movw	r24, r18
    14ac:	da 01       	movw	r26, r20
    14ae:	6c 01       	movw	r12, r24
    14b0:	7d 01       	movw	r14, r26
    14b2:	08 94       	sec
    14b4:	61 1c       	adc	r6, r1
    14b6:	71 1c       	adc	r7, r1
    14b8:	fa e0       	ldi	r31, 0x0A	; 10
    14ba:	6f 16       	cp	r6, r31
    14bc:	71 04       	cpc	r7, r1
    14be:	71 f6       	brne	.-100    	; 0x145c <_ZN8USART1_t10sendNumberElh+0x96>
    14c0:	10 e0       	ldi	r17, 0x00	; 0
    14c2:	05 c0       	rjmp	.+10     	; 0x14ce <_ZN8USART1_t10sendNumberElh+0x108>
				if(width != 0)
					--width;
			}
		}
		for(uint8_t i = 0; i < width; ++i)
			sendChar(' ');
    14c4:	c1 01       	movw	r24, r2
    14c6:	60 e2       	ldi	r22, 0x20	; 32
    14c8:	0e 94 cd 09 	call	0x139a	; 0x139a <_ZN8USART1_t8sendCharEc>
				buff[buffP++] = ('0' + ((number / i) % 10));
				if(width != 0)
					--width;
			}
		}
		for(uint8_t i = 0; i < width; ++i)
    14cc:	1f 5f       	subi	r17, 0xFF	; 255
    14ce:	15 15       	cp	r17, r5
    14d0:	c8 f3       	brcs	.-14     	; 0x14c4 <_ZN8USART1_t10sendNumberElh+0xfe>
    14d2:	7e 01       	movw	r14, r28
    14d4:	08 94       	sec
    14d6:	e1 1c       	adc	r14, r1
    14d8:	f1 1c       	adc	r15, r1
    14da:	87 01       	movw	r16, r14
    14dc:	06 c0       	rjmp	.+12     	; 0x14ea <_ZN8USART1_t10sendNumberElh+0x124>
			sendChar(' ');
		for(uint8_t i = 0; i < buffP; ++i)
			sendChar(buff[i]);
    14de:	c1 01       	movw	r24, r2
    14e0:	f8 01       	movw	r30, r16
    14e2:	61 91       	ld	r22, Z+
    14e4:	8f 01       	movw	r16, r30
    14e6:	0e 94 cd 09 	call	0x139a	; 0x139a <_ZN8USART1_t8sendCharEc>
					--width;
			}
		}
		for(uint8_t i = 0; i < width; ++i)
			sendChar(' ');
		for(uint8_t i = 0; i < buffP; ++i)
    14ea:	80 2f       	mov	r24, r16
    14ec:	8e 19       	sub	r24, r14
    14ee:	84 15       	cp	r24, r4
    14f0:	b0 f3       	brcs	.-20     	; 0x14de <_ZN8USART1_t10sendNumberElh+0x118>
			sendChar(buff[i]);
	}
    14f2:	2c 96       	adiw	r28, 0x0c	; 12
    14f4:	0f b6       	in	r0, 0x3f	; 63
    14f6:	f8 94       	cli
    14f8:	de bf       	out	0x3e, r29	; 62
    14fa:	0f be       	out	0x3f, r0	; 63
    14fc:	cd bf       	out	0x3d, r28	; 61
    14fe:	cf 91       	pop	r28
    1500:	df 91       	pop	r29
    1502:	1f 91       	pop	r17
    1504:	0f 91       	pop	r16
    1506:	ff 90       	pop	r15
    1508:	ef 90       	pop	r14
    150a:	df 90       	pop	r13
    150c:	cf 90       	pop	r12
    150e:	bf 90       	pop	r11
    1510:	af 90       	pop	r10
    1512:	9f 90       	pop	r9
    1514:	8f 90       	pop	r8
    1516:	7f 90       	pop	r7
    1518:	6f 90       	pop	r6
    151a:	5f 90       	pop	r5
    151c:	4f 90       	pop	r4
    151e:	3f 90       	pop	r3
    1520:	2f 90       	pop	r2
    1522:	08 95       	ret

00001524 <_ZN8USART1_tlsEPKc>:
	USART1_t &operator << (const char &ch)
	{
		sendChar(ch);
		return *this;
	}
	USART1_t &operator << (const char *ch)
    1524:	0f 93       	push	r16
    1526:	1f 93       	push	r17
    1528:	cf 93       	push	r28
    152a:	df 93       	push	r29
    152c:	18 2f       	mov	r17, r24
    152e:	09 2f       	mov	r16, r25
    1530:	eb 01       	movw	r28, r22
    1532:	05 c0       	rjmp	.+10     	; 0x153e <_ZN8USART1_tlsEPKc+0x1a>
	}

	void send(const char * str)
	{
		for(; *str != 0; ++str)
			sendChar(*str);
    1534:	81 2f       	mov	r24, r17
    1536:	90 2f       	mov	r25, r16
    1538:	0e 94 cd 09 	call	0x139a	; 0x139a <_ZN8USART1_t8sendCharEc>
		while((UCSR1A & (1<<TXC1)) == 0){}
	}

	void send(const char * str)
	{
		for(; *str != 0; ++str)
    153c:	21 96       	adiw	r28, 0x01	; 1
    153e:	68 81       	ld	r22, Y
    1540:	66 23       	and	r22, r22
    1542:	c1 f7       	brne	.-16     	; 0x1534 <_ZN8USART1_tlsEPKc+0x10>
	}
	USART1_t &operator << (const char *ch)
	{
		send(ch);
		return *this;
	}
    1544:	81 2f       	mov	r24, r17
    1546:	90 2f       	mov	r25, r16
    1548:	df 91       	pop	r29
    154a:	cf 91       	pop	r28
    154c:	1f 91       	pop	r17
    154e:	0f 91       	pop	r16
    1550:	08 95       	ret

00001552 <_Z6kostkav>:
	naber_na_pozici22();
	syncWait(2000000);
	vyloz_na_pozici25();
}

void kostka()
    1552:	0f 93       	push	r16
    1554:	1f 93       	push	r17
{
	 bool is_any = true;
	 do 
    1556:	a1 e0       	ldi	r26, 0x01	; 1
    1558:	b0 e0       	ldi	r27, 0x00	; 0

public:

	bool isUp()
	{
		return((PINE & (1<<PE4)) == 0)?true:false;
    155a:	21 b1       	in	r18, 0x01	; 1
	}
	bool isDown()
	{
		return((PINE & (1<<PE5)) == 0)?true:false;
    155c:	81 b1       	in	r24, 0x01	; 1
	}
	bool isLeft()
	{
		return((PINE & (1<<PE6)) == 0)?true:false;
    155e:	61 b1       	in	r22, 0x01	; 1
	}
	bool isRight()
	{
		return((PINE & (1<<PE7)) == 0)?true:false;
    1560:	41 b1       	in	r20, 0x01	; 1
	}
	bool isStart()
	{
		return((PIND & (1<<PD0)) == 0)?true:false;
    1562:	e0 b3       	in	r30, 0x10	; 16
    1564:	30 e0       	ldi	r19, 0x00	; 0
    1566:	94 e0       	ldi	r25, 0x04	; 4
    1568:	36 95       	lsr	r19
    156a:	27 95       	ror	r18
    156c:	9a 95       	dec	r25
    156e:	e1 f7       	brne	.-8      	; 0x1568 <_Z6kostkav+0x16>
    1570:	2a 27       	eor	r18, r26
    1572:	3b 27       	eor	r19, r27
    1574:	90 e0       	ldi	r25, 0x00	; 0
    1576:	05 e0       	ldi	r16, 0x05	; 5
    1578:	96 95       	lsr	r25
    157a:	87 95       	ror	r24
    157c:	0a 95       	dec	r16
    157e:	e1 f7       	brne	.-8      	; 0x1578 <_Z6kostkav+0x26>
    1580:	8a 27       	eor	r24, r26
    1582:	9b 27       	eor	r25, r27
    1584:	82 2b       	or	r24, r18
    1586:	93 2b       	or	r25, r19
    1588:	81 70       	andi	r24, 0x01	; 1
    158a:	90 70       	andi	r25, 0x00	; 0
    158c:	55 27       	eor	r21, r21
    158e:	47 fd       	sbrc	r20, 7
    1590:	50 95       	com	r21
    1592:	40 95       	com	r20
    1594:	50 95       	com	r21
    1596:	44 27       	eor	r20, r20
    1598:	55 0f       	add	r21, r21
    159a:	44 1f       	adc	r20, r20
    159c:	55 27       	eor	r21, r21
    159e:	84 2b       	or	r24, r20
    15a0:	95 2b       	or	r25, r21
    15a2:	70 e0       	ldi	r23, 0x00	; 0
    15a4:	f6 e0       	ldi	r31, 0x06	; 6
    15a6:	76 95       	lsr	r23
    15a8:	67 95       	ror	r22
    15aa:	fa 95       	dec	r31
    15ac:	e1 f7       	brne	.-8      	; 0x15a6 <_Z6kostkav+0x54>
    15ae:	6a 27       	eor	r22, r26
    15b0:	7b 27       	eor	r23, r27
    15b2:	61 70       	andi	r22, 0x01	; 1
    15b4:	70 70       	andi	r23, 0x00	; 0
    15b6:	86 2b       	or	r24, r22
    15b8:	97 2b       	or	r25, r23
    15ba:	f0 e0       	ldi	r31, 0x00	; 0
    15bc:	ea 27       	eor	r30, r26
    15be:	fb 27       	eor	r31, r27
    15c0:	e1 70       	andi	r30, 0x01	; 1
    15c2:	f0 70       	andi	r31, 0x00	; 0
    15c4:	8e 2b       	or	r24, r30
    15c6:	9f 2b       	or	r25, r31
    15c8:	89 2b       	or	r24, r25
    15ca:	39 f2       	breq	.-114    	; 0x155a <_Z6kostkav+0x8>
	 {
		is_any = buttons.isUp() | buttons.isDown() | buttons.isLeft() | buttons.isRight() | buttons.isStart();
	 } 
	 while (!is_any);
	 if(buttons.isUp() == true)
    15cc:	0c 99       	sbic	0x01, 4	; 1
    15ce:	03 c0       	rjmp	.+6      	; 0x15d6 <_Z6kostkav+0x84>
	 {
	 	 Cislo = 2;
    15d0:	82 e0       	ldi	r24, 0x02	; 2
    15d2:	90 e0       	ldi	r25, 0x00	; 0
    15d4:	13 c0       	rjmp	.+38     	; 0x15fc <_Z6kostkav+0xaa>
	 }
	 else if(buttons.isLeft() == true)
    15d6:	0e 99       	sbic	0x01, 6	; 1
    15d8:	03 c0       	rjmp	.+6      	; 0x15e0 <_Z6kostkav+0x8e>
	 {
		 Cislo = 5;
    15da:	85 e0       	ldi	r24, 0x05	; 5
    15dc:	90 e0       	ldi	r25, 0x00	; 0
    15de:	0e c0       	rjmp	.+28     	; 0x15fc <_Z6kostkav+0xaa>
	 }
	 else if(buttons.isRight() == true)
    15e0:	0f 99       	sbic	0x01, 7	; 1
    15e2:	03 c0       	rjmp	.+6      	; 0x15ea <_Z6kostkav+0x98>
	 {
		 Cislo = 3;
    15e4:	83 e0       	ldi	r24, 0x03	; 3
    15e6:	90 e0       	ldi	r25, 0x00	; 0
    15e8:	09 c0       	rjmp	.+18     	; 0x15fc <_Z6kostkav+0xaa>
	 }
	 else if(buttons.isDown() == true)
    15ea:	0d 99       	sbic	0x01, 5	; 1
    15ec:	03 c0       	rjmp	.+6      	; 0x15f4 <_Z6kostkav+0xa2>

	 {
	 	 Cislo = 4;
    15ee:	84 e0       	ldi	r24, 0x04	; 4
    15f0:	90 e0       	ldi	r25, 0x00	; 0
    15f2:	04 c0       	rjmp	.+8      	; 0x15fc <_Z6kostkav+0xaa>
	 }
	 else if(buttons.isStart() == true)
    15f4:	80 99       	sbic	0x10, 0	; 16
    15f6:	06 c0       	rjmp	.+12     	; 0x1604 <_Z6kostkav+0xb2>
	 {
	 	 Cislo = 1;
    15f8:	81 e0       	ldi	r24, 0x01	; 1
    15fa:	90 e0       	ldi	r25, 0x00	; 0
    15fc:	90 93 c2 04 	sts	0x04C2, r25
    1600:	80 93 c1 04 	sts	0x04C1, r24
	 }
	 pc << "Kostka je  " <<Cislo<< endl;
    1604:	8c e7       	ldi	r24, 0x7C	; 124
    1606:	91 e0       	ldi	r25, 0x01	; 1
    1608:	60 e0       	ldi	r22, 0x00	; 0
    160a:	71 e0       	ldi	r23, 0x01	; 1
    160c:	0e 94 92 0a 	call	0x1524	; 0x1524 <_ZN8USART1_tlsEPKc>
    1610:	8c 01       	movw	r16, r24
		sendNumber(n, numbersSpaces);
		return *this;
	}
	USART1_t &operator << (const int16_t &n)
	{
		sendNumber(n, numbersSpaces);
    1612:	40 91 c1 04 	lds	r20, 0x04C1
    1616:	50 91 c2 04 	lds	r21, 0x04C2
    161a:	66 27       	eor	r22, r22
    161c:	57 fd       	sbrc	r21, 7
    161e:	60 95       	com	r22
    1620:	76 2f       	mov	r23, r22
    1622:	fc 01       	movw	r30, r24
    1624:	e6 53       	subi	r30, 0x36	; 54
    1626:	ff 4f       	sbci	r31, 0xFF	; 255
    1628:	20 81       	ld	r18, Z
    162a:	0e 94 e3 09 	call	0x13c6	; 0x13c6 <_ZN8USART1_t10sendNumberElh>
    162e:	c8 01       	movw	r24, r16
    1630:	6c e0       	ldi	r22, 0x0C	; 12
    1632:	71 e0       	ldi	r23, 0x01	; 1
    1634:	0e 94 92 0a 	call	0x1524	; 0x1524 <_ZN8USART1_tlsEPKc>
}
    1638:	1f 91       	pop	r17
    163a:	0f 91       	pop	r16
    163c:	08 95       	ret

0000163e <_Z4hra2v>:
	led.txd(0);
	zobrazeni0();
}
void hra2()
{	
	pc << "Hraje hrac" <<endl;
    163e:	8c e7       	ldi	r24, 0x7C	; 124
    1640:	91 e0       	ldi	r25, 0x01	; 1
    1642:	6f e0       	ldi	r22, 0x0F	; 15
    1644:	71 e0       	ldi	r23, 0x01	; 1
    1646:	0e 94 92 0a 	call	0x1524	; 0x1524 <_ZN8USART1_tlsEPKc>
    164a:	6c e0       	ldi	r22, 0x0C	; 12
    164c:	71 e0       	ldi	r23, 0x01	; 1
    164e:	0e 94 92 0a 	call	0x1524	; 0x1524 <_ZN8USART1_tlsEPKc>
	led.rxd(1);
    1652:	85 e0       	ldi	r24, 0x05	; 5
    1654:	94 e0       	ldi	r25, 0x04	; 4
    1656:	61 e0       	ldi	r22, 0x01	; 1
    1658:	0e 94 18 02 	call	0x430	; 0x430 <_ZN5led_t3rxdEh>
		cti_tlacitka(tlacitka);
    165c:	85 ec       	ldi	r24, 0xC5	; 197
    165e:	94 e0       	ldi	r25, 0x04	; 4
    1660:	0e 94 c5 08 	call	0x118a	; 0x118a <_Z12cti_tlacitkaPh>
		if (F1_1 == 0)
    1664:	80 91 1b 04 	lds	r24, 0x041B
    1668:	90 91 1c 04 	lds	r25, 0x041C
    166c:	89 2b       	or	r24, r25
    166e:	39 f4       	brne	.+14     	; 0x167e <_Z4hra2v+0x40>
		{
			Cislo = 6;
    1670:	86 e0       	ldi	r24, 0x06	; 6
    1672:	90 e0       	ldi	r25, 0x00	; 0
    1674:	90 93 c2 04 	sts	0x04C2, r25
    1678:	80 93 c1 04 	sts	0x04C1, r24
    167c:	02 c0       	rjmp	.+4      	; 0x1682 <_Z4hra2v+0x44>
		}
		else 
		{
			kostka();//cislice 1-6 tlacitka na ridici jednotce	
    167e:	0e 94 a9 0a 	call	0x1552	; 0x1552 <_Z6kostkav>
		}
		zobrazeni();
    1682:	0e 94 26 09 	call	0x124c	; 0x124c <_Z9zobrazeniv>
		syncWait(2000000);
    1686:	60 e8       	ldi	r22, 0x80	; 128
    1688:	74 e8       	ldi	r23, 0x84	; 132
    168a:	8e e1       	ldi	r24, 0x1E	; 30
    168c:	90 e0       	ldi	r25, 0x00	; 0
    168e:	0e 94 e1 00 	call	0x1c2	; 0x1c2 <_Z8syncWaitm>
		if (F1_1 = 1)//clovek nasadil figurku,figurka je na startu
    1692:	41 e0       	ldi	r20, 0x01	; 1
    1694:	50 e0       	ldi	r21, 0x00	; 0
    1696:	50 93 1c 04 	sts	0x041C, r21
    169a:	40 93 1b 04 	sts	0x041B, r20
		{
			C = C + Cislo;
    169e:	20 91 c1 04 	lds	r18, 0x04C1
    16a2:	30 91 c2 04 	lds	r19, 0x04C2
    16a6:	80 91 0b 04 	lds	r24, 0x040B
    16aa:	90 91 0c 04 	lds	r25, 0x040C
    16ae:	82 0f       	add	r24, r18
    16b0:	93 1f       	adc	r25, r19
    16b2:	90 93 0c 04 	sts	0x040C, r25
    16b6:	80 93 0b 04 	sts	0x040B, r24
			D = C;
    16ba:	90 93 0e 04 	sts	0x040E, r25
    16be:	80 93 0d 04 	sts	0x040D, r24
		}
		
		if (Cislo == 6)//clovek ma v hracim poli figurku
    16c2:	26 30       	cpi	r18, 0x06	; 6
    16c4:	31 05       	cpc	r19, r1
    16c6:	61 f4       	brne	.+24     	; 0x16e0 <_Z4hra2v+0xa2>
		{
			F1_1 = 1;//figurka cloveka je ve hre
			C = 16;
    16c8:	80 e1       	ldi	r24, 0x10	; 16
    16ca:	90 e0       	ldi	r25, 0x00	; 0
    16cc:	90 93 0c 04 	sts	0x040C, r25
    16d0:	80 93 0b 04 	sts	0x040B, r24
			kalkulace_tahu_clovek();
    16d4:	0e 94 43 07 	call	0xe86	; 0xe86 <_Z21kalkulace_tahu_clovekv>
			TL39 = 0;//vynuluje pozici v chlivku
    16d8:	10 92 6c 04 	sts	0x046C, r1
    16dc:	10 92 6b 04 	sts	0x046B, r1
		}

		if(D == A)//doslo k vyhozeni robotovy figurky
    16e0:	20 91 0d 04 	lds	r18, 0x040D
    16e4:	30 91 0e 04 	lds	r19, 0x040E
    16e8:	80 91 07 04 	lds	r24, 0x0407
    16ec:	90 91 08 04 	lds	r25, 0x0408
    16f0:	28 17       	cp	r18, r24
    16f2:	39 07       	cpc	r19, r25
    16f4:	71 f4       	brne	.+28     	; 0x1712 <_Z4hra2v+0xd4>
		{
			A = 0;
    16f6:	10 92 08 04 	sts	0x0408, r1
    16fa:	10 92 07 04 	sts	0x0407, r1
			TL33 = 1;//figurka robota je v chlivku
    16fe:	81 e0       	ldi	r24, 0x01	; 1
    1700:	90 e0       	ldi	r25, 0x00	; 0
    1702:	90 93 60 04 	sts	0x0460, r25
    1706:	80 93 5f 04 	sts	0x045F, r24
			F1_0 = 0;//figurka robota neni ve hre
    170a:	10 92 18 04 	sts	0x0418, r1
    170e:	10 92 17 04 	sts	0x0417, r1
		}

		
	led.rxd(0);
    1712:	85 e0       	ldi	r24, 0x05	; 5
    1714:	94 e0       	ldi	r25, 0x04	; 4
    1716:	60 e0       	ldi	r22, 0x00	; 0
    1718:	0e 94 18 02 	call	0x430	; 0x430 <_ZN5led_t3rxdEh>
	zobrazeni0();
    171c:	0e 94 7f 09 	call	0x12fe	; 0x12fe <_Z10zobrazeni0v>
}
    1720:	08 95       	ret

00001722 <__vector_30>:
	{
		cin_isGood = true;
	}
}; USART1_t pc;

ISR(USART1_RX_vect)
    1722:	1f 92       	push	r1
    1724:	0f 92       	push	r0
    1726:	0f b6       	in	r0, 0x3f	; 63
    1728:	0f 92       	push	r0
    172a:	0b b6       	in	r0, 0x3b	; 59
    172c:	0f 92       	push	r0
    172e:	11 24       	eor	r1, r1
    1730:	1f 93       	push	r17
    1732:	2f 93       	push	r18
    1734:	3f 93       	push	r19
    1736:	4f 93       	push	r20
    1738:	5f 93       	push	r21
    173a:	6f 93       	push	r22
    173c:	7f 93       	push	r23
    173e:	8f 93       	push	r24
    1740:	9f 93       	push	r25
    1742:	af 93       	push	r26
    1744:	bf 93       	push	r27
    1746:	ef 93       	push	r30
    1748:	ff 93       	push	r31
{
	char data = UDR1;
    174a:	10 91 9c 00 	lds	r17, 0x009C
	if((UCSR1A & (1<<FE1)) == (1<<FE1))
    174e:	80 91 9b 00 	lds	r24, 0x009B
    1752:	84 fd       	sbrc	r24, 4
    1754:	24 c0       	rjmp	.+72     	; 0x179e <__vector_30+0x7c>

public:

	void data_in(char &ch)
	{
		m_rx.push(ch);
    1756:	8c e7       	ldi	r24, 0x7C	; 124
    1758:	91 e0       	ldi	r25, 0x01	; 1
    175a:	61 2f       	mov	r22, r17
    175c:	0e 94 92 09 	call	0x1324	; 0x1324 <_ZN5queueIcLj96EE4pushEc>
	if((UCSR1A & (1<<FE1)) == (1<<FE1))
		return;
	pc.data_in(data);
	static const unsigned char bootSeq[] = { '#', '#', '#', '#' };
	static uint8_t state = 0;
	if (data == bootSeq[state])
    1760:	90 91 ca 04 	lds	r25, 0x04CA
    1764:	e9 2f       	mov	r30, r25
    1766:	f0 e0       	ldi	r31, 0x00	; 0
    1768:	e9 58       	subi	r30, 0x89	; 137
    176a:	fe 4f       	sbci	r31, 0xFE	; 254
    176c:	80 81       	ld	r24, Z
    176e:	18 17       	cp	r17, r24
    1770:	a1 f4       	brne	.+40     	; 0x179a <__vector_30+0x78>
	{
		if (++state == 4)
    1772:	89 2f       	mov	r24, r25
    1774:	8f 5f       	subi	r24, 0xFF	; 255
    1776:	80 93 ca 04 	sts	0x04CA, r24
    177a:	84 30       	cpi	r24, 0x04	; 4
    177c:	81 f4       	brne	.+32     	; 0x179e <__vector_30+0x7c>
		{
#ifndef DYNAMIXEL_BOOTLOADER_WDT
			UCSR1A = 0;
    177e:	10 92 9b 00 	sts	0x009B, r1
			UCSR1B = 0;
    1782:	10 92 9a 00 	sts	0x009A, r1
			UCSR1C = 0;
    1786:	10 92 9d 00 	sts	0x009D, r1
			UBRR1L = 0;
    178a:	10 92 99 00 	sts	0x0099, r1
			UBRR1H = 0;
    178e:	10 92 98 00 	sts	0x0098, r1
			DYNAMIXEL_BOOTLOADER_SEQ();
    1792:	f0 ef       	ldi	r31, 0xF0	; 240
    1794:	e0 e0       	ldi	r30, 0x00	; 0
    1796:	09 94       	ijmp
    1798:	02 c0       	rjmp	.+4      	; 0x179e <__vector_30+0x7c>
			WDTCR |= (1<<WDE);
#endif
		}
	}
	else
		state = 0;
    179a:	10 92 ca 04 	sts	0x04CA, r1
}
    179e:	ff 91       	pop	r31
    17a0:	ef 91       	pop	r30
    17a2:	bf 91       	pop	r27
    17a4:	af 91       	pop	r26
    17a6:	9f 91       	pop	r25
    17a8:	8f 91       	pop	r24
    17aa:	7f 91       	pop	r23
    17ac:	6f 91       	pop	r22
    17ae:	5f 91       	pop	r21
    17b0:	4f 91       	pop	r20
    17b2:	3f 91       	pop	r19
    17b4:	2f 91       	pop	r18
    17b6:	1f 91       	pop	r17
    17b8:	0f 90       	pop	r0
    17ba:	0b be       	out	0x3b, r0	; 59
    17bc:	0f 90       	pop	r0
    17be:	0f be       	out	0x3f, r0	; 63
    17c0:	0f 90       	pop	r0
    17c2:	1f 90       	pop	r1
    17c4:	18 95       	reti

000017c6 <_ZN5queueIhLj96EE4pushEh>:
	{
		if((m_write == (m_read - 1))||((m_write == (size - 1))&&(m_read == 0)))
			return true;
		return false;
	}
	bool push (T data)
    17c6:	cf 93       	push	r28
    17c8:	df 93       	push	r29
    17ca:	dc 01       	movw	r26, r24
	{
		m[m_write] = data;
    17cc:	ec 01       	movw	r28, r24
    17ce:	ce 59       	subi	r28, 0x9E	; 158
    17d0:	df 4f       	sbci	r29, 0xFF	; 255
    17d2:	e8 81       	ld	r30, Y
    17d4:	f9 81       	ldd	r31, Y+1	; 0x01
    17d6:	e8 0f       	add	r30, r24
    17d8:	f9 1f       	adc	r31, r25
    17da:	60 83       	st	Z, r22
			return true;
		return false;
	}
	bool is_full() const
	{
		if((m_write == (m_read - 1))||((m_write == (size - 1))&&(m_read == 0)))
    17dc:	28 81       	ld	r18, Y
    17de:	39 81       	ldd	r19, Y+1	; 0x01
    17e0:	fc 01       	movw	r30, r24
    17e2:	e0 5a       	subi	r30, 0xA0	; 160
    17e4:	ff 4f       	sbci	r31, 0xFF	; 255
    17e6:	80 81       	ld	r24, Z
    17e8:	91 81       	ldd	r25, Z+1	; 0x01
    17ea:	01 97       	sbiw	r24, 0x01	; 1
    17ec:	28 17       	cp	r18, r24
    17ee:	39 07       	cpc	r19, r25
    17f0:	49 f0       	breq	.+18     	; 0x1804 <_ZN5queueIhLj96EE4pushEh+0x3e>
    17f2:	88 81       	ld	r24, Y
    17f4:	99 81       	ldd	r25, Y+1	; 0x01
    17f6:	8f 35       	cpi	r24, 0x5F	; 95
    17f8:	91 05       	cpc	r25, r1
    17fa:	91 f4       	brne	.+36     	; 0x1820 <_ZN5queueIhLj96EE4pushEh+0x5a>
    17fc:	80 81       	ld	r24, Z
    17fe:	91 81       	ldd	r25, Z+1	; 0x01
    1800:	89 2b       	or	r24, r25
    1802:	71 f4       	brne	.+28     	; 0x1820 <_ZN5queueIhLj96EE4pushEh+0x5a>
		return false;
	}
	bool push (T data)
	{
		m[m_write] = data;
		if(is_full()&&!overwrite)
    1804:	ac 59       	subi	r26, 0x9C	; 156
    1806:	bf 4f       	sbci	r27, 0xFF	; 255
    1808:	8c 91       	ld	r24, X
    180a:	a4 56       	subi	r26, 0x64	; 100
    180c:	b0 40       	sbci	r27, 0x00	; 0
    180e:	88 23       	and	r24, r24
    1810:	39 f4       	brne	.+14     	; 0x1820 <_ZN5queueIhLj96EE4pushEh+0x5a>
    1812:	03 c0       	rjmp	.+6      	; 0x181a <_ZN5queueIhLj96EE4pushEh+0x54>
			return false;
		if(++m_write == size)
			m_write = 0;
    1814:	11 82       	std	Z+1, r1	; 0x01
    1816:	10 82       	st	Z, r1
    1818:	81 e0       	ldi	r24, 0x01	; 1
		return true;
	}
    181a:	df 91       	pop	r29
    181c:	cf 91       	pop	r28
    181e:	08 95       	ret
	bool push (T data)
	{
		m[m_write] = data;
		if(is_full()&&!overwrite)
			return false;
		if(++m_write == size)
    1820:	fd 01       	movw	r30, r26
    1822:	ee 59       	subi	r30, 0x9E	; 158
    1824:	ff 4f       	sbci	r31, 0xFF	; 255
    1826:	80 81       	ld	r24, Z
    1828:	91 81       	ldd	r25, Z+1	; 0x01
    182a:	01 96       	adiw	r24, 0x01	; 1
    182c:	91 83       	std	Z+1, r25	; 0x01
    182e:	80 83       	st	Z, r24
    1830:	80 81       	ld	r24, Z
    1832:	91 81       	ldd	r25, Z+1	; 0x01
    1834:	80 36       	cpi	r24, 0x60	; 96
    1836:	91 05       	cpc	r25, r1
    1838:	79 f7       	brne	.-34     	; 0x1818 <_ZN5queueIhLj96EE4pushEh+0x52>
    183a:	ec cf       	rjmp	.-40     	; 0x1814 <_ZN5queueIhLj96EE4pushEh+0x4e>

0000183c <_ZN11dynamixel_t8sendCharEh>:
			return false;
		UCSR0A |= (1<<TXC0);
		return true;
	}

	void sendChar(uint8_t data)
    183c:	1f 93       	push	r17
    183e:	cf 93       	push	r28
    1840:	df 93       	push	r29
    1842:	16 2f       	mov	r17, r22
	{
		while(!m_tx.push(data)) {}
    1844:	ec 01       	movw	r28, r24
    1846:	cb 59       	subi	r28, 0x9B	; 155
    1848:	df 4f       	sbci	r29, 0xFF	; 255
    184a:	ce 01       	movw	r24, r28
    184c:	61 2f       	mov	r22, r17
    184e:	0e 94 e3 0b 	call	0x17c6	; 0x17c6 <_ZN5queueIhLj96EE4pushEh>
    1852:	88 23       	and	r24, r24
    1854:	d1 f3       	breq	.-12     	; 0x184a <_ZN11dynamixel_t8sendCharEh+0xe>
		//pc<<data<<'t';
		UCSR0B |= (1<<UDRIE0);
    1856:	55 9a       	sbi	0x0a, 5	; 10
	}
    1858:	df 91       	pop	r29
    185a:	cf 91       	pop	r28
    185c:	1f 91       	pop	r17
    185e:	08 95       	ret

00001860 <_ZN11dynamixel_t3comEhhPhjhmj>:
		}
		return 0;
	}
#endif
#if 1
	int com(uint8_t ID, uint8_t instruction, uint8_t *data, uint16_t Tlength, uint8_t Rlength, uint32_t retWait, uint16_t max_time = 500)
    1860:	4f 92       	push	r4
    1862:	5f 92       	push	r5
    1864:	6f 92       	push	r6
    1866:	7f 92       	push	r7
    1868:	8f 92       	push	r8
    186a:	9f 92       	push	r9
    186c:	af 92       	push	r10
    186e:	bf 92       	push	r11
    1870:	cf 92       	push	r12
    1872:	df 92       	push	r13
    1874:	ef 92       	push	r14
    1876:	ff 92       	push	r15
    1878:	0f 93       	push	r16
    187a:	1f 93       	push	r17
    187c:	df 93       	push	r29
    187e:	cf 93       	push	r28
    1880:	0f 92       	push	r0
    1882:	cd b7       	in	r28, 0x3d	; 61
    1884:	de b7       	in	r29, 0x3e	; 62
    1886:	6c 01       	movw	r12, r24
    1888:	56 2e       	mov	r5, r22
    188a:	f4 2e       	mov	r15, r20
    188c:	39 01       	movw	r6, r18
    188e:	98 01       	movw	r18, r16
    1890:	4e 2c       	mov	r4, r14
	{
		uint8_t checksum = ID + Tlength + 2 + instruction;
    1892:	b0 2e       	mov	r11, r16
    1894:	06 2f       	mov	r16, r22
    1896:	0e 5f       	subi	r16, 0xFE	; 254
    1898:	04 0f       	add	r16, r20
    189a:	02 0f       	add	r16, r18
    189c:	90 e0       	ldi	r25, 0x00	; 0
    189e:	05 c0       	rjmp	.+10     	; 0x18aa <_ZN11dynamixel_t3comEhhPhjhmj+0x4a>
		for(uint8_t i = 0; i < Tlength; ++i)
			checksum += *(data+i);
    18a0:	e6 0d       	add	r30, r6
    18a2:	f7 1d       	adc	r31, r7
    18a4:	80 81       	ld	r24, Z
    18a6:	08 0f       	add	r16, r24
#endif
#if 1
	int com(uint8_t ID, uint8_t instruction, uint8_t *data, uint16_t Tlength, uint8_t Rlength, uint32_t retWait, uint16_t max_time = 500)
	{
		uint8_t checksum = ID + Tlength + 2 + instruction;
		for(uint8_t i = 0; i < Tlength; ++i)
    18a8:	9f 5f       	subi	r25, 0xFF	; 255
    18aa:	e9 2f       	mov	r30, r25
    18ac:	f0 e0       	ldi	r31, 0x00	; 0
    18ae:	e2 17       	cp	r30, r18
    18b0:	f3 07       	cpc	r31, r19
    18b2:	b0 f3       	brcs	.-20     	; 0x18a0 <_ZN11dynamixel_t3comEhhPhjhmj+0x40>
			checksum += *(data+i);
		checksum = ~checksum;
		uint8_t returned = 0;
    18b4:	19 82       	std	Y+1, r1	; 0x01

//linka

	void transmit()
	{
		PORTE = (PORTE & ~(1<<PE3))|(1<<PE2);
    18b6:	83 b1       	in	r24, 0x03	; 3
    18b8:	83 7f       	andi	r24, 0xF3	; 243
    18ba:	84 60       	ori	r24, 0x04	; 4
    18bc:	83 b9       	out	0x03, r24	; 3
		UCSR0B = (1<<TXEN0);
    18be:	88 e0       	ldi	r24, 0x08	; 8
    18c0:	8a b9       	out	0x0a, r24	; 10
		for(uint8_t i = 0; i < Tlength; ++i)
			checksum += *(data+i);
		checksum = ~checksum;
		uint8_t returned = 0;
		transmit();
		sendChar(0xFF);
    18c2:	c6 01       	movw	r24, r12
    18c4:	6f ef       	ldi	r22, 0xFF	; 255
    18c6:	0e 94 1e 0c 	call	0x183c	; 0x183c <_ZN11dynamixel_t8sendCharEh>
		sendChar(0xFF);
    18ca:	c6 01       	movw	r24, r12
    18cc:	6f ef       	ldi	r22, 0xFF	; 255
    18ce:	0e 94 1e 0c 	call	0x183c	; 0x183c <_ZN11dynamixel_t8sendCharEh>
		sendChar(ID);
    18d2:	c6 01       	movw	r24, r12
    18d4:	65 2d       	mov	r22, r5
    18d6:	0e 94 1e 0c 	call	0x183c	; 0x183c <_ZN11dynamixel_t8sendCharEh>
		sendChar(Tlength + 2);
    18da:	6b 2d       	mov	r22, r11
    18dc:	6e 5f       	subi	r22, 0xFE	; 254
    18de:	c6 01       	movw	r24, r12
    18e0:	0e 94 1e 0c 	call	0x183c	; 0x183c <_ZN11dynamixel_t8sendCharEh>
		sendChar(instruction);
    18e4:	c6 01       	movw	r24, r12
    18e6:	6f 2d       	mov	r22, r15
    18e8:	0e 94 1e 0c 	call	0x183c	; 0x183c <_ZN11dynamixel_t8sendCharEh>
    18ec:	73 01       	movw	r14, r6
    18ee:	10 e0       	ldi	r17, 0x00	; 0
    18f0:	07 c0       	rjmp	.+14     	; 0x1900 <_ZN11dynamixel_t3comEhhPhjhmj+0xa0>
	}

	void send(uint8_t * data, uint8_t length)
	{
		for(uint8_t i = 0; i < length; ++i)
			sendChar(*(data + i));
    18f2:	c6 01       	movw	r24, r12
    18f4:	f7 01       	movw	r30, r14
    18f6:	61 91       	ld	r22, Z+
    18f8:	7f 01       	movw	r14, r30
    18fa:	0e 94 1e 0c 	call	0x183c	; 0x183c <_ZN11dynamixel_t8sendCharEh>
		return true;
	}

	void send(uint8_t * data, uint8_t length)
	{
		for(uint8_t i = 0; i < length; ++i)
    18fe:	1f 5f       	subi	r17, 0xFF	; 255
    1900:	1b 15       	cp	r17, r11
    1902:	b8 f3       	brcs	.-18     	; 0x18f2 <_ZN11dynamixel_t3comEhhPhjhmj+0x92>
		sendChar(0xFF);
		sendChar(ID);
		sendChar(Tlength + 2);
		sendChar(instruction);
		send(data, Tlength);
		sendChar(checksum);
    1904:	00 95       	com	r16
    1906:	c6 01       	movw	r24, r12
    1908:	60 2f       	mov	r22, r16
    190a:	0e 94 1e 0c 	call	0x183c	; 0x183c <_ZN11dynamixel_t8sendCharEh>
	volatile uint16_t m_write;
public:
	volatile bool overwrite;
	bool is_empty() const
	{
		if(m_write == m_read)
    190e:	d6 01       	movw	r26, r12
    1910:	a9 53       	subi	r26, 0x39	; 57
    1912:	bf 4f       	sbci	r27, 0xFF	; 255
    1914:	f6 01       	movw	r30, r12
    1916:	eb 53       	subi	r30, 0x3B	; 59
    1918:	ff 4f       	sbci	r31, 0xFF	; 255
    191a:	2d 91       	ld	r18, X+
    191c:	3c 91       	ld	r19, X
    191e:	11 97       	sbiw	r26, 0x01	; 1
    1920:	80 81       	ld	r24, Z
    1922:	91 81       	ldd	r25, Z+1	; 0x01
    1924:	28 17       	cp	r18, r24
    1926:	39 07       	cpc	r19, r25
    1928:	09 f0       	breq	.+2      	; 0x192c <_ZN11dynamixel_t3comEhhPhjhmj+0xcc>
    192a:	80 c0       	rjmp	.+256    	; 0x1a2c <_ZN11dynamixel_t3comEhhPhjhmj+0x1cc>
    192c:	81 c0       	rjmp	.+258    	; 0x1a30 <_ZN11dynamixel_t3comEhhPhjhmj+0x1d0>
		sendChar(instruction);
		send(data, Tlength);
		sendChar(checksum);
		wait();
		receive();
		while(!peek(returned) || returned != 255) {}
    192e:	c6 01       	movw	r24, r12
    1930:	b8 01       	movw	r22, r16
    1932:	0e 94 73 01 	call	0x2e6	; 0x2e6 <_ZN11dynamixel_t4peekERh>
    1936:	88 23       	and	r24, r24
    1938:	d1 f3       	breq	.-12     	; 0x192e <_ZN11dynamixel_t3comEhhPhjhmj+0xce>
    193a:	89 81       	ldd	r24, Y+1	; 0x01
    193c:	8f 3f       	cpi	r24, 0xFF	; 255
    193e:	b9 f7       	brne	.-18     	; 0x192e <_ZN11dynamixel_t3comEhhPhjhmj+0xce>
		//pc<<returned<<'r';
		while(!peek(returned) || returned != 255) {}
    1940:	8e 01       	movw	r16, r28
    1942:	0f 5f       	subi	r16, 0xFF	; 255
    1944:	1f 4f       	sbci	r17, 0xFF	; 255
    1946:	c6 01       	movw	r24, r12
    1948:	b8 01       	movw	r22, r16
    194a:	0e 94 73 01 	call	0x2e6	; 0x2e6 <_ZN11dynamixel_t4peekERh>
    194e:	88 23       	and	r24, r24
    1950:	d1 f3       	breq	.-12     	; 0x1946 <_ZN11dynamixel_t3comEhhPhjhmj+0xe6>
    1952:	89 81       	ldd	r24, Y+1	; 0x01
    1954:	8f 3f       	cpi	r24, 0xFF	; 255
    1956:	b9 f7       	brne	.-18     	; 0x1946 <_ZN11dynamixel_t3comEhhPhjhmj+0xe6>
		//pc<<returned<<'r';
		while(!peek(returned) || returned !=  ID) {}
    1958:	8e 01       	movw	r16, r28
    195a:	0f 5f       	subi	r16, 0xFF	; 255
    195c:	1f 4f       	sbci	r17, 0xFF	; 255
    195e:	c6 01       	movw	r24, r12
    1960:	b8 01       	movw	r22, r16
    1962:	0e 94 73 01 	call	0x2e6	; 0x2e6 <_ZN11dynamixel_t4peekERh>
    1966:	88 23       	and	r24, r24
    1968:	d1 f3       	breq	.-12     	; 0x195e <_ZN11dynamixel_t3comEhhPhjhmj+0xfe>
    196a:	89 81       	ldd	r24, Y+1	; 0x01
    196c:	85 15       	cp	r24, r5
    196e:	b9 f7       	brne	.-18     	; 0x195e <_ZN11dynamixel_t3comEhhPhjhmj+0xfe>
		//pc<<returned<<'r';
		while(!peek(returned)){}
    1970:	8e 01       	movw	r16, r28
    1972:	0f 5f       	subi	r16, 0xFF	; 255
    1974:	1f 4f       	sbci	r17, 0xFF	; 255
    1976:	c6 01       	movw	r24, r12
    1978:	b8 01       	movw	r22, r16
    197a:	0e 94 73 01 	call	0x2e6	; 0x2e6 <_ZN11dynamixel_t4peekERh>
    197e:	88 23       	and	r24, r24
    1980:	d1 f3       	breq	.-12     	; 0x1976 <_ZN11dynamixel_t3comEhhPhjhmj+0x116>
		//pc<<returned<<"re";
		uint8_t a = get(data, (returned - 1), max_time);
    1982:	b9 80       	ldd	r11, Y+1	; 0x01
    1984:	ba 94       	dec	r11
    1986:	ab 2c       	mov	r10, r11
    1988:	73 01       	movw	r14, r6
    198a:	13 c0       	rjmp	.+38     	; 0x19b2 <_ZN11dynamixel_t3comEhhPhjhmj+0x152>
		uint8_t received = length;
		while(length-- != 0)
		{
			while(!peek(*data))
			{
				if(++waiting == max_time)
    198c:	0f 5f       	subi	r16, 0xFF	; 255
    198e:	1f 4f       	sbci	r17, 0xFF	; 255
    1990:	08 15       	cp	r16, r8
    1992:	19 05       	cpc	r17, r9
    1994:	21 f4       	brne	.+8      	; 0x199e <_ZN11dynamixel_t3comEhhPhjhmj+0x13e>
				{
					--received;
    1996:	aa 94       	dec	r10
    1998:	08 c0       	rjmp	.+16     	; 0x19aa <_ZN11dynamixel_t3comEhhPhjhmj+0x14a>
    199a:	00 e0       	ldi	r16, 0x00	; 0
    199c:	10 e0       	ldi	r17, 0x00	; 0
	{
		uint16_t waiting = 0;
		uint8_t received = length;
		while(length-- != 0)
		{
			while(!peek(*data))
    199e:	c6 01       	movw	r24, r12
    19a0:	b7 01       	movw	r22, r14
    19a2:	0e 94 73 01 	call	0x2e6	; 0x2e6 <_ZN11dynamixel_t4peekERh>
    19a6:	88 23       	and	r24, r24
    19a8:	89 f3       	breq	.-30     	; 0x198c <_ZN11dynamixel_t3comEhhPhjhmj+0x12c>
					//pc<<"breaked"<<endl;
					break;
				}
			}
			//pc<<*data<<"rg";
			++data;
    19aa:	08 94       	sec
    19ac:	e1 1c       	adc	r14, r1
    19ae:	f1 1c       	adc	r15, r1
    19b0:	ba 94       	dec	r11

	int get(uint8_t * data, uint8_t length, uint16_t max_time)
	{
		uint16_t waiting = 0;
		uint8_t received = length;
		while(length-- != 0)
    19b2:	bb 20       	and	r11, r11
    19b4:	91 f7       	brne	.-28     	; 0x199a <_ZN11dynamixel_t3comEhhPhjhmj+0x13a>
		//pc<<returned<<'r';
		while(!peek(returned)){}
		//pc<<returned<<"re";
		uint8_t a = get(data, (returned - 1), max_time);
		//pc<<endl<<"a: "<<a<<Rlength<<endl;
		if(a == Rlength)
    19b6:	a4 14       	cp	r10, r4
    19b8:	21 f5       	brne	.+72     	; 0x1a02 <_ZN11dynamixel_t3comEhhPhjhmj+0x1a2>
		{
			checksum = ID + returned;
    19ba:	89 81       	ldd	r24, Y+1	; 0x01
    19bc:	15 2d       	mov	r17, r5
    19be:	18 0f       	add	r17, r24
    19c0:	90 e0       	ldi	r25, 0x00	; 0
			for(uint8_t i = 0; i != returned - 1; ++i)
    19c2:	28 2f       	mov	r18, r24
    19c4:	30 e0       	ldi	r19, 0x00	; 0
    19c6:	21 50       	subi	r18, 0x01	; 1
    19c8:	30 40       	sbci	r19, 0x00	; 0
    19ca:	05 c0       	rjmp	.+10     	; 0x19d6 <_ZN11dynamixel_t3comEhhPhjhmj+0x176>
				checksum += *(data+i);
    19cc:	e6 0d       	add	r30, r6
    19ce:	f7 1d       	adc	r31, r7
    19d0:	80 81       	ld	r24, Z
    19d2:	18 0f       	add	r17, r24
		uint8_t a = get(data, (returned - 1), max_time);
		//pc<<endl<<"a: "<<a<<Rlength<<endl;
		if(a == Rlength)
		{
			checksum = ID + returned;
			for(uint8_t i = 0; i != returned - 1; ++i)
    19d4:	9f 5f       	subi	r25, 0xFF	; 255
    19d6:	e9 2f       	mov	r30, r25
    19d8:	f0 e0       	ldi	r31, 0x00	; 0
    19da:	e2 17       	cp	r30, r18
    19dc:	f3 07       	cpc	r31, r19
    19de:	b1 f7       	brne	.-20     	; 0x19cc <_ZN11dynamixel_t3comEhhPhjhmj+0x16c>
				checksum += *(data+i);
			checksum = ~checksum;
			while(!peek(returned)){}
    19e0:	7e 01       	movw	r14, r28
    19e2:	08 94       	sec
    19e4:	e1 1c       	adc	r14, r1
    19e6:	f1 1c       	adc	r15, r1
    19e8:	c6 01       	movw	r24, r12
    19ea:	b7 01       	movw	r22, r14
    19ec:	0e 94 73 01 	call	0x2e6	; 0x2e6 <_ZN11dynamixel_t4peekERh>
    19f0:	88 23       	and	r24, r24
    19f2:	d1 f3       	breq	.-12     	; 0x19e8 <_ZN11dynamixel_t3comEhhPhjhmj+0x188>
			//pc<<returned<<'r'<<endl<<"checksum: "<<checksum<<endl;
			if(checksum == returned)
    19f4:	10 95       	com	r17
    19f6:	89 81       	ldd	r24, Y+1	; 0x01
    19f8:	18 17       	cp	r17, r24
    19fa:	19 f4       	brne	.+6      	; 0x1a02 <_ZN11dynamixel_t3comEhhPhjhmj+0x1a2>
    19fc:	20 e0       	ldi	r18, 0x00	; 0
    19fe:	30 e0       	ldi	r19, 0x00	; 0
    1a00:	02 c0       	rjmp	.+4      	; 0x1a06 <_ZN11dynamixel_t3comEhhPhjhmj+0x1a6>
    1a02:	2f ef       	ldi	r18, 0xFF	; 255
    1a04:	3f ef       	ldi	r19, 0xFF	; 255
				return 0;
			}
		}
		//pc<<endl<<"spatna delka: "<<a<<Rlength<<endl;
		return -1;
	}
    1a06:	c9 01       	movw	r24, r18
    1a08:	0f 90       	pop	r0
    1a0a:	cf 91       	pop	r28
    1a0c:	df 91       	pop	r29
    1a0e:	1f 91       	pop	r17
    1a10:	0f 91       	pop	r16
    1a12:	ff 90       	pop	r15
    1a14:	ef 90       	pop	r14
    1a16:	df 90       	pop	r13
    1a18:	cf 90       	pop	r12
    1a1a:	bf 90       	pop	r11
    1a1c:	af 90       	pop	r10
    1a1e:	9f 90       	pop	r9
    1a20:	8f 90       	pop	r8
    1a22:	7f 90       	pop	r7
    1a24:	6f 90       	pop	r6
    1a26:	5f 90       	pop	r5
    1a28:	4f 90       	pop	r4
    1a2a:	08 95       	ret
		receive();
	}

	bool is_send()
	{
		if(!m_tx.is_empty() && ((UCSR0A & (1<<TXC0)) == 0))
    1a2c:	5e 9b       	sbis	0x0b, 6	; 11
    1a2e:	75 cf       	rjmp	.-278    	; 0x191a <_ZN11dynamixel_t3comEhhPhjhmj+0xba>
			return false;
		UCSR0A |= (1<<TXC0);
    1a30:	5e 9a       	sbi	0x0b, 6	; 11
		UCSR0B = (1<<TXEN0);
	}

	void receive()
	{
		PORTE = (PORTE & ~(1<<PE2))|(1<<PE3);
    1a32:	83 b1       	in	r24, 0x03	; 3
    1a34:	83 7f       	andi	r24, 0xF3	; 243
    1a36:	88 60       	ori	r24, 0x08	; 8
    1a38:	83 b9       	out	0x03, r24	; 3
		syncWait(10);
    1a3a:	6a e0       	ldi	r22, 0x0A	; 10
    1a3c:	70 e0       	ldi	r23, 0x00	; 0
    1a3e:	80 e0       	ldi	r24, 0x00	; 0
    1a40:	90 e0       	ldi	r25, 0x00	; 0
    1a42:	0e 94 e1 00 	call	0x1c2	; 0x1c2 <_Z8syncWaitm>
		UCSR0B = (1<<RXCIE0)|(1<<RXEN0);
    1a46:	80 e9       	ldi	r24, 0x90	; 144
    1a48:	8a b9       	out	0x0a, r24	; 10
		sendChar(instruction);
		send(data, Tlength);
		sendChar(checksum);
		wait();
		receive();
		while(!peek(returned) || returned != 255) {}
    1a4a:	8e 01       	movw	r16, r28
    1a4c:	0f 5f       	subi	r16, 0xFF	; 255
    1a4e:	1f 4f       	sbci	r17, 0xFF	; 255
    1a50:	6e cf       	rjmp	.-292    	; 0x192e <_ZN11dynamixel_t3comEhhPhjhmj+0xce>

00001a52 <_ZN11dynamixel_t9writeWordEhhj>:
	int writeByte(uint8_t ID, uint8_t address, uint8_t data)
	{
		uint8_t repository[2] = {address, data};
		return com(ID, INST_WRITE, &repository[0], 2, DYNAMIXEL_RETURN==2?1:0, DYNAMIXEL_RESPOND_TIME)==0?repository[0]:(repository[0]|(1<<7));
	}
	int writeWord(uint8_t ID, uint8_t address, uint16_t data)
    1a52:	8f 92       	push	r8
    1a54:	9f 92       	push	r9
    1a56:	af 92       	push	r10
    1a58:	bf 92       	push	r11
    1a5a:	cf 92       	push	r12
    1a5c:	df 92       	push	r13
    1a5e:	ef 92       	push	r14
    1a60:	0f 93       	push	r16
    1a62:	1f 93       	push	r17
    1a64:	df 93       	push	r29
    1a66:	cf 93       	push	r28
    1a68:	00 d0       	rcall	.+0      	; 0x1a6a <_ZN11dynamixel_t9writeWordEhhj+0x18>
    1a6a:	0f 92       	push	r0
    1a6c:	cd b7       	in	r28, 0x3d	; 61
    1a6e:	de b7       	in	r29, 0x3e	; 62
	{
		uint8_t repository[3] = {address, (data & 0x00FF), (data & 0xFF00) >> 8};
    1a70:	fe 01       	movw	r30, r28
    1a72:	31 96       	adiw	r30, 0x01	; 1
    1a74:	53 e0       	ldi	r21, 0x03	; 3
    1a76:	df 01       	movw	r26, r30
    1a78:	1d 92       	st	X+, r1
    1a7a:	5a 95       	dec	r21
    1a7c:	e9 f7       	brne	.-6      	; 0x1a78 <_ZN11dynamixel_t9writeWordEhhj+0x26>
    1a7e:	49 83       	std	Y+1, r20	; 0x01
    1a80:	2a 83       	std	Y+2, r18	; 0x02
    1a82:	3b 83       	std	Y+3, r19	; 0x03
		return com(ID, INST_WRITE, &repository[0], 3, DYNAMIXEL_RETURN==2?1:0, DYNAMIXEL_RESPOND_TIME)==0?repository[0]:(repository[0]|(1<<7));
    1a84:	43 e0       	ldi	r20, 0x03	; 3
    1a86:	9f 01       	movw	r18, r30
    1a88:	03 e0       	ldi	r16, 0x03	; 3
    1a8a:	10 e0       	ldi	r17, 0x00	; 0
    1a8c:	ee 24       	eor	r14, r14
    1a8e:	e3 94       	inc	r14
    1a90:	74 ef       	ldi	r23, 0xF4	; 244
    1a92:	a7 2e       	mov	r10, r23
    1a94:	71 e0       	ldi	r23, 0x01	; 1
    1a96:	b7 2e       	mov	r11, r23
    1a98:	c1 2c       	mov	r12, r1
    1a9a:	d1 2c       	mov	r13, r1
    1a9c:	54 ef       	ldi	r21, 0xF4	; 244
    1a9e:	85 2e       	mov	r8, r21
    1aa0:	51 e0       	ldi	r21, 0x01	; 1
    1aa2:	95 2e       	mov	r9, r21
    1aa4:	0e 94 30 0c 	call	0x1860	; 0x1860 <_ZN11dynamixel_t3comEhhPhjhmj>
    1aa8:	29 81       	ldd	r18, Y+1	; 0x01
    1aaa:	89 2b       	or	r24, r25
    1aac:	11 f4       	brne	.+4      	; 0x1ab2 <_ZN11dynamixel_t9writeWordEhhj+0x60>
    1aae:	82 2f       	mov	r24, r18
    1ab0:	02 c0       	rjmp	.+4      	; 0x1ab6 <_ZN11dynamixel_t9writeWordEhhj+0x64>
    1ab2:	82 2f       	mov	r24, r18
    1ab4:	80 68       	ori	r24, 0x80	; 128
	}
    1ab6:	90 e0       	ldi	r25, 0x00	; 0
    1ab8:	0f 90       	pop	r0
    1aba:	0f 90       	pop	r0
    1abc:	0f 90       	pop	r0
    1abe:	cf 91       	pop	r28
    1ac0:	df 91       	pop	r29
    1ac2:	1f 91       	pop	r17
    1ac4:	0f 91       	pop	r16
    1ac6:	ef 90       	pop	r14
    1ac8:	df 90       	pop	r13
    1aca:	cf 90       	pop	r12
    1acc:	bf 90       	pop	r11
    1ace:	af 90       	pop	r10
    1ad0:	9f 90       	pop	r9
    1ad2:	8f 90       	pop	r8
    1ad4:	08 95       	ret

00001ad6 <_ZN7motor_t8positionERKi>:
	motor_t & position(const uint16_t &position)
	{
		m_error.push(bus.writeWord(currentID, P_GOAL_POSITION_L, position));
		return *this;
	}
	motor_t & position(const int16_t &position)
    1ad6:	ef 92       	push	r14
    1ad8:	ff 92       	push	r15
    1ada:	0f 93       	push	r16
    1adc:	1f 93       	push	r17
    1ade:	f8 2e       	mov	r15, r24
    1ae0:	e9 2e       	mov	r14, r25
    1ae2:	fb 01       	movw	r30, r22
	{
		m_error.push(bus.writeWord(currentID, P_GOAL_POSITION_L, ((uint16_t)(position))));
    1ae4:	20 81       	ld	r18, Z
    1ae6:	31 81       	ldd	r19, Z+1	; 0x01
    1ae8:	8e e6       	ldi	r24, 0x6E	; 110
    1aea:	92 e0       	ldi	r25, 0x02	; 2
    1aec:	0f 2d       	mov	r16, r15
    1aee:	1e 2d       	mov	r17, r14
    1af0:	f8 01       	movw	r30, r16
    1af2:	61 91       	ld	r22, Z+
    1af4:	8f 01       	movw	r16, r30
    1af6:	4e e1       	ldi	r20, 0x1E	; 30
    1af8:	0e 94 29 0d 	call	0x1a52	; 0x1a52 <_ZN11dynamixel_t9writeWordEhhj>
    1afc:	68 2f       	mov	r22, r24
    1afe:	c8 01       	movw	r24, r16
    1b00:	0e 94 e3 0b 	call	0x17c6	; 0x17c6 <_ZN5queueIhLj96EE4pushEh>
		return *this;
	}
    1b04:	8f 2d       	mov	r24, r15
    1b06:	9e 2d       	mov	r25, r14
    1b08:	1f 91       	pop	r17
    1b0a:	0f 91       	pop	r16
    1b0c:	ff 90       	pop	r15
    1b0e:	ef 90       	pop	r14
    1b10:	08 95       	ret

00001b12 <_Z6rotacev>:
	}
	pc << endl;
	pc << endl;
}

void rotace ()
    1b12:	ff 92       	push	r15
    1b14:	0f 93       	push	r16
    1b16:	1f 93       	push	r17
    1b18:	df 93       	push	r29
    1b1a:	cf 93       	push	r28
    1b1c:	00 d0       	rcall	.+0      	; 0x1b1e <_Z6rotacev+0xc>
    1b1e:	00 d0       	rcall	.+0      	; 0x1b20 <_Z6rotacev+0xe>
    1b20:	cd b7       	in	r28, 0x3d	; 61
    1b22:	de b7       	in	r29, 0x3e	; 62
		m_error.overwrite = true;
	}

	motor_t &operator [] (const uint8_t &id)
	{
		currentID = id;
    1b24:	08 e3       	ldi	r16, 0x38	; 56
    1b26:	13 e0       	ldi	r17, 0x03	; 3
    1b28:	ff 24       	eor	r15, r15
    1b2a:	f3 94       	inc	r15
    1b2c:	f0 92 38 03 	sts	0x0338, r15
{
	motor[1].position (1022);
    1b30:	8e ef       	ldi	r24, 0xFE	; 254
    1b32:	93 e0       	ldi	r25, 0x03	; 3
    1b34:	9a 83       	std	Y+2, r25	; 0x02
    1b36:	89 83       	std	Y+1, r24	; 0x01
    1b38:	c8 01       	movw	r24, r16
    1b3a:	be 01       	movw	r22, r28
    1b3c:	6f 5f       	subi	r22, 0xFF	; 255
    1b3e:	7f 4f       	sbci	r23, 0xFF	; 255
    1b40:	0e 94 6b 0d 	call	0x1ad6	; 0x1ad6 <_ZN7motor_t8positionERKi>
	syncWait(10000000);
    1b44:	60 e8       	ldi	r22, 0x80	; 128
    1b46:	76 e9       	ldi	r23, 0x96	; 150
    1b48:	88 e9       	ldi	r24, 0x98	; 152
    1b4a:	90 e0       	ldi	r25, 0x00	; 0
    1b4c:	0e 94 e1 00 	call	0x1c2	; 0x1c2 <_Z8syncWaitm>
    1b50:	f0 92 38 03 	sts	0x0338, r15
	motor[1].position (2);
    1b54:	82 e0       	ldi	r24, 0x02	; 2
    1b56:	90 e0       	ldi	r25, 0x00	; 0
    1b58:	9c 83       	std	Y+4, r25	; 0x04
    1b5a:	8b 83       	std	Y+3, r24	; 0x03
    1b5c:	c8 01       	movw	r24, r16
    1b5e:	be 01       	movw	r22, r28
    1b60:	6d 5f       	subi	r22, 0xFD	; 253
    1b62:	7f 4f       	sbci	r23, 0xFF	; 255
    1b64:	0e 94 6b 0d 	call	0x1ad6	; 0x1ad6 <_ZN7motor_t8positionERKi>
	syncWait(10000000);
    1b68:	60 e8       	ldi	r22, 0x80	; 128
    1b6a:	76 e9       	ldi	r23, 0x96	; 150
    1b6c:	88 e9       	ldi	r24, 0x98	; 152
    1b6e:	90 e0       	ldi	r25, 0x00	; 0
    1b70:	0e 94 e1 00 	call	0x1c2	; 0x1c2 <_Z8syncWaitm>
}
    1b74:	0f 90       	pop	r0
    1b76:	0f 90       	pop	r0
    1b78:	0f 90       	pop	r0
    1b7a:	0f 90       	pop	r0
    1b7c:	cf 91       	pop	r28
    1b7e:	df 91       	pop	r29
    1b80:	1f 91       	pop	r17
    1b82:	0f 91       	pop	r16
    1b84:	ff 90       	pop	r15
    1b86:	08 95       	ret

00001b88 <_Z10pozice_512v>:
	{
		naber_na_pozici29();
		chlivek_clovek_pozice39();
	}
}
void pozice_512()//vsechny serva do pozice 512
    1b88:	ef 92       	push	r14
    1b8a:	ff 92       	push	r15
    1b8c:	0f 93       	push	r16
    1b8e:	1f 93       	push	r17
    1b90:	df 93       	push	r29
    1b92:	cf 93       	push	r28
    1b94:	cd b7       	in	r28, 0x3d	; 61
    1b96:	de b7       	in	r29, 0x3e	; 62
    1b98:	2e 97       	sbiw	r28, 0x0e	; 14
    1b9a:	0f b6       	in	r0, 0x3f	; 63
    1b9c:	f8 94       	cli
    1b9e:	de bf       	out	0x3e, r29	; 62
    1ba0:	0f be       	out	0x3f, r0	; 63
    1ba2:	cd bf       	out	0x3d, r28	; 61
    1ba4:	e8 e3       	ldi	r30, 0x38	; 56
    1ba6:	ee 2e       	mov	r14, r30
    1ba8:	e3 e0       	ldi	r30, 0x03	; 3
    1baa:	fe 2e       	mov	r15, r30
    1bac:	81 e0       	ldi	r24, 0x01	; 1
    1bae:	80 93 38 03 	sts	0x0338, r24
{
	motor[1].position(512);
    1bb2:	00 e0       	ldi	r16, 0x00	; 0
    1bb4:	12 e0       	ldi	r17, 0x02	; 2
    1bb6:	1a 83       	std	Y+2, r17	; 0x02
    1bb8:	09 83       	std	Y+1, r16	; 0x01
    1bba:	c7 01       	movw	r24, r14
    1bbc:	be 01       	movw	r22, r28
    1bbe:	6f 5f       	subi	r22, 0xFF	; 255
    1bc0:	7f 4f       	sbci	r23, 0xFF	; 255
    1bc2:	0e 94 6b 0d 	call	0x1ad6	; 0x1ad6 <_ZN7motor_t8positionERKi>
    1bc6:	82 e0       	ldi	r24, 0x02	; 2
    1bc8:	80 93 38 03 	sts	0x0338, r24
	motor[2].position(512);
    1bcc:	1c 83       	std	Y+4, r17	; 0x04
    1bce:	0b 83       	std	Y+3, r16	; 0x03
    1bd0:	c7 01       	movw	r24, r14
    1bd2:	be 01       	movw	r22, r28
    1bd4:	6d 5f       	subi	r22, 0xFD	; 253
    1bd6:	7f 4f       	sbci	r23, 0xFF	; 255
    1bd8:	0e 94 6b 0d 	call	0x1ad6	; 0x1ad6 <_ZN7motor_t8positionERKi>
    1bdc:	83 e0       	ldi	r24, 0x03	; 3
    1bde:	80 93 38 03 	sts	0x0338, r24
	motor[3].position(512);
    1be2:	1e 83       	std	Y+6, r17	; 0x06
    1be4:	0d 83       	std	Y+5, r16	; 0x05
    1be6:	c7 01       	movw	r24, r14
    1be8:	be 01       	movw	r22, r28
    1bea:	6b 5f       	subi	r22, 0xFB	; 251
    1bec:	7f 4f       	sbci	r23, 0xFF	; 255
    1bee:	0e 94 6b 0d 	call	0x1ad6	; 0x1ad6 <_ZN7motor_t8positionERKi>
    1bf2:	84 e0       	ldi	r24, 0x04	; 4
    1bf4:	80 93 38 03 	sts	0x0338, r24
	motor[4].position(512);
    1bf8:	18 87       	std	Y+8, r17	; 0x08
    1bfa:	0f 83       	std	Y+7, r16	; 0x07
    1bfc:	c7 01       	movw	r24, r14
    1bfe:	be 01       	movw	r22, r28
    1c00:	69 5f       	subi	r22, 0xF9	; 249
    1c02:	7f 4f       	sbci	r23, 0xFF	; 255
    1c04:	0e 94 6b 0d 	call	0x1ad6	; 0x1ad6 <_ZN7motor_t8positionERKi>
    1c08:	85 e0       	ldi	r24, 0x05	; 5
    1c0a:	80 93 38 03 	sts	0x0338, r24
	motor[5].position(512);
    1c0e:	1a 87       	std	Y+10, r17	; 0x0a
    1c10:	09 87       	std	Y+9, r16	; 0x09
    1c12:	c7 01       	movw	r24, r14
    1c14:	be 01       	movw	r22, r28
    1c16:	67 5f       	subi	r22, 0xF7	; 247
    1c18:	7f 4f       	sbci	r23, 0xFF	; 255
    1c1a:	0e 94 6b 0d 	call	0x1ad6	; 0x1ad6 <_ZN7motor_t8positionERKi>
    1c1e:	86 e0       	ldi	r24, 0x06	; 6
    1c20:	80 93 38 03 	sts	0x0338, r24
	motor[6].position(512);
    1c24:	1c 87       	std	Y+12, r17	; 0x0c
    1c26:	0b 87       	std	Y+11, r16	; 0x0b
    1c28:	c7 01       	movw	r24, r14
    1c2a:	be 01       	movw	r22, r28
    1c2c:	65 5f       	subi	r22, 0xF5	; 245
    1c2e:	7f 4f       	sbci	r23, 0xFF	; 255
    1c30:	0e 94 6b 0d 	call	0x1ad6	; 0x1ad6 <_ZN7motor_t8positionERKi>
    1c34:	87 e0       	ldi	r24, 0x07	; 7
    1c36:	80 93 38 03 	sts	0x0338, r24
	motor[7].position(512);
    1c3a:	1e 87       	std	Y+14, r17	; 0x0e
    1c3c:	0d 87       	std	Y+13, r16	; 0x0d
    1c3e:	c7 01       	movw	r24, r14
    1c40:	be 01       	movw	r22, r28
    1c42:	63 5f       	subi	r22, 0xF3	; 243
    1c44:	7f 4f       	sbci	r23, 0xFF	; 255
    1c46:	0e 94 6b 0d 	call	0x1ad6	; 0x1ad6 <_ZN7motor_t8positionERKi>

}
    1c4a:	2e 96       	adiw	r28, 0x0e	; 14
    1c4c:	0f b6       	in	r0, 0x3f	; 63
    1c4e:	f8 94       	cli
    1c50:	de bf       	out	0x3e, r29	; 62
    1c52:	0f be       	out	0x3f, r0	; 63
    1c54:	cd bf       	out	0x3d, r28	; 61
    1c56:	cf 91       	pop	r28
    1c58:	df 91       	pop	r29
    1c5a:	1f 91       	pop	r17
    1c5c:	0f 91       	pop	r16
    1c5e:	ff 90       	pop	r15
    1c60:	ef 90       	pop	r14
    1c62:	08 95       	ret

00001c64 <_Z22chlivek_robot_pozice34v>:
	motor[5].position(257);
	motor[6].position(496);
	motor[7].position(534);
	syncWait(2000000);
}
void chlivek_robot_pozice34()//vezme figurku z chlivku - funkcni
    1c64:	2f 92       	push	r2
    1c66:	3f 92       	push	r3
    1c68:	4f 92       	push	r4
    1c6a:	5f 92       	push	r5
    1c6c:	6f 92       	push	r6
    1c6e:	7f 92       	push	r7
    1c70:	8f 92       	push	r8
    1c72:	9f 92       	push	r9
    1c74:	af 92       	push	r10
    1c76:	bf 92       	push	r11
    1c78:	cf 92       	push	r12
    1c7a:	df 92       	push	r13
    1c7c:	ef 92       	push	r14
    1c7e:	ff 92       	push	r15
    1c80:	0f 93       	push	r16
    1c82:	1f 93       	push	r17
    1c84:	df 93       	push	r29
    1c86:	cf 93       	push	r28
    1c88:	cd b7       	in	r28, 0x3d	; 61
    1c8a:	de b7       	in	r29, 0x3e	; 62
    1c8c:	c4 5c       	subi	r28, 0xC4	; 196
    1c8e:	d0 40       	sbci	r29, 0x00	; 0
    1c90:	0f b6       	in	r0, 0x3f	; 63
    1c92:	f8 94       	cli
    1c94:	de bf       	out	0x3e, r29	; 62
    1c96:	0f be       	out	0x3f, r0	; 63
    1c98:	cd bf       	out	0x3d, r28	; 61
    1c9a:	08 e3       	ldi	r16, 0x38	; 56
    1c9c:	13 e0       	ldi	r17, 0x03	; 3
    1c9e:	81 e0       	ldi	r24, 0x01	; 1
    1ca0:	80 93 38 03 	sts	0x0338, r24
{
	//dostane se do zakladni pozice
	motor[1].position(512);
    1ca4:	e1 2c       	mov	r14, r1
    1ca6:	82 e0       	ldi	r24, 0x02	; 2
    1ca8:	f8 2e       	mov	r15, r24
    1caa:	fa 82       	std	Y+2, r15	; 0x02
    1cac:	e9 82       	std	Y+1, r14	; 0x01
    1cae:	c8 01       	movw	r24, r16
    1cb0:	be 01       	movw	r22, r28
    1cb2:	6f 5f       	subi	r22, 0xFF	; 255
    1cb4:	7f 4f       	sbci	r23, 0xFF	; 255
    1cb6:	0e 94 6b 0d 	call	0x1ad6	; 0x1ad6 <_ZN7motor_t8positionERKi>
    1cba:	92 e0       	ldi	r25, 0x02	; 2
    1cbc:	90 93 38 03 	sts	0x0338, r25
	motor[2].position(605);
    1cc0:	bd e5       	ldi	r27, 0x5D	; 93
    1cc2:	6b 2e       	mov	r6, r27
    1cc4:	b2 e0       	ldi	r27, 0x02	; 2
    1cc6:	7b 2e       	mov	r7, r27
    1cc8:	7c 82       	std	Y+4, r7	; 0x04
    1cca:	6b 82       	std	Y+3, r6	; 0x03
    1ccc:	c8 01       	movw	r24, r16
    1cce:	be 01       	movw	r22, r28
    1cd0:	6d 5f       	subi	r22, 0xFD	; 253
    1cd2:	7f 4f       	sbci	r23, 0xFF	; 255
    1cd4:	0e 94 6b 0d 	call	0x1ad6	; 0x1ad6 <_ZN7motor_t8positionERKi>
    1cd8:	83 e0       	ldi	r24, 0x03	; 3
    1cda:	80 93 38 03 	sts	0x0338, r24
	motor[3].position(39);
    1cde:	a7 e2       	ldi	r26, 0x27	; 39
    1ce0:	8a 2e       	mov	r8, r26
    1ce2:	91 2c       	mov	r9, r1
    1ce4:	9e 82       	std	Y+6, r9	; 0x06
    1ce6:	8d 82       	std	Y+5, r8	; 0x05
    1ce8:	c8 01       	movw	r24, r16
    1cea:	be 01       	movw	r22, r28
    1cec:	6b 5f       	subi	r22, 0xFB	; 251
    1cee:	7f 4f       	sbci	r23, 0xFF	; 255
    1cf0:	0e 94 6b 0d 	call	0x1ad6	; 0x1ad6 <_ZN7motor_t8positionERKi>
    1cf4:	94 e0       	ldi	r25, 0x04	; 4
    1cf6:	90 93 38 03 	sts	0x0338, r25
	motor[4].position(977);
    1cfa:	f1 ed       	ldi	r31, 0xD1	; 209
    1cfc:	af 2e       	mov	r10, r31
    1cfe:	f3 e0       	ldi	r31, 0x03	; 3
    1d00:	bf 2e       	mov	r11, r31
    1d02:	b8 86       	std	Y+8, r11	; 0x08
    1d04:	af 82       	std	Y+7, r10	; 0x07
    1d06:	c8 01       	movw	r24, r16
    1d08:	be 01       	movw	r22, r28
    1d0a:	69 5f       	subi	r22, 0xF9	; 249
    1d0c:	7f 4f       	sbci	r23, 0xFF	; 255
    1d0e:	0e 94 6b 0d 	call	0x1ad6	; 0x1ad6 <_ZN7motor_t8positionERKi>
    1d12:	85 e0       	ldi	r24, 0x05	; 5
    1d14:	80 93 38 03 	sts	0x0338, r24
	motor[5].position(688);
    1d18:	e0 eb       	ldi	r30, 0xB0	; 176
    1d1a:	ce 2e       	mov	r12, r30
    1d1c:	e2 e0       	ldi	r30, 0x02	; 2
    1d1e:	de 2e       	mov	r13, r30
    1d20:	da 86       	std	Y+10, r13	; 0x0a
    1d22:	c9 86       	std	Y+9, r12	; 0x09
    1d24:	c8 01       	movw	r24, r16
    1d26:	be 01       	movw	r22, r28
    1d28:	67 5f       	subi	r22, 0xF7	; 247
    1d2a:	7f 4f       	sbci	r23, 0xFF	; 255
    1d2c:	0e 94 6b 0d 	call	0x1ad6	; 0x1ad6 <_ZN7motor_t8positionERKi>
    1d30:	96 e0       	ldi	r25, 0x06	; 6
    1d32:	90 93 38 03 	sts	0x0338, r25
	motor[6].position(512);
    1d36:	fc 86       	std	Y+12, r15	; 0x0c
    1d38:	eb 86       	std	Y+11, r14	; 0x0b
    1d3a:	c8 01       	movw	r24, r16
    1d3c:	be 01       	movw	r22, r28
    1d3e:	65 5f       	subi	r22, 0xF5	; 245
    1d40:	7f 4f       	sbci	r23, 0xFF	; 255
    1d42:	0e 94 6b 0d 	call	0x1ad6	; 0x1ad6 <_ZN7motor_t8positionERKi>
    1d46:	87 e0       	ldi	r24, 0x07	; 7
    1d48:	80 93 38 03 	sts	0x0338, r24
	motor[7].position(512);
    1d4c:	fe 86       	std	Y+14, r15	; 0x0e
    1d4e:	ed 86       	std	Y+13, r14	; 0x0d
    1d50:	c8 01       	movw	r24, r16
    1d52:	be 01       	movw	r22, r28
    1d54:	63 5f       	subi	r22, 0xF3	; 243
    1d56:	7f 4f       	sbci	r23, 0xFF	; 255
    1d58:	0e 94 6b 0d 	call	0x1ad6	; 0x1ad6 <_ZN7motor_t8positionERKi>
	syncWait(4000000);
    1d5c:	60 e0       	ldi	r22, 0x00	; 0
    1d5e:	79 e0       	ldi	r23, 0x09	; 9
    1d60:	8d e3       	ldi	r24, 0x3D	; 61
    1d62:	90 e0       	ldi	r25, 0x00	; 0
    1d64:	0e 94 e1 00 	call	0x1c2	; 0x1c2 <_Z8syncWaitm>
    1d68:	91 e0       	ldi	r25, 0x01	; 1
    1d6a:	90 93 38 03 	sts	0x0338, r25
	//zakladni pozice ale otoci se nad pole
	motor[1].position(222);
    1d6e:	7e ed       	ldi	r23, 0xDE	; 222
    1d70:	47 2e       	mov	r4, r23
    1d72:	51 2c       	mov	r5, r1
    1d74:	58 8a       	std	Y+16, r5	; 0x10
    1d76:	4f 86       	std	Y+15, r4	; 0x0f
    1d78:	c8 01       	movw	r24, r16
    1d7a:	be 01       	movw	r22, r28
    1d7c:	61 5f       	subi	r22, 0xF1	; 241
    1d7e:	7f 4f       	sbci	r23, 0xFF	; 255
    1d80:	0e 94 6b 0d 	call	0x1ad6	; 0x1ad6 <_ZN7motor_t8positionERKi>
    1d84:	82 e0       	ldi	r24, 0x02	; 2
    1d86:	80 93 38 03 	sts	0x0338, r24
	motor[2].position(605);
    1d8a:	7a 8a       	std	Y+18, r7	; 0x12
    1d8c:	69 8a       	std	Y+17, r6	; 0x11
    1d8e:	c8 01       	movw	r24, r16
    1d90:	be 01       	movw	r22, r28
    1d92:	6f 5e       	subi	r22, 0xEF	; 239
    1d94:	7f 4f       	sbci	r23, 0xFF	; 255
    1d96:	0e 94 6b 0d 	call	0x1ad6	; 0x1ad6 <_ZN7motor_t8positionERKi>
    1d9a:	93 e0       	ldi	r25, 0x03	; 3
    1d9c:	90 93 38 03 	sts	0x0338, r25
	motor[3].position(39);
    1da0:	9c 8a       	std	Y+20, r9	; 0x14
    1da2:	8b 8a       	std	Y+19, r8	; 0x13
    1da4:	c8 01       	movw	r24, r16
    1da6:	be 01       	movw	r22, r28
    1da8:	6d 5e       	subi	r22, 0xED	; 237
    1daa:	7f 4f       	sbci	r23, 0xFF	; 255
    1dac:	0e 94 6b 0d 	call	0x1ad6	; 0x1ad6 <_ZN7motor_t8positionERKi>
    1db0:	84 e0       	ldi	r24, 0x04	; 4
    1db2:	80 93 38 03 	sts	0x0338, r24
	motor[4].position(977);
    1db6:	be 8a       	std	Y+22, r11	; 0x16
    1db8:	ad 8a       	std	Y+21, r10	; 0x15
    1dba:	c8 01       	movw	r24, r16
    1dbc:	be 01       	movw	r22, r28
    1dbe:	6b 5e       	subi	r22, 0xEB	; 235
    1dc0:	7f 4f       	sbci	r23, 0xFF	; 255
    1dc2:	0e 94 6b 0d 	call	0x1ad6	; 0x1ad6 <_ZN7motor_t8positionERKi>
    1dc6:	95 e0       	ldi	r25, 0x05	; 5
    1dc8:	90 93 38 03 	sts	0x0338, r25
	motor[5].position(688);
    1dcc:	d8 8e       	std	Y+24, r13	; 0x18
    1dce:	cf 8a       	std	Y+23, r12	; 0x17
    1dd0:	c8 01       	movw	r24, r16
    1dd2:	be 01       	movw	r22, r28
    1dd4:	69 5e       	subi	r22, 0xE9	; 233
    1dd6:	7f 4f       	sbci	r23, 0xFF	; 255
    1dd8:	0e 94 6b 0d 	call	0x1ad6	; 0x1ad6 <_ZN7motor_t8positionERKi>
    1ddc:	86 e0       	ldi	r24, 0x06	; 6
    1dde:	80 93 38 03 	sts	0x0338, r24
	motor[6].position(512);
    1de2:	fa 8e       	std	Y+26, r15	; 0x1a
    1de4:	e9 8e       	std	Y+25, r14	; 0x19
    1de6:	c8 01       	movw	r24, r16
    1de8:	be 01       	movw	r22, r28
    1dea:	67 5e       	subi	r22, 0xE7	; 231
    1dec:	7f 4f       	sbci	r23, 0xFF	; 255
    1dee:	0e 94 6b 0d 	call	0x1ad6	; 0x1ad6 <_ZN7motor_t8positionERKi>
    1df2:	97 e0       	ldi	r25, 0x07	; 7
    1df4:	90 93 38 03 	sts	0x0338, r25
	motor[7].position(512);
    1df8:	fc 8e       	std	Y+28, r15	; 0x1c
    1dfa:	eb 8e       	std	Y+27, r14	; 0x1b
    1dfc:	c8 01       	movw	r24, r16
    1dfe:	be 01       	movw	r22, r28
    1e00:	65 5e       	subi	r22, 0xE5	; 229
    1e02:	7f 4f       	sbci	r23, 0xFF	; 255
    1e04:	0e 94 6b 0d 	call	0x1ad6	; 0x1ad6 <_ZN7motor_t8positionERKi>
	syncWait(1000000);
    1e08:	60 e4       	ldi	r22, 0x40	; 64
    1e0a:	72 e4       	ldi	r23, 0x42	; 66
    1e0c:	8f e0       	ldi	r24, 0x0F	; 15
    1e0e:	90 e0       	ldi	r25, 0x00	; 0
    1e10:	0e 94 e1 00 	call	0x1c2	; 0x1c2 <_Z8syncWaitm>
    1e14:	81 e0       	ldi	r24, 0x01	; 1
    1e16:	80 93 38 03 	sts	0x0338, r24
	//nad chlivkem  otevre celisti
	motor[1].position(222);
    1e1a:	5e 8e       	std	Y+30, r5	; 0x1e
    1e1c:	4d 8e       	std	Y+29, r4	; 0x1d
    1e1e:	c8 01       	movw	r24, r16
    1e20:	be 01       	movw	r22, r28
    1e22:	63 5e       	subi	r22, 0xE3	; 227
    1e24:	7f 4f       	sbci	r23, 0xFF	; 255
    1e26:	0e 94 6b 0d 	call	0x1ad6	; 0x1ad6 <_ZN7motor_t8positionERKi>
    1e2a:	92 e0       	ldi	r25, 0x02	; 2
    1e2c:	90 93 38 03 	sts	0x0338, r25
	motor[2].position(605);
    1e30:	78 a2       	std	Y+32, r7	; 0x20
    1e32:	6f 8e       	std	Y+31, r6	; 0x1f
    1e34:	c8 01       	movw	r24, r16
    1e36:	be 01       	movw	r22, r28
    1e38:	61 5e       	subi	r22, 0xE1	; 225
    1e3a:	7f 4f       	sbci	r23, 0xFF	; 255
    1e3c:	0e 94 6b 0d 	call	0x1ad6	; 0x1ad6 <_ZN7motor_t8positionERKi>
    1e40:	83 e0       	ldi	r24, 0x03	; 3
    1e42:	80 93 38 03 	sts	0x0338, r24
	motor[3].position(39);
    1e46:	9a a2       	std	Y+34, r9	; 0x22
    1e48:	89 a2       	std	Y+33, r8	; 0x21
    1e4a:	c8 01       	movw	r24, r16
    1e4c:	be 01       	movw	r22, r28
    1e4e:	6f 5d       	subi	r22, 0xDF	; 223
    1e50:	7f 4f       	sbci	r23, 0xFF	; 255
    1e52:	0e 94 6b 0d 	call	0x1ad6	; 0x1ad6 <_ZN7motor_t8positionERKi>
    1e56:	94 e0       	ldi	r25, 0x04	; 4
    1e58:	90 93 38 03 	sts	0x0338, r25
	motor[4].position(977);
    1e5c:	bc a2       	std	Y+36, r11	; 0x24
    1e5e:	ab a2       	std	Y+35, r10	; 0x23
    1e60:	c8 01       	movw	r24, r16
    1e62:	be 01       	movw	r22, r28
    1e64:	6d 5d       	subi	r22, 0xDD	; 221
    1e66:	7f 4f       	sbci	r23, 0xFF	; 255
    1e68:	0e 94 6b 0d 	call	0x1ad6	; 0x1ad6 <_ZN7motor_t8positionERKi>
    1e6c:	85 e0       	ldi	r24, 0x05	; 5
    1e6e:	80 93 38 03 	sts	0x0338, r24
	motor[5].position(688);
    1e72:	de a2       	std	Y+38, r13	; 0x26
    1e74:	cd a2       	std	Y+37, r12	; 0x25
    1e76:	c8 01       	movw	r24, r16
    1e78:	be 01       	movw	r22, r28
    1e7a:	6b 5d       	subi	r22, 0xDB	; 219
    1e7c:	7f 4f       	sbci	r23, 0xFF	; 255
    1e7e:	0e 94 6b 0d 	call	0x1ad6	; 0x1ad6 <_ZN7motor_t8positionERKi>
    1e82:	96 e0       	ldi	r25, 0x06	; 6
    1e84:	90 93 38 03 	sts	0x0338, r25
	motor[6].position(486);
    1e88:	66 ee       	ldi	r22, 0xE6	; 230
    1e8a:	e6 2e       	mov	r14, r22
    1e8c:	61 e0       	ldi	r22, 0x01	; 1
    1e8e:	f6 2e       	mov	r15, r22
    1e90:	f8 a6       	std	Y+40, r15	; 0x28
    1e92:	ef a2       	std	Y+39, r14	; 0x27
    1e94:	c8 01       	movw	r24, r16
    1e96:	be 01       	movw	r22, r28
    1e98:	69 5d       	subi	r22, 0xD9	; 217
    1e9a:	7f 4f       	sbci	r23, 0xFF	; 255
    1e9c:	0e 94 6b 0d 	call	0x1ad6	; 0x1ad6 <_ZN7motor_t8positionERKi>
    1ea0:	87 e0       	ldi	r24, 0x07	; 7
    1ea2:	80 93 38 03 	sts	0x0338, r24
	motor[7].position(548);
    1ea6:	54 e2       	ldi	r21, 0x24	; 36
    1ea8:	c5 2e       	mov	r12, r21
    1eaa:	52 e0       	ldi	r21, 0x02	; 2
    1eac:	d5 2e       	mov	r13, r21
    1eae:	da a6       	std	Y+42, r13	; 0x2a
    1eb0:	c9 a6       	std	Y+41, r12	; 0x29
    1eb2:	c8 01       	movw	r24, r16
    1eb4:	be 01       	movw	r22, r28
    1eb6:	67 5d       	subi	r22, 0xD7	; 215
    1eb8:	7f 4f       	sbci	r23, 0xFF	; 255
    1eba:	0e 94 6b 0d 	call	0x1ad6	; 0x1ad6 <_ZN7motor_t8positionERKi>
	syncWait(4000000);
    1ebe:	60 e0       	ldi	r22, 0x00	; 0
    1ec0:	79 e0       	ldi	r23, 0x09	; 9
    1ec2:	8d e3       	ldi	r24, 0x3D	; 61
    1ec4:	90 e0       	ldi	r25, 0x00	; 0
    1ec6:	0e 94 e1 00 	call	0x1c2	; 0x1c2 <_Z8syncWaitm>
    1eca:	91 e0       	ldi	r25, 0x01	; 1
    1ecc:	90 93 38 03 	sts	0x0338, r25
	//zacne se naklanet
	motor[1].position(222);
    1ed0:	5c a6       	std	Y+44, r5	; 0x2c
    1ed2:	4b a6       	std	Y+43, r4	; 0x2b
    1ed4:	c8 01       	movw	r24, r16
    1ed6:	be 01       	movw	r22, r28
    1ed8:	65 5d       	subi	r22, 0xD5	; 213
    1eda:	7f 4f       	sbci	r23, 0xFF	; 255
    1edc:	0e 94 6b 0d 	call	0x1ad6	; 0x1ad6 <_ZN7motor_t8positionERKi>
    1ee0:	82 e0       	ldi	r24, 0x02	; 2
    1ee2:	80 93 38 03 	sts	0x0338, r24
	motor[2].position(592);
    1ee6:	80 e5       	ldi	r24, 0x50	; 80
    1ee8:	92 e0       	ldi	r25, 0x02	; 2
    1eea:	9e a7       	std	Y+46, r25	; 0x2e
    1eec:	8d a7       	std	Y+45, r24	; 0x2d
    1eee:	c8 01       	movw	r24, r16
    1ef0:	be 01       	movw	r22, r28
    1ef2:	63 5d       	subi	r22, 0xD3	; 211
    1ef4:	7f 4f       	sbci	r23, 0xFF	; 255
    1ef6:	0e 94 6b 0d 	call	0x1ad6	; 0x1ad6 <_ZN7motor_t8positionERKi>
    1efa:	93 e0       	ldi	r25, 0x03	; 3
    1efc:	90 93 38 03 	sts	0x0338, r25
	motor[3].position(302);
    1f00:	8e e2       	ldi	r24, 0x2E	; 46
    1f02:	91 e0       	ldi	r25, 0x01	; 1
    1f04:	98 ab       	std	Y+48, r25	; 0x30
    1f06:	8f a7       	std	Y+47, r24	; 0x2f
    1f08:	c8 01       	movw	r24, r16
    1f0a:	be 01       	movw	r22, r28
    1f0c:	61 5d       	subi	r22, 0xD1	; 209
    1f0e:	7f 4f       	sbci	r23, 0xFF	; 255
    1f10:	0e 94 6b 0d 	call	0x1ad6	; 0x1ad6 <_ZN7motor_t8positionERKi>
    1f14:	84 e0       	ldi	r24, 0x04	; 4
    1f16:	80 93 38 03 	sts	0x0338, r24
	motor[4].position(411);
    1f1a:	8b e9       	ldi	r24, 0x9B	; 155
    1f1c:	91 e0       	ldi	r25, 0x01	; 1
    1f1e:	9a ab       	std	Y+50, r25	; 0x32
    1f20:	89 ab       	std	Y+49, r24	; 0x31
    1f22:	c8 01       	movw	r24, r16
    1f24:	be 01       	movw	r22, r28
    1f26:	6f 5c       	subi	r22, 0xCF	; 207
    1f28:	7f 4f       	sbci	r23, 0xFF	; 255
    1f2a:	0e 94 6b 0d 	call	0x1ad6	; 0x1ad6 <_ZN7motor_t8positionERKi>
    1f2e:	95 e0       	ldi	r25, 0x05	; 5
    1f30:	90 93 38 03 	sts	0x0338, r25
	motor[5].position(214);
    1f34:	86 ed       	ldi	r24, 0xD6	; 214
    1f36:	90 e0       	ldi	r25, 0x00	; 0
    1f38:	9c ab       	std	Y+52, r25	; 0x34
    1f3a:	8b ab       	std	Y+51, r24	; 0x33
    1f3c:	c8 01       	movw	r24, r16
    1f3e:	be 01       	movw	r22, r28
    1f40:	6d 5c       	subi	r22, 0xCD	; 205
    1f42:	7f 4f       	sbci	r23, 0xFF	; 255
    1f44:	0e 94 6b 0d 	call	0x1ad6	; 0x1ad6 <_ZN7motor_t8positionERKi>
    1f48:	86 e0       	ldi	r24, 0x06	; 6
    1f4a:	80 93 38 03 	sts	0x0338, r24
	motor[6].position(486);
    1f4e:	fe aa       	std	Y+54, r15	; 0x36
    1f50:	ed aa       	std	Y+53, r14	; 0x35
    1f52:	c8 01       	movw	r24, r16
    1f54:	be 01       	movw	r22, r28
    1f56:	6b 5c       	subi	r22, 0xCB	; 203
    1f58:	7f 4f       	sbci	r23, 0xFF	; 255
    1f5a:	0e 94 6b 0d 	call	0x1ad6	; 0x1ad6 <_ZN7motor_t8positionERKi>
    1f5e:	97 e0       	ldi	r25, 0x07	; 7
    1f60:	90 93 38 03 	sts	0x0338, r25
	motor[7].position(548);
    1f64:	d8 ae       	std	Y+56, r13	; 0x38
    1f66:	cf aa       	std	Y+55, r12	; 0x37
    1f68:	c8 01       	movw	r24, r16
    1f6a:	be 01       	movw	r22, r28
    1f6c:	69 5c       	subi	r22, 0xC9	; 201
    1f6e:	7f 4f       	sbci	r23, 0xFF	; 255
    1f70:	0e 94 6b 0d 	call	0x1ad6	; 0x1ad6 <_ZN7motor_t8positionERKi>
	syncWait(6000000);
    1f74:	60 e8       	ldi	r22, 0x80	; 128
    1f76:	7d e8       	ldi	r23, 0x8D	; 141
    1f78:	8b e5       	ldi	r24, 0x5B	; 91
    1f7a:	90 e0       	ldi	r25, 0x00	; 0
    1f7c:	0e 94 e1 00 	call	0x1c2	; 0x1c2 <_Z8syncWaitm>
    1f80:	81 e0       	ldi	r24, 0x01	; 1
    1f82:	80 93 38 03 	sts	0x0338, r24
	//nakloni se nad figurku
	motor[1].position(222);
    1f86:	5a ae       	std	Y+58, r5	; 0x3a
    1f88:	49 ae       	std	Y+57, r4	; 0x39
    1f8a:	c8 01       	movw	r24, r16
    1f8c:	be 01       	movw	r22, r28
    1f8e:	67 5c       	subi	r22, 0xC7	; 199
    1f90:	7f 4f       	sbci	r23, 0xFF	; 255
    1f92:	0e 94 6b 0d 	call	0x1ad6	; 0x1ad6 <_ZN7motor_t8positionERKi>
    1f96:	92 e0       	ldi	r25, 0x02	; 2
    1f98:	90 93 38 03 	sts	0x0338, r25
	motor[2].position(415);
    1f9c:	4f e9       	ldi	r20, 0x9F	; 159
    1f9e:	a4 2e       	mov	r10, r20
    1fa0:	41 e0       	ldi	r20, 0x01	; 1
    1fa2:	b4 2e       	mov	r11, r20
    1fa4:	bc ae       	std	Y+60, r11	; 0x3c
    1fa6:	ab ae       	std	Y+59, r10	; 0x3b
    1fa8:	c8 01       	movw	r24, r16
    1faa:	be 01       	movw	r22, r28
    1fac:	65 5c       	subi	r22, 0xC5	; 197
    1fae:	7f 4f       	sbci	r23, 0xFF	; 255
    1fb0:	0e 94 6b 0d 	call	0x1ad6	; 0x1ad6 <_ZN7motor_t8positionERKi>
    1fb4:	83 e0       	ldi	r24, 0x03	; 3
    1fb6:	80 93 38 03 	sts	0x0338, r24
	motor[3].position(447);
    1fba:	3f eb       	ldi	r19, 0xBF	; 191
    1fbc:	83 2e       	mov	r8, r19
    1fbe:	31 e0       	ldi	r19, 0x01	; 1
    1fc0:	93 2e       	mov	r9, r19
    1fc2:	9e ae       	std	Y+62, r9	; 0x3e
    1fc4:	8d ae       	std	Y+61, r8	; 0x3d
    1fc6:	c8 01       	movw	r24, r16
    1fc8:	be 01       	movw	r22, r28
    1fca:	63 5c       	subi	r22, 0xC3	; 195
    1fcc:	7f 4f       	sbci	r23, 0xFF	; 255
    1fce:	0e 94 6b 0d 	call	0x1ad6	; 0x1ad6 <_ZN7motor_t8positionERKi>
    1fd2:	94 e0       	ldi	r25, 0x04	; 4
    1fd4:	90 93 38 03 	sts	0x0338, r25
	motor[4].position(477);
    1fd8:	2d ed       	ldi	r18, 0xDD	; 221
    1fda:	62 2e       	mov	r6, r18
    1fdc:	21 e0       	ldi	r18, 0x01	; 1
    1fde:	72 2e       	mov	r7, r18
    1fe0:	fe 01       	movw	r30, r28
    1fe2:	ff 96       	adiw	r30, 0x3f	; 63
    1fe4:	71 82       	std	Z+1, r7	; 0x01
    1fe6:	60 82       	st	Z, r6
    1fe8:	c8 01       	movw	r24, r16
    1fea:	bf 01       	movw	r22, r30
    1fec:	0e 94 6b 0d 	call	0x1ad6	; 0x1ad6 <_ZN7motor_t8positionERKi>
    1ff0:	85 e0       	ldi	r24, 0x05	; 5
    1ff2:	80 93 38 03 	sts	0x0338, r24
	motor[5].position(170);
    1ff6:	fe 01       	movw	r30, r28
    1ff8:	ef 5b       	subi	r30, 0xBF	; 191
    1ffa:	ff 4f       	sbci	r31, 0xFF	; 255
    1ffc:	8a ea       	ldi	r24, 0xAA	; 170
    1ffe:	90 e0       	ldi	r25, 0x00	; 0
    2000:	91 83       	std	Z+1, r25	; 0x01
    2002:	80 83       	st	Z, r24
    2004:	c8 01       	movw	r24, r16
    2006:	bf 01       	movw	r22, r30
    2008:	0e 94 6b 0d 	call	0x1ad6	; 0x1ad6 <_ZN7motor_t8positionERKi>
    200c:	96 e0       	ldi	r25, 0x06	; 6
    200e:	90 93 38 03 	sts	0x0338, r25
	motor[6].position(486);
    2012:	fe 01       	movw	r30, r28
    2014:	ed 5b       	subi	r30, 0xBD	; 189
    2016:	ff 4f       	sbci	r31, 0xFF	; 255
    2018:	f1 82       	std	Z+1, r15	; 0x01
    201a:	e0 82       	st	Z, r14
    201c:	c8 01       	movw	r24, r16
    201e:	bf 01       	movw	r22, r30
    2020:	0e 94 6b 0d 	call	0x1ad6	; 0x1ad6 <_ZN7motor_t8positionERKi>
    2024:	87 e0       	ldi	r24, 0x07	; 7
    2026:	80 93 38 03 	sts	0x0338, r24
	motor[7].position(548);
    202a:	fe 01       	movw	r30, r28
    202c:	eb 5b       	subi	r30, 0xBB	; 187
    202e:	ff 4f       	sbci	r31, 0xFF	; 255
    2030:	d1 82       	std	Z+1, r13	; 0x01
    2032:	c0 82       	st	Z, r12
    2034:	c8 01       	movw	r24, r16
    2036:	bf 01       	movw	r22, r30
    2038:	0e 94 6b 0d 	call	0x1ad6	; 0x1ad6 <_ZN7motor_t8positionERKi>
	syncWait(5000000);
    203c:	60 e4       	ldi	r22, 0x40	; 64
    203e:	7b e4       	ldi	r23, 0x4B	; 75
    2040:	8c e4       	ldi	r24, 0x4C	; 76
    2042:	90 e0       	ldi	r25, 0x00	; 0
    2044:	0e 94 e1 00 	call	0x1c2	; 0x1c2 <_Z8syncWaitm>
    2048:	91 e0       	ldi	r25, 0x01	; 1
    204a:	90 93 38 03 	sts	0x0338, r25
	//nad figurkou zavre celisti
	motor[1].position(222);
    204e:	fe 01       	movw	r30, r28
    2050:	e9 5b       	subi	r30, 0xB9	; 185
    2052:	ff 4f       	sbci	r31, 0xFF	; 255
    2054:	51 82       	std	Z+1, r5	; 0x01
    2056:	40 82       	st	Z, r4
    2058:	c8 01       	movw	r24, r16
    205a:	bf 01       	movw	r22, r30
    205c:	0e 94 6b 0d 	call	0x1ad6	; 0x1ad6 <_ZN7motor_t8positionERKi>
    2060:	82 e0       	ldi	r24, 0x02	; 2
    2062:	80 93 38 03 	sts	0x0338, r24
	motor[2].position(415);
    2066:	fe 01       	movw	r30, r28
    2068:	e7 5b       	subi	r30, 0xB7	; 183
    206a:	ff 4f       	sbci	r31, 0xFF	; 255
    206c:	b1 82       	std	Z+1, r11	; 0x01
    206e:	a0 82       	st	Z, r10
    2070:	c8 01       	movw	r24, r16
    2072:	bf 01       	movw	r22, r30
    2074:	0e 94 6b 0d 	call	0x1ad6	; 0x1ad6 <_ZN7motor_t8positionERKi>
    2078:	93 e0       	ldi	r25, 0x03	; 3
    207a:	90 93 38 03 	sts	0x0338, r25
	motor[3].position(447);
    207e:	fe 01       	movw	r30, r28
    2080:	e5 5b       	subi	r30, 0xB5	; 181
    2082:	ff 4f       	sbci	r31, 0xFF	; 255
    2084:	91 82       	std	Z+1, r9	; 0x01
    2086:	80 82       	st	Z, r8
    2088:	c8 01       	movw	r24, r16
    208a:	bf 01       	movw	r22, r30
    208c:	0e 94 6b 0d 	call	0x1ad6	; 0x1ad6 <_ZN7motor_t8positionERKi>
    2090:	84 e0       	ldi	r24, 0x04	; 4
    2092:	80 93 38 03 	sts	0x0338, r24
	motor[4].position(477);
    2096:	fe 01       	movw	r30, r28
    2098:	e3 5b       	subi	r30, 0xB3	; 179
    209a:	ff 4f       	sbci	r31, 0xFF	; 255
    209c:	71 82       	std	Z+1, r7	; 0x01
    209e:	60 82       	st	Z, r6
    20a0:	c8 01       	movw	r24, r16
    20a2:	bf 01       	movw	r22, r30
    20a4:	0e 94 6b 0d 	call	0x1ad6	; 0x1ad6 <_ZN7motor_t8positionERKi>
    20a8:	95 e0       	ldi	r25, 0x05	; 5
    20aa:	90 93 38 03 	sts	0x0338, r25
	motor[5].position(170);
    20ae:	fe 01       	movw	r30, r28
    20b0:	e1 5b       	subi	r30, 0xB1	; 177
    20b2:	ff 4f       	sbci	r31, 0xFF	; 255
    20b4:	8a ea       	ldi	r24, 0xAA	; 170
    20b6:	90 e0       	ldi	r25, 0x00	; 0
    20b8:	91 83       	std	Z+1, r25	; 0x01
    20ba:	80 83       	st	Z, r24
    20bc:	c8 01       	movw	r24, r16
    20be:	bf 01       	movw	r22, r30
    20c0:	0e 94 6b 0d 	call	0x1ad6	; 0x1ad6 <_ZN7motor_t8positionERKi>
    20c4:	96 e0       	ldi	r25, 0x06	; 6
    20c6:	90 93 38 03 	sts	0x0338, r25
	motor[6].position(524);
    20ca:	fe 01       	movw	r30, r28
    20cc:	ef 5a       	subi	r30, 0xAF	; 175
    20ce:	ff 4f       	sbci	r31, 0xFF	; 255
    20d0:	9c e0       	ldi	r25, 0x0C	; 12
    20d2:	c9 2e       	mov	r12, r25
    20d4:	92 e0       	ldi	r25, 0x02	; 2
    20d6:	d9 2e       	mov	r13, r25
    20d8:	d1 82       	std	Z+1, r13	; 0x01
    20da:	c0 82       	st	Z, r12
    20dc:	c8 01       	movw	r24, r16
    20de:	bf 01       	movw	r22, r30
    20e0:	0e 94 6b 0d 	call	0x1ad6	; 0x1ad6 <_ZN7motor_t8positionERKi>
    20e4:	87 e0       	ldi	r24, 0x07	; 7
    20e6:	80 93 38 03 	sts	0x0338, r24
	motor[7].position(500);
    20ea:	fe 01       	movw	r30, r28
    20ec:	ed 5a       	subi	r30, 0xAD	; 173
    20ee:	ff 4f       	sbci	r31, 0xFF	; 255
    20f0:	84 ef       	ldi	r24, 0xF4	; 244
    20f2:	e8 2e       	mov	r14, r24
    20f4:	81 e0       	ldi	r24, 0x01	; 1
    20f6:	f8 2e       	mov	r15, r24
    20f8:	f1 82       	std	Z+1, r15	; 0x01
    20fa:	e0 82       	st	Z, r14
    20fc:	c8 01       	movw	r24, r16
    20fe:	bf 01       	movw	r22, r30
    2100:	0e 94 6b 0d 	call	0x1ad6	; 0x1ad6 <_ZN7motor_t8positionERKi>
	syncWait(2000000);
    2104:	60 e8       	ldi	r22, 0x80	; 128
    2106:	74 e8       	ldi	r23, 0x84	; 132
    2108:	8e e1       	ldi	r24, 0x1E	; 30
    210a:	90 e0       	ldi	r25, 0x00	; 0
    210c:	0e 94 e1 00 	call	0x1c2	; 0x1c2 <_Z8syncWaitm>
    2110:	91 e0       	ldi	r25, 0x01	; 1
    2112:	90 93 38 03 	sts	0x0338, r25
	//vezme figurku
	motor[1].position(222);
    2116:	fe 01       	movw	r30, r28
    2118:	eb 5a       	subi	r30, 0xAB	; 171
    211a:	ff 4f       	sbci	r31, 0xFF	; 255
    211c:	51 82       	std	Z+1, r5	; 0x01
    211e:	40 82       	st	Z, r4
    2120:	c8 01       	movw	r24, r16
    2122:	bf 01       	movw	r22, r30
    2124:	0e 94 6b 0d 	call	0x1ad6	; 0x1ad6 <_ZN7motor_t8positionERKi>
    2128:	82 e0       	ldi	r24, 0x02	; 2
    212a:	80 93 38 03 	sts	0x0338, r24
	motor[2].position(415);
    212e:	fe 01       	movw	r30, r28
    2130:	e9 5a       	subi	r30, 0xA9	; 169
    2132:	ff 4f       	sbci	r31, 0xFF	; 255
    2134:	b1 82       	std	Z+1, r11	; 0x01
    2136:	a0 82       	st	Z, r10
    2138:	c8 01       	movw	r24, r16
    213a:	bf 01       	movw	r22, r30
    213c:	0e 94 6b 0d 	call	0x1ad6	; 0x1ad6 <_ZN7motor_t8positionERKi>
    2140:	93 e0       	ldi	r25, 0x03	; 3
    2142:	90 93 38 03 	sts	0x0338, r25
	motor[3].position(505);
    2146:	fe 01       	movw	r30, r28
    2148:	e7 5a       	subi	r30, 0xA7	; 167
    214a:	ff 4f       	sbci	r31, 0xFF	; 255
    214c:	89 ef       	ldi	r24, 0xF9	; 249
    214e:	91 e0       	ldi	r25, 0x01	; 1
    2150:	91 83       	std	Z+1, r25	; 0x01
    2152:	80 83       	st	Z, r24
    2154:	c8 01       	movw	r24, r16
    2156:	bf 01       	movw	r22, r30
    2158:	0e 94 6b 0d 	call	0x1ad6	; 0x1ad6 <_ZN7motor_t8positionERKi>
    215c:	84 e0       	ldi	r24, 0x04	; 4
    215e:	80 93 38 03 	sts	0x0338, r24
	motor[4].position(500);
    2162:	fe 01       	movw	r30, r28
    2164:	e5 5a       	subi	r30, 0xA5	; 165
    2166:	ff 4f       	sbci	r31, 0xFF	; 255
    2168:	f1 82       	std	Z+1, r15	; 0x01
    216a:	e0 82       	st	Z, r14
    216c:	c8 01       	movw	r24, r16
    216e:	bf 01       	movw	r22, r30
    2170:	0e 94 6b 0d 	call	0x1ad6	; 0x1ad6 <_ZN7motor_t8positionERKi>
    2174:	95 e0       	ldi	r25, 0x05	; 5
    2176:	90 93 38 03 	sts	0x0338, r25
	motor[5].position(170);
    217a:	fe 01       	movw	r30, r28
    217c:	e3 5a       	subi	r30, 0xA3	; 163
    217e:	ff 4f       	sbci	r31, 0xFF	; 255
    2180:	8a ea       	ldi	r24, 0xAA	; 170
    2182:	90 e0       	ldi	r25, 0x00	; 0
    2184:	91 83       	std	Z+1, r25	; 0x01
    2186:	80 83       	st	Z, r24
    2188:	c8 01       	movw	r24, r16
    218a:	bf 01       	movw	r22, r30
    218c:	0e 94 6b 0d 	call	0x1ad6	; 0x1ad6 <_ZN7motor_t8positionERKi>
    2190:	96 e0       	ldi	r25, 0x06	; 6
    2192:	90 93 38 03 	sts	0x0338, r25
	motor[6].position(524);
    2196:	fe 01       	movw	r30, r28
    2198:	e1 5a       	subi	r30, 0xA1	; 161
    219a:	ff 4f       	sbci	r31, 0xFF	; 255
    219c:	d1 82       	std	Z+1, r13	; 0x01
    219e:	c0 82       	st	Z, r12
    21a0:	c8 01       	movw	r24, r16
    21a2:	bf 01       	movw	r22, r30
    21a4:	0e 94 6b 0d 	call	0x1ad6	; 0x1ad6 <_ZN7motor_t8positionERKi>
    21a8:	87 e0       	ldi	r24, 0x07	; 7
    21aa:	80 93 38 03 	sts	0x0338, r24
	motor[7].position(500);
    21ae:	fe 01       	movw	r30, r28
    21b0:	ef 59       	subi	r30, 0x9F	; 159
    21b2:	ff 4f       	sbci	r31, 0xFF	; 255
    21b4:	f1 82       	std	Z+1, r15	; 0x01
    21b6:	e0 82       	st	Z, r14
    21b8:	c8 01       	movw	r24, r16
    21ba:	bf 01       	movw	r22, r30
    21bc:	0e 94 6b 0d 	call	0x1ad6	; 0x1ad6 <_ZN7motor_t8positionERKi>
	syncWait(3000000);
    21c0:	60 ec       	ldi	r22, 0xC0	; 192
    21c2:	76 ec       	ldi	r23, 0xC6	; 198
    21c4:	8d e2       	ldi	r24, 0x2D	; 45
    21c6:	90 e0       	ldi	r25, 0x00	; 0
    21c8:	0e 94 e1 00 	call	0x1c2	; 0x1c2 <_Z8syncWaitm>
    21cc:	91 e0       	ldi	r25, 0x01	; 1
    21ce:	90 93 38 03 	sts	0x0338, r25
	//zvedne figurku 2
	motor[1].position(222);
    21d2:	fe 01       	movw	r30, r28
    21d4:	ed 59       	subi	r30, 0x9D	; 157
    21d6:	ff 4f       	sbci	r31, 0xFF	; 255
    21d8:	51 82       	std	Z+1, r5	; 0x01
    21da:	40 82       	st	Z, r4
    21dc:	c8 01       	movw	r24, r16
    21de:	bf 01       	movw	r22, r30
    21e0:	0e 94 6b 0d 	call	0x1ad6	; 0x1ad6 <_ZN7motor_t8positionERKi>
    21e4:	82 e0       	ldi	r24, 0x02	; 2
    21e6:	80 93 38 03 	sts	0x0338, r24
	motor[2].position(420);
    21ea:	fe 01       	movw	r30, r28
    21ec:	eb 59       	subi	r30, 0x9B	; 155
    21ee:	ff 4f       	sbci	r31, 0xFF	; 255
    21f0:	84 ea       	ldi	r24, 0xA4	; 164
    21f2:	91 e0       	ldi	r25, 0x01	; 1
    21f4:	91 83       	std	Z+1, r25	; 0x01
    21f6:	80 83       	st	Z, r24
    21f8:	c8 01       	movw	r24, r16
    21fa:	bf 01       	movw	r22, r30
    21fc:	0e 94 6b 0d 	call	0x1ad6	; 0x1ad6 <_ZN7motor_t8positionERKi>
    2200:	93 e0       	ldi	r25, 0x03	; 3
    2202:	90 93 38 03 	sts	0x0338, r25
	motor[3].position(652);
    2206:	fe 01       	movw	r30, r28
    2208:	e9 59       	subi	r30, 0x99	; 153
    220a:	ff 4f       	sbci	r31, 0xFF	; 255
    220c:	bc e8       	ldi	r27, 0x8C	; 140
    220e:	ab 2e       	mov	r10, r27
    2210:	b2 e0       	ldi	r27, 0x02	; 2
    2212:	bb 2e       	mov	r11, r27
    2214:	b1 82       	std	Z+1, r11	; 0x01
    2216:	a0 82       	st	Z, r10
    2218:	c8 01       	movw	r24, r16
    221a:	bf 01       	movw	r22, r30
    221c:	0e 94 6b 0d 	call	0x1ad6	; 0x1ad6 <_ZN7motor_t8positionERKi>
    2220:	84 e0       	ldi	r24, 0x04	; 4
    2222:	80 93 38 03 	sts	0x0338, r24
	motor[4].position(184);
    2226:	fe 01       	movw	r30, r28
    2228:	e7 59       	subi	r30, 0x97	; 151
    222a:	ff 4f       	sbci	r31, 0xFF	; 255
    222c:	a8 eb       	ldi	r26, 0xB8	; 184
    222e:	ca 2e       	mov	r12, r26
    2230:	d1 2c       	mov	r13, r1
    2232:	d1 82       	std	Z+1, r13	; 0x01
    2234:	c0 82       	st	Z, r12
    2236:	c8 01       	movw	r24, r16
    2238:	bf 01       	movw	r22, r30
    223a:	0e 94 6b 0d 	call	0x1ad6	; 0x1ad6 <_ZN7motor_t8positionERKi>
    223e:	95 e0       	ldi	r25, 0x05	; 5
    2240:	90 93 38 03 	sts	0x0338, r25
	motor[5].position(166);
    2244:	fe 01       	movw	r30, r28
    2246:	e5 59       	subi	r30, 0x95	; 149
    2248:	ff 4f       	sbci	r31, 0xFF	; 255
    224a:	76 ea       	ldi	r23, 0xA6	; 166
    224c:	e7 2e       	mov	r14, r23
    224e:	f1 2c       	mov	r15, r1
    2250:	f1 82       	std	Z+1, r15	; 0x01
    2252:	e0 82       	st	Z, r14
    2254:	c8 01       	movw	r24, r16
    2256:	bf 01       	movw	r22, r30
    2258:	0e 94 6b 0d 	call	0x1ad6	; 0x1ad6 <_ZN7motor_t8positionERKi>
    225c:	86 e0       	ldi	r24, 0x06	; 6
    225e:	80 93 38 03 	sts	0x0338, r24
	motor[6].position(530);
    2262:	fe 01       	movw	r30, r28
    2264:	e3 59       	subi	r30, 0x93	; 147
    2266:	ff 4f       	sbci	r31, 0xFF	; 255
    2268:	62 e1       	ldi	r22, 0x12	; 18
    226a:	26 2e       	mov	r2, r22
    226c:	62 e0       	ldi	r22, 0x02	; 2
    226e:	36 2e       	mov	r3, r22
    2270:	31 82       	std	Z+1, r3	; 0x01
    2272:	20 82       	st	Z, r2
    2274:	c8 01       	movw	r24, r16
    2276:	bf 01       	movw	r22, r30
    2278:	0e 94 6b 0d 	call	0x1ad6	; 0x1ad6 <_ZN7motor_t8positionERKi>
    227c:	97 e0       	ldi	r25, 0x07	; 7
    227e:	90 93 38 03 	sts	0x0338, r25
	motor[7].position(494);
    2282:	fe 01       	movw	r30, r28
    2284:	e1 59       	subi	r30, 0x91	; 145
    2286:	ff 4f       	sbci	r31, 0xFF	; 255
    2288:	5e ee       	ldi	r21, 0xEE	; 238
    228a:	65 2e       	mov	r6, r21
    228c:	51 e0       	ldi	r21, 0x01	; 1
    228e:	75 2e       	mov	r7, r21
    2290:	71 82       	std	Z+1, r7	; 0x01
    2292:	60 82       	st	Z, r6
    2294:	c8 01       	movw	r24, r16
    2296:	bf 01       	movw	r22, r30
    2298:	0e 94 6b 0d 	call	0x1ad6	; 0x1ad6 <_ZN7motor_t8positionERKi>
	syncWait(2000000);
    229c:	60 e8       	ldi	r22, 0x80	; 128
    229e:	74 e8       	ldi	r23, 0x84	; 132
    22a0:	8e e1       	ldi	r24, 0x1E	; 30
    22a2:	90 e0       	ldi	r25, 0x00	; 0
    22a4:	0e 94 e1 00 	call	0x1c2	; 0x1c2 <_Z8syncWaitm>
    22a8:	81 e0       	ldi	r24, 0x01	; 1
    22aa:	80 93 38 03 	sts	0x0338, r24
	//druhy motor se zakloni
	motor[1].position(222);
    22ae:	fe 01       	movw	r30, r28
    22b0:	ef 58       	subi	r30, 0x8F	; 143
    22b2:	ff 4f       	sbci	r31, 0xFF	; 255
    22b4:	51 82       	std	Z+1, r5	; 0x01
    22b6:	40 82       	st	Z, r4
    22b8:	c8 01       	movw	r24, r16
    22ba:	bf 01       	movw	r22, r30
    22bc:	0e 94 6b 0d 	call	0x1ad6	; 0x1ad6 <_ZN7motor_t8positionERKi>
    22c0:	92 e0       	ldi	r25, 0x02	; 2
    22c2:	90 93 38 03 	sts	0x0338, r25
	motor[2].position(570);
    22c6:	fe 01       	movw	r30, r28
    22c8:	ed 58       	subi	r30, 0x8D	; 141
    22ca:	ff 4f       	sbci	r31, 0xFF	; 255
    22cc:	8a e3       	ldi	r24, 0x3A	; 58
    22ce:	92 e0       	ldi	r25, 0x02	; 2
    22d0:	91 83       	std	Z+1, r25	; 0x01
    22d2:	80 83       	st	Z, r24
    22d4:	c8 01       	movw	r24, r16
    22d6:	bf 01       	movw	r22, r30
    22d8:	0e 94 6b 0d 	call	0x1ad6	; 0x1ad6 <_ZN7motor_t8positionERKi>
    22dc:	83 e0       	ldi	r24, 0x03	; 3
    22de:	80 93 38 03 	sts	0x0338, r24
	motor[3].position(652);
    22e2:	fe 01       	movw	r30, r28
    22e4:	eb 58       	subi	r30, 0x8B	; 139
    22e6:	ff 4f       	sbci	r31, 0xFF	; 255
    22e8:	b1 82       	std	Z+1, r11	; 0x01
    22ea:	a0 82       	st	Z, r10
    22ec:	c8 01       	movw	r24, r16
    22ee:	bf 01       	movw	r22, r30
    22f0:	0e 94 6b 0d 	call	0x1ad6	; 0x1ad6 <_ZN7motor_t8positionERKi>
    22f4:	94 e0       	ldi	r25, 0x04	; 4
    22f6:	90 93 38 03 	sts	0x0338, r25
	motor[4].position(184);
    22fa:	fe 01       	movw	r30, r28
    22fc:	e9 58       	subi	r30, 0x89	; 137
    22fe:	ff 4f       	sbci	r31, 0xFF	; 255
    2300:	d1 82       	std	Z+1, r13	; 0x01
    2302:	c0 82       	st	Z, r12
    2304:	c8 01       	movw	r24, r16
    2306:	bf 01       	movw	r22, r30
    2308:	0e 94 6b 0d 	call	0x1ad6	; 0x1ad6 <_ZN7motor_t8positionERKi>
    230c:	85 e0       	ldi	r24, 0x05	; 5
    230e:	80 93 38 03 	sts	0x0338, r24
	motor[5].position(166);
    2312:	fe 01       	movw	r30, r28
    2314:	e7 58       	subi	r30, 0x87	; 135
    2316:	ff 4f       	sbci	r31, 0xFF	; 255
    2318:	f1 82       	std	Z+1, r15	; 0x01
    231a:	e0 82       	st	Z, r14
    231c:	c8 01       	movw	r24, r16
    231e:	bf 01       	movw	r22, r30
    2320:	0e 94 6b 0d 	call	0x1ad6	; 0x1ad6 <_ZN7motor_t8positionERKi>
    2324:	96 e0       	ldi	r25, 0x06	; 6
    2326:	90 93 38 03 	sts	0x0338, r25
	motor[6].position(530);
    232a:	fe 01       	movw	r30, r28
    232c:	e5 58       	subi	r30, 0x85	; 133
    232e:	ff 4f       	sbci	r31, 0xFF	; 255
    2330:	31 82       	std	Z+1, r3	; 0x01
    2332:	20 82       	st	Z, r2
    2334:	c8 01       	movw	r24, r16
    2336:	bf 01       	movw	r22, r30
    2338:	0e 94 6b 0d 	call	0x1ad6	; 0x1ad6 <_ZN7motor_t8positionERKi>
    233c:	87 e0       	ldi	r24, 0x07	; 7
    233e:	80 93 38 03 	sts	0x0338, r24
	motor[7].position(494);
    2342:	fe 01       	movw	r30, r28
    2344:	e3 58       	subi	r30, 0x83	; 131
    2346:	ff 4f       	sbci	r31, 0xFF	; 255
    2348:	71 82       	std	Z+1, r7	; 0x01
    234a:	60 82       	st	Z, r6
    234c:	c8 01       	movw	r24, r16
    234e:	bf 01       	movw	r22, r30
    2350:	0e 94 6b 0d 	call	0x1ad6	; 0x1ad6 <_ZN7motor_t8positionERKi>
	syncWait(2000000);
    2354:	60 e8       	ldi	r22, 0x80	; 128
    2356:	74 e8       	ldi	r23, 0x84	; 132
    2358:	8e e1       	ldi	r24, 0x1E	; 30
    235a:	90 e0       	ldi	r25, 0x00	; 0
    235c:	0e 94 e1 00 	call	0x1c2	; 0x1c2 <_Z8syncWaitm>
    2360:	91 e0       	ldi	r25, 0x01	; 1
    2362:	90 93 38 03 	sts	0x0338, r25
	//zacne pokladat figurku
	motor[1].position(168);
    2366:	fe 01       	movw	r30, r28
    2368:	e1 58       	subi	r30, 0x81	; 129
    236a:	ff 4f       	sbci	r31, 0xFF	; 255
    236c:	48 ea       	ldi	r20, 0xA8	; 168
    236e:	44 2e       	mov	r4, r20
    2370:	51 2c       	mov	r5, r1
    2372:	51 82       	std	Z+1, r5	; 0x01
    2374:	40 82       	st	Z, r4
    2376:	c8 01       	movw	r24, r16
    2378:	bf 01       	movw	r22, r30
    237a:	0e 94 6b 0d 	call	0x1ad6	; 0x1ad6 <_ZN7motor_t8positionERKi>
    237e:	82 e0       	ldi	r24, 0x02	; 2
    2380:	80 93 38 03 	sts	0x0338, r24
	motor[2].position(538);
    2384:	fe 01       	movw	r30, r28
    2386:	ef 57       	subi	r30, 0x7F	; 127
    2388:	ff 4f       	sbci	r31, 0xFF	; 255
    238a:	8a e1       	ldi	r24, 0x1A	; 26
    238c:	92 e0       	ldi	r25, 0x02	; 2
    238e:	91 83       	std	Z+1, r25	; 0x01
    2390:	80 83       	st	Z, r24
    2392:	c8 01       	movw	r24, r16
    2394:	bf 01       	movw	r22, r30
    2396:	0e 94 6b 0d 	call	0x1ad6	; 0x1ad6 <_ZN7motor_t8positionERKi>
    239a:	93 e0       	ldi	r25, 0x03	; 3
    239c:	90 93 38 03 	sts	0x0338, r25
	motor[3].position(409);
    23a0:	fe 01       	movw	r30, r28
    23a2:	ed 57       	subi	r30, 0x7D	; 125
    23a4:	ff 4f       	sbci	r31, 0xFF	; 255
    23a6:	89 e9       	ldi	r24, 0x99	; 153
    23a8:	91 e0       	ldi	r25, 0x01	; 1
    23aa:	91 83       	std	Z+1, r25	; 0x01
    23ac:	80 83       	st	Z, r24
    23ae:	c8 01       	movw	r24, r16
    23b0:	bf 01       	movw	r22, r30
    23b2:	0e 94 6b 0d 	call	0x1ad6	; 0x1ad6 <_ZN7motor_t8positionERKi>
    23b6:	84 e0       	ldi	r24, 0x04	; 4
    23b8:	80 93 38 03 	sts	0x0338, r24
	motor[4].position(284);
    23bc:	fe 01       	movw	r30, r28
    23be:	eb 57       	subi	r30, 0x7B	; 123
    23c0:	ff 4f       	sbci	r31, 0xFF	; 255
    23c2:	8c e1       	ldi	r24, 0x1C	; 28
    23c4:	91 e0       	ldi	r25, 0x01	; 1
    23c6:	91 83       	std	Z+1, r25	; 0x01
    23c8:	80 83       	st	Z, r24
    23ca:	c8 01       	movw	r24, r16
    23cc:	bf 01       	movw	r22, r30
    23ce:	0e 94 6b 0d 	call	0x1ad6	; 0x1ad6 <_ZN7motor_t8positionERKi>
    23d2:	95 e0       	ldi	r25, 0x05	; 5
    23d4:	90 93 38 03 	sts	0x0338, r25
	motor[5].position(238);
    23d8:	fe 01       	movw	r30, r28
    23da:	e9 57       	subi	r30, 0x79	; 121
    23dc:	ff 4f       	sbci	r31, 0xFF	; 255
    23de:	8e ee       	ldi	r24, 0xEE	; 238
    23e0:	90 e0       	ldi	r25, 0x00	; 0
    23e2:	91 83       	std	Z+1, r25	; 0x01
    23e4:	80 83       	st	Z, r24
    23e6:	c8 01       	movw	r24, r16
    23e8:	bf 01       	movw	r22, r30
    23ea:	0e 94 6b 0d 	call	0x1ad6	; 0x1ad6 <_ZN7motor_t8positionERKi>
    23ee:	86 e0       	ldi	r24, 0x06	; 6
    23f0:	80 93 38 03 	sts	0x0338, r24
	motor[6].position(530);
    23f4:	fe 01       	movw	r30, r28
    23f6:	e7 57       	subi	r30, 0x77	; 119
    23f8:	ff 4f       	sbci	r31, 0xFF	; 255
    23fa:	31 82       	std	Z+1, r3	; 0x01
    23fc:	20 82       	st	Z, r2
    23fe:	c8 01       	movw	r24, r16
    2400:	bf 01       	movw	r22, r30
    2402:	0e 94 6b 0d 	call	0x1ad6	; 0x1ad6 <_ZN7motor_t8positionERKi>
    2406:	97 e0       	ldi	r25, 0x07	; 7
    2408:	90 93 38 03 	sts	0x0338, r25
	motor[7].position(494);
    240c:	fe 01       	movw	r30, r28
    240e:	e5 57       	subi	r30, 0x75	; 117
    2410:	ff 4f       	sbci	r31, 0xFF	; 255
    2412:	71 82       	std	Z+1, r7	; 0x01
    2414:	60 82       	st	Z, r6
    2416:	c8 01       	movw	r24, r16
    2418:	bf 01       	movw	r22, r30
    241a:	0e 94 6b 0d 	call	0x1ad6	; 0x1ad6 <_ZN7motor_t8positionERKi>
	syncWait(1000000);
    241e:	60 e4       	ldi	r22, 0x40	; 64
    2420:	72 e4       	ldi	r23, 0x42	; 66
    2422:	8f e0       	ldi	r24, 0x0F	; 15
    2424:	90 e0       	ldi	r25, 0x00	; 0
    2426:	0e 94 e1 00 	call	0x1c2	; 0x1c2 <_Z8syncWaitm>
    242a:	81 e0       	ldi	r24, 0x01	; 1
    242c:	80 93 38 03 	sts	0x0338, r24
	//zacne pokladat figurku
	motor[1].position(168);
    2430:	fe 01       	movw	r30, r28
    2432:	e3 57       	subi	r30, 0x73	; 115
    2434:	ff 4f       	sbci	r31, 0xFF	; 255
    2436:	51 82       	std	Z+1, r5	; 0x01
    2438:	40 82       	st	Z, r4
    243a:	c8 01       	movw	r24, r16
    243c:	bf 01       	movw	r22, r30
    243e:	0e 94 6b 0d 	call	0x1ad6	; 0x1ad6 <_ZN7motor_t8positionERKi>
    2442:	92 e0       	ldi	r25, 0x02	; 2
    2444:	90 93 38 03 	sts	0x0338, r25
	motor[2].position(470);
    2448:	fe 01       	movw	r30, r28
    244a:	e1 57       	subi	r30, 0x71	; 113
    244c:	ff 4f       	sbci	r31, 0xFF	; 255
    244e:	36 ed       	ldi	r19, 0xD6	; 214
    2450:	e3 2e       	mov	r14, r19
    2452:	31 e0       	ldi	r19, 0x01	; 1
    2454:	f3 2e       	mov	r15, r19
    2456:	f1 82       	std	Z+1, r15	; 0x01
    2458:	e0 82       	st	Z, r14
    245a:	c8 01       	movw	r24, r16
    245c:	bf 01       	movw	r22, r30
    245e:	0e 94 6b 0d 	call	0x1ad6	; 0x1ad6 <_ZN7motor_t8positionERKi>
    2462:	83 e0       	ldi	r24, 0x03	; 3
    2464:	80 93 38 03 	sts	0x0338, r24
	motor[3].position(440);//440
    2468:	fe 01       	movw	r30, r28
    246a:	ef 56       	subi	r30, 0x6F	; 111
    246c:	ff 4f       	sbci	r31, 0xFF	; 255
    246e:	88 eb       	ldi	r24, 0xB8	; 184
    2470:	91 e0       	ldi	r25, 0x01	; 1
    2472:	91 83       	std	Z+1, r25	; 0x01
    2474:	80 83       	st	Z, r24
    2476:	c8 01       	movw	r24, r16
    2478:	bf 01       	movw	r22, r30
    247a:	0e 94 6b 0d 	call	0x1ad6	; 0x1ad6 <_ZN7motor_t8positionERKi>
    247e:	94 e0       	ldi	r25, 0x04	; 4
    2480:	90 93 38 03 	sts	0x0338, r25
	motor[4].position(372);
    2484:	fe 01       	movw	r30, r28
    2486:	ed 56       	subi	r30, 0x6D	; 109
    2488:	ff 4f       	sbci	r31, 0xFF	; 255
    248a:	84 e7       	ldi	r24, 0x74	; 116
    248c:	91 e0       	ldi	r25, 0x01	; 1
    248e:	91 83       	std	Z+1, r25	; 0x01
    2490:	80 83       	st	Z, r24
    2492:	c8 01       	movw	r24, r16
    2494:	bf 01       	movw	r22, r30
    2496:	0e 94 6b 0d 	call	0x1ad6	; 0x1ad6 <_ZN7motor_t8positionERKi>
    249a:	85 e0       	ldi	r24, 0x05	; 5
    249c:	80 93 38 03 	sts	0x0338, r24
	motor[5].position(170);
    24a0:	fe 01       	movw	r30, r28
    24a2:	eb 56       	subi	r30, 0x6B	; 107
    24a4:	ff 4f       	sbci	r31, 0xFF	; 255
    24a6:	8a ea       	ldi	r24, 0xAA	; 170
    24a8:	90 e0       	ldi	r25, 0x00	; 0
    24aa:	91 83       	std	Z+1, r25	; 0x01
    24ac:	80 83       	st	Z, r24
    24ae:	c8 01       	movw	r24, r16
    24b0:	bf 01       	movw	r22, r30
    24b2:	0e 94 6b 0d 	call	0x1ad6	; 0x1ad6 <_ZN7motor_t8positionERKi>
    24b6:	96 e0       	ldi	r25, 0x06	; 6
    24b8:	90 93 38 03 	sts	0x0338, r25
	motor[6].position(530);
    24bc:	fe 01       	movw	r30, r28
    24be:	e9 56       	subi	r30, 0x69	; 105
    24c0:	ff 4f       	sbci	r31, 0xFF	; 255
    24c2:	31 82       	std	Z+1, r3	; 0x01
    24c4:	20 82       	st	Z, r2
    24c6:	c8 01       	movw	r24, r16
    24c8:	bf 01       	movw	r22, r30
    24ca:	0e 94 6b 0d 	call	0x1ad6	; 0x1ad6 <_ZN7motor_t8positionERKi>
    24ce:	87 e0       	ldi	r24, 0x07	; 7
    24d0:	80 93 38 03 	sts	0x0338, r24
	motor[7].position(494);
    24d4:	fe 01       	movw	r30, r28
    24d6:	e7 56       	subi	r30, 0x67	; 103
    24d8:	ff 4f       	sbci	r31, 0xFF	; 255
    24da:	71 82       	std	Z+1, r7	; 0x01
    24dc:	60 82       	st	Z, r6
    24de:	c8 01       	movw	r24, r16
    24e0:	bf 01       	movw	r22, r30
    24e2:	0e 94 6b 0d 	call	0x1ad6	; 0x1ad6 <_ZN7motor_t8positionERKi>
	syncWait(3000000);
    24e6:	60 ec       	ldi	r22, 0xC0	; 192
    24e8:	76 ec       	ldi	r23, 0xC6	; 198
    24ea:	8d e2       	ldi	r24, 0x2D	; 45
    24ec:	90 e0       	ldi	r25, 0x00	; 0
    24ee:	0e 94 e1 00 	call	0x1c2	; 0x1c2 <_Z8syncWaitm>
    24f2:	91 e0       	ldi	r25, 0x01	; 1
    24f4:	90 93 38 03 	sts	0x0338, r25
	//zacne pokladat figurku
	motor[1].position(168);
    24f8:	fe 01       	movw	r30, r28
    24fa:	e5 56       	subi	r30, 0x65	; 101
    24fc:	ff 4f       	sbci	r31, 0xFF	; 255
    24fe:	51 82       	std	Z+1, r5	; 0x01
    2500:	40 82       	st	Z, r4
    2502:	c8 01       	movw	r24, r16
    2504:	bf 01       	movw	r22, r30
    2506:	0e 94 6b 0d 	call	0x1ad6	; 0x1ad6 <_ZN7motor_t8positionERKi>
    250a:	82 e0       	ldi	r24, 0x02	; 2
    250c:	80 93 38 03 	sts	0x0338, r24
	motor[2].position(470);
    2510:	fe 01       	movw	r30, r28
    2512:	e3 56       	subi	r30, 0x63	; 99
    2514:	ff 4f       	sbci	r31, 0xFF	; 255
    2516:	f1 82       	std	Z+1, r15	; 0x01
    2518:	e0 82       	st	Z, r14
    251a:	c8 01       	movw	r24, r16
    251c:	bf 01       	movw	r22, r30
    251e:	0e 94 6b 0d 	call	0x1ad6	; 0x1ad6 <_ZN7motor_t8positionERKi>
    2522:	93 e0       	ldi	r25, 0x03	; 3
    2524:	90 93 38 03 	sts	0x0338, r25
	motor[3].position(453);//453
    2528:	fe 01       	movw	r30, r28
    252a:	e1 56       	subi	r30, 0x61	; 97
    252c:	ff 4f       	sbci	r31, 0xFF	; 255
    252e:	25 ec       	ldi	r18, 0xC5	; 197
    2530:	82 2e       	mov	r8, r18
    2532:	21 e0       	ldi	r18, 0x01	; 1
    2534:	92 2e       	mov	r9, r18
    2536:	91 82       	std	Z+1, r9	; 0x01
    2538:	80 82       	st	Z, r8
    253a:	c8 01       	movw	r24, r16
    253c:	bf 01       	movw	r22, r30
    253e:	0e 94 6b 0d 	call	0x1ad6	; 0x1ad6 <_ZN7motor_t8positionERKi>
    2542:	84 e0       	ldi	r24, 0x04	; 4
    2544:	80 93 38 03 	sts	0x0338, r24
	motor[4].position(320);
    2548:	fe 01       	movw	r30, r28
    254a:	ef 55       	subi	r30, 0x5F	; 95
    254c:	ff 4f       	sbci	r31, 0xFF	; 255
    254e:	90 e4       	ldi	r25, 0x40	; 64
    2550:	a9 2e       	mov	r10, r25
    2552:	91 e0       	ldi	r25, 0x01	; 1
    2554:	b9 2e       	mov	r11, r25
    2556:	b1 82       	std	Z+1, r11	; 0x01
    2558:	a0 82       	st	Z, r10
    255a:	c8 01       	movw	r24, r16
    255c:	bf 01       	movw	r22, r30
    255e:	0e 94 6b 0d 	call	0x1ad6	; 0x1ad6 <_ZN7motor_t8positionERKi>
    2562:	95 e0       	ldi	r25, 0x05	; 5
    2564:	90 93 38 03 	sts	0x0338, r25
	motor[5].position(255);//255 puvodni pred upravou
    2568:	fe 01       	movw	r30, r28
    256a:	ed 55       	subi	r30, 0x5D	; 93
    256c:	ff 4f       	sbci	r31, 0xFF	; 255
    256e:	8f ef       	ldi	r24, 0xFF	; 255
    2570:	c8 2e       	mov	r12, r24
    2572:	d1 2c       	mov	r13, r1
    2574:	d1 82       	std	Z+1, r13	; 0x01
    2576:	c0 82       	st	Z, r12
    2578:	c8 01       	movw	r24, r16
    257a:	bf 01       	movw	r22, r30
    257c:	0e 94 6b 0d 	call	0x1ad6	; 0x1ad6 <_ZN7motor_t8positionERKi>
    2580:	86 e0       	ldi	r24, 0x06	; 6
    2582:	80 93 38 03 	sts	0x0338, r24
	motor[6].position(530);
    2586:	fe 01       	movw	r30, r28
    2588:	eb 55       	subi	r30, 0x5B	; 91
    258a:	ff 4f       	sbci	r31, 0xFF	; 255
    258c:	31 82       	std	Z+1, r3	; 0x01
    258e:	20 82       	st	Z, r2
    2590:	c8 01       	movw	r24, r16
    2592:	bf 01       	movw	r22, r30
    2594:	0e 94 6b 0d 	call	0x1ad6	; 0x1ad6 <_ZN7motor_t8positionERKi>
    2598:	97 e0       	ldi	r25, 0x07	; 7
    259a:	90 93 38 03 	sts	0x0338, r25
	motor[7].position(494);
    259e:	fe 01       	movw	r30, r28
    25a0:	e9 55       	subi	r30, 0x59	; 89
    25a2:	ff 4f       	sbci	r31, 0xFF	; 255
    25a4:	71 82       	std	Z+1, r7	; 0x01
    25a6:	60 82       	st	Z, r6
    25a8:	c8 01       	movw	r24, r16
    25aa:	bf 01       	movw	r22, r30
    25ac:	0e 94 6b 0d 	call	0x1ad6	; 0x1ad6 <_ZN7motor_t8positionERKi>
	syncWait(3000000);
    25b0:	60 ec       	ldi	r22, 0xC0	; 192
    25b2:	76 ec       	ldi	r23, 0xC6	; 198
    25b4:	8d e2       	ldi	r24, 0x2D	; 45
    25b6:	90 e0       	ldi	r25, 0x00	; 0
    25b8:	0e 94 e1 00 	call	0x1c2	; 0x1c2 <_Z8syncWaitm>
    25bc:	81 e0       	ldi	r24, 0x01	; 1
    25be:	80 93 38 03 	sts	0x0338, r24
	//otevre celisti
	motor[1].position(168);
    25c2:	fe 01       	movw	r30, r28
    25c4:	e7 55       	subi	r30, 0x57	; 87
    25c6:	ff 4f       	sbci	r31, 0xFF	; 255
    25c8:	51 82       	std	Z+1, r5	; 0x01
    25ca:	40 82       	st	Z, r4
    25cc:	c8 01       	movw	r24, r16
    25ce:	bf 01       	movw	r22, r30
    25d0:	0e 94 6b 0d 	call	0x1ad6	; 0x1ad6 <_ZN7motor_t8positionERKi>
    25d4:	92 e0       	ldi	r25, 0x02	; 2
    25d6:	90 93 38 03 	sts	0x0338, r25
	motor[2].position(470);
    25da:	fe 01       	movw	r30, r28
    25dc:	e5 55       	subi	r30, 0x55	; 85
    25de:	ff 4f       	sbci	r31, 0xFF	; 255
    25e0:	f1 82       	std	Z+1, r15	; 0x01
    25e2:	e0 82       	st	Z, r14
    25e4:	c8 01       	movw	r24, r16
    25e6:	bf 01       	movw	r22, r30
    25e8:	0e 94 6b 0d 	call	0x1ad6	; 0x1ad6 <_ZN7motor_t8positionERKi>
    25ec:	83 e0       	ldi	r24, 0x03	; 3
    25ee:	80 93 38 03 	sts	0x0338, r24
	motor[3].position(453);
    25f2:	fe 01       	movw	r30, r28
    25f4:	e3 55       	subi	r30, 0x53	; 83
    25f6:	ff 4f       	sbci	r31, 0xFF	; 255
    25f8:	91 82       	std	Z+1, r9	; 0x01
    25fa:	80 82       	st	Z, r8
    25fc:	c8 01       	movw	r24, r16
    25fe:	bf 01       	movw	r22, r30
    2600:	0e 94 6b 0d 	call	0x1ad6	; 0x1ad6 <_ZN7motor_t8positionERKi>
    2604:	94 e0       	ldi	r25, 0x04	; 4
    2606:	90 93 38 03 	sts	0x0338, r25
	motor[4].position(320);
    260a:	fe 01       	movw	r30, r28
    260c:	e1 55       	subi	r30, 0x51	; 81
    260e:	ff 4f       	sbci	r31, 0xFF	; 255
    2610:	b1 82       	std	Z+1, r11	; 0x01
    2612:	a0 82       	st	Z, r10
    2614:	c8 01       	movw	r24, r16
    2616:	bf 01       	movw	r22, r30
    2618:	0e 94 6b 0d 	call	0x1ad6	; 0x1ad6 <_ZN7motor_t8positionERKi>
    261c:	85 e0       	ldi	r24, 0x05	; 5
    261e:	80 93 38 03 	sts	0x0338, r24
	motor[5].position(255);//255
    2622:	fe 01       	movw	r30, r28
    2624:	ef 54       	subi	r30, 0x4F	; 79
    2626:	ff 4f       	sbci	r31, 0xFF	; 255
    2628:	d1 82       	std	Z+1, r13	; 0x01
    262a:	c0 82       	st	Z, r12
    262c:	c8 01       	movw	r24, r16
    262e:	bf 01       	movw	r22, r30
    2630:	0e 94 6b 0d 	call	0x1ad6	; 0x1ad6 <_ZN7motor_t8positionERKi>
    2634:	96 e0       	ldi	r25, 0x06	; 6
    2636:	90 93 38 03 	sts	0x0338, r25
	motor[6].position(496);
    263a:	fe 01       	movw	r30, r28
    263c:	ed 54       	subi	r30, 0x4D	; 77
    263e:	ff 4f       	sbci	r31, 0xFF	; 255
    2640:	b0 ef       	ldi	r27, 0xF0	; 240
    2642:	cb 2e       	mov	r12, r27
    2644:	b1 e0       	ldi	r27, 0x01	; 1
    2646:	db 2e       	mov	r13, r27
    2648:	d1 82       	std	Z+1, r13	; 0x01
    264a:	c0 82       	st	Z, r12
    264c:	c8 01       	movw	r24, r16
    264e:	bf 01       	movw	r22, r30
    2650:	0e 94 6b 0d 	call	0x1ad6	; 0x1ad6 <_ZN7motor_t8positionERKi>
    2654:	87 e0       	ldi	r24, 0x07	; 7
    2656:	80 93 38 03 	sts	0x0338, r24
	motor[7].position(534);
    265a:	fe 01       	movw	r30, r28
    265c:	eb 54       	subi	r30, 0x4B	; 75
    265e:	ff 4f       	sbci	r31, 0xFF	; 255
    2660:	a6 e1       	ldi	r26, 0x16	; 22
    2662:	ea 2e       	mov	r14, r26
    2664:	a2 e0       	ldi	r26, 0x02	; 2
    2666:	fa 2e       	mov	r15, r26
    2668:	f1 82       	std	Z+1, r15	; 0x01
    266a:	e0 82       	st	Z, r14
    266c:	c8 01       	movw	r24, r16
    266e:	bf 01       	movw	r22, r30
    2670:	0e 94 6b 0d 	call	0x1ad6	; 0x1ad6 <_ZN7motor_t8positionERKi>
	syncWait(3000000);
    2674:	60 ec       	ldi	r22, 0xC0	; 192
    2676:	76 ec       	ldi	r23, 0xC6	; 198
    2678:	8d e2       	ldi	r24, 0x2D	; 45
    267a:	90 e0       	ldi	r25, 0x00	; 0
    267c:	0e 94 e1 00 	call	0x1c2	; 0x1c2 <_Z8syncWaitm>
    2680:	91 e0       	ldi	r25, 0x01	; 1
    2682:	90 93 38 03 	sts	0x0338, r25
	//narovna rameno
	motor[1].position(168);
    2686:	fe 01       	movw	r30, r28
    2688:	e9 54       	subi	r30, 0x49	; 73
    268a:	ff 4f       	sbci	r31, 0xFF	; 255
    268c:	51 82       	std	Z+1, r5	; 0x01
    268e:	40 82       	st	Z, r4
    2690:	c8 01       	movw	r24, r16
    2692:	bf 01       	movw	r22, r30
    2694:	0e 94 6b 0d 	call	0x1ad6	; 0x1ad6 <_ZN7motor_t8positionERKi>
    2698:	82 e0       	ldi	r24, 0x02	; 2
    269a:	80 93 38 03 	sts	0x0338, r24
	motor[2].position(580);
    269e:	fe 01       	movw	r30, r28
    26a0:	e7 54       	subi	r30, 0x47	; 71
    26a2:	ff 4f       	sbci	r31, 0xFF	; 255
    26a4:	84 e4       	ldi	r24, 0x44	; 68
    26a6:	92 e0       	ldi	r25, 0x02	; 2
    26a8:	91 83       	std	Z+1, r25	; 0x01
    26aa:	80 83       	st	Z, r24
    26ac:	c8 01       	movw	r24, r16
    26ae:	bf 01       	movw	r22, r30
    26b0:	0e 94 6b 0d 	call	0x1ad6	; 0x1ad6 <_ZN7motor_t8positionERKi>
    26b4:	93 e0       	ldi	r25, 0x03	; 3
    26b6:	90 93 38 03 	sts	0x0338, r25
	motor[3].position(433);
    26ba:	fe 01       	movw	r30, r28
    26bc:	e5 54       	subi	r30, 0x45	; 69
    26be:	ff 4f       	sbci	r31, 0xFF	; 255
    26c0:	81 eb       	ldi	r24, 0xB1	; 177
    26c2:	91 e0       	ldi	r25, 0x01	; 1
    26c4:	91 83       	std	Z+1, r25	; 0x01
    26c6:	80 83       	st	Z, r24
    26c8:	c8 01       	movw	r24, r16
    26ca:	bf 01       	movw	r22, r30
    26cc:	0e 94 6b 0d 	call	0x1ad6	; 0x1ad6 <_ZN7motor_t8positionERKi>
    26d0:	84 e0       	ldi	r24, 0x04	; 4
    26d2:	80 93 38 03 	sts	0x0338, r24
	motor[4].position(314);
    26d6:	fe 01       	movw	r30, r28
    26d8:	e3 54       	subi	r30, 0x43	; 67
    26da:	ff 4f       	sbci	r31, 0xFF	; 255
    26dc:	8a e3       	ldi	r24, 0x3A	; 58
    26de:	91 e0       	ldi	r25, 0x01	; 1
    26e0:	91 83       	std	Z+1, r25	; 0x01
    26e2:	80 83       	st	Z, r24
    26e4:	c8 01       	movw	r24, r16
    26e6:	bf 01       	movw	r22, r30
    26e8:	0e 94 6b 0d 	call	0x1ad6	; 0x1ad6 <_ZN7motor_t8positionERKi>
    26ec:	95 e0       	ldi	r25, 0x05	; 5
    26ee:	90 93 38 03 	sts	0x0338, r25
	motor[5].position(257);
    26f2:	fe 01       	movw	r30, r28
    26f4:	e1 54       	subi	r30, 0x41	; 65
    26f6:	ff 4f       	sbci	r31, 0xFF	; 255
    26f8:	81 e0       	ldi	r24, 0x01	; 1
    26fa:	91 e0       	ldi	r25, 0x01	; 1
    26fc:	91 83       	std	Z+1, r25	; 0x01
    26fe:	80 83       	st	Z, r24
    2700:	c8 01       	movw	r24, r16
    2702:	bf 01       	movw	r22, r30
    2704:	0e 94 6b 0d 	call	0x1ad6	; 0x1ad6 <_ZN7motor_t8positionERKi>
    2708:	86 e0       	ldi	r24, 0x06	; 6
    270a:	80 93 38 03 	sts	0x0338, r24
	motor[6].position(496);
    270e:	fe 01       	movw	r30, r28
    2710:	ef 53       	subi	r30, 0x3F	; 63
    2712:	ff 4f       	sbci	r31, 0xFF	; 255
    2714:	d1 82       	std	Z+1, r13	; 0x01
    2716:	c0 82       	st	Z, r12
    2718:	c8 01       	movw	r24, r16
    271a:	bf 01       	movw	r22, r30
    271c:	0e 94 6b 0d 	call	0x1ad6	; 0x1ad6 <_ZN7motor_t8positionERKi>
    2720:	97 e0       	ldi	r25, 0x07	; 7
    2722:	90 93 38 03 	sts	0x0338, r25
	motor[7].position(534);
    2726:	fe 01       	movw	r30, r28
    2728:	ed 53       	subi	r30, 0x3D	; 61
    272a:	ff 4f       	sbci	r31, 0xFF	; 255
    272c:	f1 82       	std	Z+1, r15	; 0x01
    272e:	e0 82       	st	Z, r14
    2730:	c8 01       	movw	r24, r16
    2732:	bf 01       	movw	r22, r30
    2734:	0e 94 6b 0d 	call	0x1ad6	; 0x1ad6 <_ZN7motor_t8positionERKi>
	syncWait(2000000);
    2738:	60 e8       	ldi	r22, 0x80	; 128
    273a:	74 e8       	ldi	r23, 0x84	; 132
    273c:	8e e1       	ldi	r24, 0x1E	; 30
    273e:	90 e0       	ldi	r25, 0x00	; 0
    2740:	0e 94 e1 00 	call	0x1c2	; 0x1c2 <_Z8syncWaitm>
}
    2744:	cc 53       	subi	r28, 0x3C	; 60
    2746:	df 4f       	sbci	r29, 0xFF	; 255
    2748:	0f b6       	in	r0, 0x3f	; 63
    274a:	f8 94       	cli
    274c:	de bf       	out	0x3e, r29	; 62
    274e:	0f be       	out	0x3f, r0	; 63
    2750:	cd bf       	out	0x3d, r28	; 61
    2752:	cf 91       	pop	r28
    2754:	df 91       	pop	r29
    2756:	1f 91       	pop	r17
    2758:	0f 91       	pop	r16
    275a:	ff 90       	pop	r15
    275c:	ef 90       	pop	r14
    275e:	df 90       	pop	r13
    2760:	cf 90       	pop	r12
    2762:	bf 90       	pop	r11
    2764:	af 90       	pop	r10
    2766:	9f 90       	pop	r9
    2768:	8f 90       	pop	r8
    276a:	7f 90       	pop	r7
    276c:	6f 90       	pop	r6
    276e:	5f 90       	pop	r5
    2770:	4f 90       	pop	r4
    2772:	3f 90       	pop	r3
    2774:	2f 90       	pop	r2
    2776:	08 95       	ret

00002778 <_Z22chlivek_robot_pozice33v>:
	motor[6].position(486);
	motor[7].position(548);
	syncWait(4000000);

}
void chlivek_robot_pozice33()//vezme figurku z chlivku - funkcni
    2778:	2f 92       	push	r2
    277a:	3f 92       	push	r3
    277c:	4f 92       	push	r4
    277e:	5f 92       	push	r5
    2780:	6f 92       	push	r6
    2782:	7f 92       	push	r7
    2784:	8f 92       	push	r8
    2786:	9f 92       	push	r9
    2788:	af 92       	push	r10
    278a:	bf 92       	push	r11
    278c:	cf 92       	push	r12
    278e:	df 92       	push	r13
    2790:	ef 92       	push	r14
    2792:	ff 92       	push	r15
    2794:	0f 93       	push	r16
    2796:	1f 93       	push	r17
    2798:	df 93       	push	r29
    279a:	cf 93       	push	r28
    279c:	cd b7       	in	r28, 0x3d	; 61
    279e:	de b7       	in	r29, 0x3e	; 62
    27a0:	c4 5c       	subi	r28, 0xC4	; 196
    27a2:	d0 40       	sbci	r29, 0x00	; 0
    27a4:	0f b6       	in	r0, 0x3f	; 63
    27a6:	f8 94       	cli
    27a8:	de bf       	out	0x3e, r29	; 62
    27aa:	0f be       	out	0x3f, r0	; 63
    27ac:	cd bf       	out	0x3d, r28	; 61
    27ae:	08 e3       	ldi	r16, 0x38	; 56
    27b0:	13 e0       	ldi	r17, 0x03	; 3
    27b2:	81 e0       	ldi	r24, 0x01	; 1
    27b4:	80 93 38 03 	sts	0x0338, r24
{
	//dostane se do zakladni pozice
	motor[1].position(512);
    27b8:	e1 2c       	mov	r14, r1
    27ba:	32 e0       	ldi	r19, 0x02	; 2
    27bc:	f3 2e       	mov	r15, r19
    27be:	fa 82       	std	Y+2, r15	; 0x02
    27c0:	e9 82       	std	Y+1, r14	; 0x01
    27c2:	c8 01       	movw	r24, r16
    27c4:	be 01       	movw	r22, r28
    27c6:	6f 5f       	subi	r22, 0xFF	; 255
    27c8:	7f 4f       	sbci	r23, 0xFF	; 255
    27ca:	0e 94 6b 0d 	call	0x1ad6	; 0x1ad6 <_ZN7motor_t8positionERKi>
    27ce:	92 e0       	ldi	r25, 0x02	; 2
    27d0:	90 93 38 03 	sts	0x0338, r25
	motor[2].position(605);
    27d4:	2d e5       	ldi	r18, 0x5D	; 93
    27d6:	62 2e       	mov	r6, r18
    27d8:	22 e0       	ldi	r18, 0x02	; 2
    27da:	72 2e       	mov	r7, r18
    27dc:	7c 82       	std	Y+4, r7	; 0x04
    27de:	6b 82       	std	Y+3, r6	; 0x03
    27e0:	c8 01       	movw	r24, r16
    27e2:	be 01       	movw	r22, r28
    27e4:	6d 5f       	subi	r22, 0xFD	; 253
    27e6:	7f 4f       	sbci	r23, 0xFF	; 255
    27e8:	0e 94 6b 0d 	call	0x1ad6	; 0x1ad6 <_ZN7motor_t8positionERKi>
    27ec:	83 e0       	ldi	r24, 0x03	; 3
    27ee:	80 93 38 03 	sts	0x0338, r24
	motor[3].position(39);
    27f2:	97 e2       	ldi	r25, 0x27	; 39
    27f4:	89 2e       	mov	r8, r25
    27f6:	91 2c       	mov	r9, r1
    27f8:	9e 82       	std	Y+6, r9	; 0x06
    27fa:	8d 82       	std	Y+5, r8	; 0x05
    27fc:	c8 01       	movw	r24, r16
    27fe:	be 01       	movw	r22, r28
    2800:	6b 5f       	subi	r22, 0xFB	; 251
    2802:	7f 4f       	sbci	r23, 0xFF	; 255
    2804:	0e 94 6b 0d 	call	0x1ad6	; 0x1ad6 <_ZN7motor_t8positionERKi>
    2808:	94 e0       	ldi	r25, 0x04	; 4
    280a:	90 93 38 03 	sts	0x0338, r25
	motor[4].position(977);
    280e:	81 ed       	ldi	r24, 0xD1	; 209
    2810:	a8 2e       	mov	r10, r24
    2812:	83 e0       	ldi	r24, 0x03	; 3
    2814:	b8 2e       	mov	r11, r24
    2816:	b8 86       	std	Y+8, r11	; 0x08
    2818:	af 82       	std	Y+7, r10	; 0x07
    281a:	c8 01       	movw	r24, r16
    281c:	be 01       	movw	r22, r28
    281e:	69 5f       	subi	r22, 0xF9	; 249
    2820:	7f 4f       	sbci	r23, 0xFF	; 255
    2822:	0e 94 6b 0d 	call	0x1ad6	; 0x1ad6 <_ZN7motor_t8positionERKi>
    2826:	85 e0       	ldi	r24, 0x05	; 5
    2828:	80 93 38 03 	sts	0x0338, r24
	motor[5].position(688);
    282c:	b0 eb       	ldi	r27, 0xB0	; 176
    282e:	cb 2e       	mov	r12, r27
    2830:	b2 e0       	ldi	r27, 0x02	; 2
    2832:	db 2e       	mov	r13, r27
    2834:	da 86       	std	Y+10, r13	; 0x0a
    2836:	c9 86       	std	Y+9, r12	; 0x09
    2838:	c8 01       	movw	r24, r16
    283a:	be 01       	movw	r22, r28
    283c:	67 5f       	subi	r22, 0xF7	; 247
    283e:	7f 4f       	sbci	r23, 0xFF	; 255
    2840:	0e 94 6b 0d 	call	0x1ad6	; 0x1ad6 <_ZN7motor_t8positionERKi>
    2844:	96 e0       	ldi	r25, 0x06	; 6
    2846:	90 93 38 03 	sts	0x0338, r25
	motor[6].position(512);
    284a:	fc 86       	std	Y+12, r15	; 0x0c
    284c:	eb 86       	std	Y+11, r14	; 0x0b
    284e:	c8 01       	movw	r24, r16
    2850:	be 01       	movw	r22, r28
    2852:	65 5f       	subi	r22, 0xF5	; 245
    2854:	7f 4f       	sbci	r23, 0xFF	; 255
    2856:	0e 94 6b 0d 	call	0x1ad6	; 0x1ad6 <_ZN7motor_t8positionERKi>
    285a:	87 e0       	ldi	r24, 0x07	; 7
    285c:	80 93 38 03 	sts	0x0338, r24
	motor[7].position(512);
    2860:	fe 86       	std	Y+14, r15	; 0x0e
    2862:	ed 86       	std	Y+13, r14	; 0x0d
    2864:	c8 01       	movw	r24, r16
    2866:	be 01       	movw	r22, r28
    2868:	63 5f       	subi	r22, 0xF3	; 243
    286a:	7f 4f       	sbci	r23, 0xFF	; 255
    286c:	0e 94 6b 0d 	call	0x1ad6	; 0x1ad6 <_ZN7motor_t8positionERKi>
	syncWait(4000000);
    2870:	60 e0       	ldi	r22, 0x00	; 0
    2872:	79 e0       	ldi	r23, 0x09	; 9
    2874:	8d e3       	ldi	r24, 0x3D	; 61
    2876:	90 e0       	ldi	r25, 0x00	; 0
    2878:	0e 94 e1 00 	call	0x1c2	; 0x1c2 <_Z8syncWaitm>
    287c:	91 e0       	ldi	r25, 0x01	; 1
    287e:	90 93 38 03 	sts	0x0338, r25
	//zakladni pozice ale otoci se nad pole
	motor[1].position(180);
    2882:	a4 eb       	ldi	r26, 0xB4	; 180
    2884:	4a 2e       	mov	r4, r26
    2886:	51 2c       	mov	r5, r1
    2888:	58 8a       	std	Y+16, r5	; 0x10
    288a:	4f 86       	std	Y+15, r4	; 0x0f
    288c:	c8 01       	movw	r24, r16
    288e:	be 01       	movw	r22, r28
    2890:	61 5f       	subi	r22, 0xF1	; 241
    2892:	7f 4f       	sbci	r23, 0xFF	; 255
    2894:	0e 94 6b 0d 	call	0x1ad6	; 0x1ad6 <_ZN7motor_t8positionERKi>
    2898:	82 e0       	ldi	r24, 0x02	; 2
    289a:	80 93 38 03 	sts	0x0338, r24
	motor[2].position(605);
    289e:	7a 8a       	std	Y+18, r7	; 0x12
    28a0:	69 8a       	std	Y+17, r6	; 0x11
    28a2:	c8 01       	movw	r24, r16
    28a4:	be 01       	movw	r22, r28
    28a6:	6f 5e       	subi	r22, 0xEF	; 239
    28a8:	7f 4f       	sbci	r23, 0xFF	; 255
    28aa:	0e 94 6b 0d 	call	0x1ad6	; 0x1ad6 <_ZN7motor_t8positionERKi>
    28ae:	93 e0       	ldi	r25, 0x03	; 3
    28b0:	90 93 38 03 	sts	0x0338, r25
	motor[3].position(39);
    28b4:	9c 8a       	std	Y+20, r9	; 0x14
    28b6:	8b 8a       	std	Y+19, r8	; 0x13
    28b8:	c8 01       	movw	r24, r16
    28ba:	be 01       	movw	r22, r28
    28bc:	6d 5e       	subi	r22, 0xED	; 237
    28be:	7f 4f       	sbci	r23, 0xFF	; 255
    28c0:	0e 94 6b 0d 	call	0x1ad6	; 0x1ad6 <_ZN7motor_t8positionERKi>
    28c4:	84 e0       	ldi	r24, 0x04	; 4
    28c6:	80 93 38 03 	sts	0x0338, r24
	motor[4].position(977);
    28ca:	be 8a       	std	Y+22, r11	; 0x16
    28cc:	ad 8a       	std	Y+21, r10	; 0x15
    28ce:	c8 01       	movw	r24, r16
    28d0:	be 01       	movw	r22, r28
    28d2:	6b 5e       	subi	r22, 0xEB	; 235
    28d4:	7f 4f       	sbci	r23, 0xFF	; 255
    28d6:	0e 94 6b 0d 	call	0x1ad6	; 0x1ad6 <_ZN7motor_t8positionERKi>
    28da:	95 e0       	ldi	r25, 0x05	; 5
    28dc:	90 93 38 03 	sts	0x0338, r25
	motor[5].position(688);
    28e0:	d8 8e       	std	Y+24, r13	; 0x18
    28e2:	cf 8a       	std	Y+23, r12	; 0x17
    28e4:	c8 01       	movw	r24, r16
    28e6:	be 01       	movw	r22, r28
    28e8:	69 5e       	subi	r22, 0xE9	; 233
    28ea:	7f 4f       	sbci	r23, 0xFF	; 255
    28ec:	0e 94 6b 0d 	call	0x1ad6	; 0x1ad6 <_ZN7motor_t8positionERKi>
    28f0:	86 e0       	ldi	r24, 0x06	; 6
    28f2:	80 93 38 03 	sts	0x0338, r24
	motor[6].position(512);
    28f6:	fa 8e       	std	Y+26, r15	; 0x1a
    28f8:	e9 8e       	std	Y+25, r14	; 0x19
    28fa:	c8 01       	movw	r24, r16
    28fc:	be 01       	movw	r22, r28
    28fe:	67 5e       	subi	r22, 0xE7	; 231
    2900:	7f 4f       	sbci	r23, 0xFF	; 255
    2902:	0e 94 6b 0d 	call	0x1ad6	; 0x1ad6 <_ZN7motor_t8positionERKi>
    2906:	97 e0       	ldi	r25, 0x07	; 7
    2908:	90 93 38 03 	sts	0x0338, r25
	motor[7].position(512);
    290c:	fc 8e       	std	Y+28, r15	; 0x1c
    290e:	eb 8e       	std	Y+27, r14	; 0x1b
    2910:	c8 01       	movw	r24, r16
    2912:	be 01       	movw	r22, r28
    2914:	65 5e       	subi	r22, 0xE5	; 229
    2916:	7f 4f       	sbci	r23, 0xFF	; 255
    2918:	0e 94 6b 0d 	call	0x1ad6	; 0x1ad6 <_ZN7motor_t8positionERKi>
	syncWait(1000000);
    291c:	60 e4       	ldi	r22, 0x40	; 64
    291e:	72 e4       	ldi	r23, 0x42	; 66
    2920:	8f e0       	ldi	r24, 0x0F	; 15
    2922:	90 e0       	ldi	r25, 0x00	; 0
    2924:	0e 94 e1 00 	call	0x1c2	; 0x1c2 <_Z8syncWaitm>
    2928:	81 e0       	ldi	r24, 0x01	; 1
    292a:	80 93 38 03 	sts	0x0338, r24
	//nad chlivkem  otevre celisti
	motor[1].position(180);
    292e:	5e 8e       	std	Y+30, r5	; 0x1e
    2930:	4d 8e       	std	Y+29, r4	; 0x1d
    2932:	c8 01       	movw	r24, r16
    2934:	be 01       	movw	r22, r28
    2936:	63 5e       	subi	r22, 0xE3	; 227
    2938:	7f 4f       	sbci	r23, 0xFF	; 255
    293a:	0e 94 6b 0d 	call	0x1ad6	; 0x1ad6 <_ZN7motor_t8positionERKi>
    293e:	92 e0       	ldi	r25, 0x02	; 2
    2940:	90 93 38 03 	sts	0x0338, r25
	motor[2].position(605);
    2944:	78 a2       	std	Y+32, r7	; 0x20
    2946:	6f 8e       	std	Y+31, r6	; 0x1f
    2948:	c8 01       	movw	r24, r16
    294a:	be 01       	movw	r22, r28
    294c:	61 5e       	subi	r22, 0xE1	; 225
    294e:	7f 4f       	sbci	r23, 0xFF	; 255
    2950:	0e 94 6b 0d 	call	0x1ad6	; 0x1ad6 <_ZN7motor_t8positionERKi>
    2954:	83 e0       	ldi	r24, 0x03	; 3
    2956:	80 93 38 03 	sts	0x0338, r24
	motor[3].position(39);
    295a:	9a a2       	std	Y+34, r9	; 0x22
    295c:	89 a2       	std	Y+33, r8	; 0x21
    295e:	c8 01       	movw	r24, r16
    2960:	be 01       	movw	r22, r28
    2962:	6f 5d       	subi	r22, 0xDF	; 223
    2964:	7f 4f       	sbci	r23, 0xFF	; 255
    2966:	0e 94 6b 0d 	call	0x1ad6	; 0x1ad6 <_ZN7motor_t8positionERKi>
    296a:	94 e0       	ldi	r25, 0x04	; 4
    296c:	90 93 38 03 	sts	0x0338, r25
	motor[4].position(977);
    2970:	bc a2       	std	Y+36, r11	; 0x24
    2972:	ab a2       	std	Y+35, r10	; 0x23
    2974:	c8 01       	movw	r24, r16
    2976:	be 01       	movw	r22, r28
    2978:	6d 5d       	subi	r22, 0xDD	; 221
    297a:	7f 4f       	sbci	r23, 0xFF	; 255
    297c:	0e 94 6b 0d 	call	0x1ad6	; 0x1ad6 <_ZN7motor_t8positionERKi>
    2980:	85 e0       	ldi	r24, 0x05	; 5
    2982:	80 93 38 03 	sts	0x0338, r24
	motor[5].position(688);
    2986:	de a2       	std	Y+38, r13	; 0x26
    2988:	cd a2       	std	Y+37, r12	; 0x25
    298a:	c8 01       	movw	r24, r16
    298c:	be 01       	movw	r22, r28
    298e:	6b 5d       	subi	r22, 0xDB	; 219
    2990:	7f 4f       	sbci	r23, 0xFF	; 255
    2992:	0e 94 6b 0d 	call	0x1ad6	; 0x1ad6 <_ZN7motor_t8positionERKi>
    2996:	96 e0       	ldi	r25, 0x06	; 6
    2998:	90 93 38 03 	sts	0x0338, r25
	motor[6].position(486);
    299c:	f6 ee       	ldi	r31, 0xE6	; 230
    299e:	ef 2e       	mov	r14, r31
    29a0:	f1 e0       	ldi	r31, 0x01	; 1
    29a2:	ff 2e       	mov	r15, r31
    29a4:	f8 a6       	std	Y+40, r15	; 0x28
    29a6:	ef a2       	std	Y+39, r14	; 0x27
    29a8:	c8 01       	movw	r24, r16
    29aa:	be 01       	movw	r22, r28
    29ac:	69 5d       	subi	r22, 0xD9	; 217
    29ae:	7f 4f       	sbci	r23, 0xFF	; 255
    29b0:	0e 94 6b 0d 	call	0x1ad6	; 0x1ad6 <_ZN7motor_t8positionERKi>
    29b4:	87 e0       	ldi	r24, 0x07	; 7
    29b6:	80 93 38 03 	sts	0x0338, r24
	motor[7].position(548);
    29ba:	e4 e2       	ldi	r30, 0x24	; 36
    29bc:	ce 2e       	mov	r12, r30
    29be:	e2 e0       	ldi	r30, 0x02	; 2
    29c0:	de 2e       	mov	r13, r30
    29c2:	da a6       	std	Y+42, r13	; 0x2a
    29c4:	c9 a6       	std	Y+41, r12	; 0x29
    29c6:	c8 01       	movw	r24, r16
    29c8:	be 01       	movw	r22, r28
    29ca:	67 5d       	subi	r22, 0xD7	; 215
    29cc:	7f 4f       	sbci	r23, 0xFF	; 255
    29ce:	0e 94 6b 0d 	call	0x1ad6	; 0x1ad6 <_ZN7motor_t8positionERKi>
	syncWait(4000000);
    29d2:	60 e0       	ldi	r22, 0x00	; 0
    29d4:	79 e0       	ldi	r23, 0x09	; 9
    29d6:	8d e3       	ldi	r24, 0x3D	; 61
    29d8:	90 e0       	ldi	r25, 0x00	; 0
    29da:	0e 94 e1 00 	call	0x1c2	; 0x1c2 <_Z8syncWaitm>
    29de:	91 e0       	ldi	r25, 0x01	; 1
    29e0:	90 93 38 03 	sts	0x0338, r25
	//zacne se naklanet
	motor[1].position(180);
    29e4:	5c a6       	std	Y+44, r5	; 0x2c
    29e6:	4b a6       	std	Y+43, r4	; 0x2b
    29e8:	c8 01       	movw	r24, r16
    29ea:	be 01       	movw	r22, r28
    29ec:	65 5d       	subi	r22, 0xD5	; 213
    29ee:	7f 4f       	sbci	r23, 0xFF	; 255
    29f0:	0e 94 6b 0d 	call	0x1ad6	; 0x1ad6 <_ZN7motor_t8positionERKi>
    29f4:	82 e0       	ldi	r24, 0x02	; 2
    29f6:	80 93 38 03 	sts	0x0338, r24
	motor[2].position(592);
    29fa:	80 e5       	ldi	r24, 0x50	; 80
    29fc:	92 e0       	ldi	r25, 0x02	; 2
    29fe:	9e a7       	std	Y+46, r25	; 0x2e
    2a00:	8d a7       	std	Y+45, r24	; 0x2d
    2a02:	c8 01       	movw	r24, r16
    2a04:	be 01       	movw	r22, r28
    2a06:	63 5d       	subi	r22, 0xD3	; 211
    2a08:	7f 4f       	sbci	r23, 0xFF	; 255
    2a0a:	0e 94 6b 0d 	call	0x1ad6	; 0x1ad6 <_ZN7motor_t8positionERKi>
    2a0e:	93 e0       	ldi	r25, 0x03	; 3
    2a10:	90 93 38 03 	sts	0x0338, r25
	motor[3].position(302);
    2a14:	8e e2       	ldi	r24, 0x2E	; 46
    2a16:	91 e0       	ldi	r25, 0x01	; 1
    2a18:	98 ab       	std	Y+48, r25	; 0x30
    2a1a:	8f a7       	std	Y+47, r24	; 0x2f
    2a1c:	c8 01       	movw	r24, r16
    2a1e:	be 01       	movw	r22, r28
    2a20:	61 5d       	subi	r22, 0xD1	; 209
    2a22:	7f 4f       	sbci	r23, 0xFF	; 255
    2a24:	0e 94 6b 0d 	call	0x1ad6	; 0x1ad6 <_ZN7motor_t8positionERKi>
    2a28:	84 e0       	ldi	r24, 0x04	; 4
    2a2a:	80 93 38 03 	sts	0x0338, r24
	motor[4].position(411);
    2a2e:	8b e9       	ldi	r24, 0x9B	; 155
    2a30:	91 e0       	ldi	r25, 0x01	; 1
    2a32:	9a ab       	std	Y+50, r25	; 0x32
    2a34:	89 ab       	std	Y+49, r24	; 0x31
    2a36:	c8 01       	movw	r24, r16
    2a38:	be 01       	movw	r22, r28
    2a3a:	6f 5c       	subi	r22, 0xCF	; 207
    2a3c:	7f 4f       	sbci	r23, 0xFF	; 255
    2a3e:	0e 94 6b 0d 	call	0x1ad6	; 0x1ad6 <_ZN7motor_t8positionERKi>
    2a42:	95 e0       	ldi	r25, 0x05	; 5
    2a44:	90 93 38 03 	sts	0x0338, r25
	motor[5].position(214);
    2a48:	86 ed       	ldi	r24, 0xD6	; 214
    2a4a:	90 e0       	ldi	r25, 0x00	; 0
    2a4c:	9c ab       	std	Y+52, r25	; 0x34
    2a4e:	8b ab       	std	Y+51, r24	; 0x33
    2a50:	c8 01       	movw	r24, r16
    2a52:	be 01       	movw	r22, r28
    2a54:	6d 5c       	subi	r22, 0xCD	; 205
    2a56:	7f 4f       	sbci	r23, 0xFF	; 255
    2a58:	0e 94 6b 0d 	call	0x1ad6	; 0x1ad6 <_ZN7motor_t8positionERKi>
    2a5c:	86 e0       	ldi	r24, 0x06	; 6
    2a5e:	80 93 38 03 	sts	0x0338, r24
	motor[6].position(486);
    2a62:	fe aa       	std	Y+54, r15	; 0x36
    2a64:	ed aa       	std	Y+53, r14	; 0x35
    2a66:	c8 01       	movw	r24, r16
    2a68:	be 01       	movw	r22, r28
    2a6a:	6b 5c       	subi	r22, 0xCB	; 203
    2a6c:	7f 4f       	sbci	r23, 0xFF	; 255
    2a6e:	0e 94 6b 0d 	call	0x1ad6	; 0x1ad6 <_ZN7motor_t8positionERKi>
    2a72:	97 e0       	ldi	r25, 0x07	; 7
    2a74:	90 93 38 03 	sts	0x0338, r25
	motor[7].position(548);
    2a78:	d8 ae       	std	Y+56, r13	; 0x38
    2a7a:	cf aa       	std	Y+55, r12	; 0x37
    2a7c:	c8 01       	movw	r24, r16
    2a7e:	be 01       	movw	r22, r28
    2a80:	69 5c       	subi	r22, 0xC9	; 201
    2a82:	7f 4f       	sbci	r23, 0xFF	; 255
    2a84:	0e 94 6b 0d 	call	0x1ad6	; 0x1ad6 <_ZN7motor_t8positionERKi>
	syncWait(6000000);
    2a88:	60 e8       	ldi	r22, 0x80	; 128
    2a8a:	7d e8       	ldi	r23, 0x8D	; 141
    2a8c:	8b e5       	ldi	r24, 0x5B	; 91
    2a8e:	90 e0       	ldi	r25, 0x00	; 0
    2a90:	0e 94 e1 00 	call	0x1c2	; 0x1c2 <_Z8syncWaitm>
    2a94:	81 e0       	ldi	r24, 0x01	; 1
    2a96:	80 93 38 03 	sts	0x0338, r24
	//nakloni se nad figurku
	motor[1].position(180);
    2a9a:	5a ae       	std	Y+58, r5	; 0x3a
    2a9c:	49 ae       	std	Y+57, r4	; 0x39
    2a9e:	c8 01       	movw	r24, r16
    2aa0:	be 01       	movw	r22, r28
    2aa2:	67 5c       	subi	r22, 0xC7	; 199
    2aa4:	7f 4f       	sbci	r23, 0xFF	; 255
    2aa6:	0e 94 6b 0d 	call	0x1ad6	; 0x1ad6 <_ZN7motor_t8positionERKi>
    2aaa:	92 e0       	ldi	r25, 0x02	; 2
    2aac:	90 93 38 03 	sts	0x0338, r25
	motor[2].position(415);
    2ab0:	7f e9       	ldi	r23, 0x9F	; 159
    2ab2:	a7 2e       	mov	r10, r23
    2ab4:	71 e0       	ldi	r23, 0x01	; 1
    2ab6:	b7 2e       	mov	r11, r23
    2ab8:	bc ae       	std	Y+60, r11	; 0x3c
    2aba:	ab ae       	std	Y+59, r10	; 0x3b
    2abc:	c8 01       	movw	r24, r16
    2abe:	be 01       	movw	r22, r28
    2ac0:	65 5c       	subi	r22, 0xC5	; 197
    2ac2:	7f 4f       	sbci	r23, 0xFF	; 255
    2ac4:	0e 94 6b 0d 	call	0x1ad6	; 0x1ad6 <_ZN7motor_t8positionERKi>
    2ac8:	83 e0       	ldi	r24, 0x03	; 3
    2aca:	80 93 38 03 	sts	0x0338, r24
	motor[3].position(447);
    2ace:	6f eb       	ldi	r22, 0xBF	; 191
    2ad0:	86 2e       	mov	r8, r22
    2ad2:	61 e0       	ldi	r22, 0x01	; 1
    2ad4:	96 2e       	mov	r9, r22
    2ad6:	9e ae       	std	Y+62, r9	; 0x3e
    2ad8:	8d ae       	std	Y+61, r8	; 0x3d
    2ada:	c8 01       	movw	r24, r16
    2adc:	be 01       	movw	r22, r28
    2ade:	63 5c       	subi	r22, 0xC3	; 195
    2ae0:	7f 4f       	sbci	r23, 0xFF	; 255
    2ae2:	0e 94 6b 0d 	call	0x1ad6	; 0x1ad6 <_ZN7motor_t8positionERKi>
    2ae6:	94 e0       	ldi	r25, 0x04	; 4
    2ae8:	90 93 38 03 	sts	0x0338, r25
	motor[4].position(477);
    2aec:	5d ed       	ldi	r21, 0xDD	; 221
    2aee:	65 2e       	mov	r6, r21
    2af0:	51 e0       	ldi	r21, 0x01	; 1
    2af2:	75 2e       	mov	r7, r21
    2af4:	fe 01       	movw	r30, r28
    2af6:	ff 96       	adiw	r30, 0x3f	; 63
    2af8:	71 82       	std	Z+1, r7	; 0x01
    2afa:	60 82       	st	Z, r6
    2afc:	c8 01       	movw	r24, r16
    2afe:	bf 01       	movw	r22, r30
    2b00:	0e 94 6b 0d 	call	0x1ad6	; 0x1ad6 <_ZN7motor_t8positionERKi>
    2b04:	85 e0       	ldi	r24, 0x05	; 5
    2b06:	80 93 38 03 	sts	0x0338, r24
	motor[5].position(170);
    2b0a:	fe 01       	movw	r30, r28
    2b0c:	ef 5b       	subi	r30, 0xBF	; 191
    2b0e:	ff 4f       	sbci	r31, 0xFF	; 255
    2b10:	8a ea       	ldi	r24, 0xAA	; 170
    2b12:	90 e0       	ldi	r25, 0x00	; 0
    2b14:	91 83       	std	Z+1, r25	; 0x01
    2b16:	80 83       	st	Z, r24
    2b18:	c8 01       	movw	r24, r16
    2b1a:	bf 01       	movw	r22, r30
    2b1c:	0e 94 6b 0d 	call	0x1ad6	; 0x1ad6 <_ZN7motor_t8positionERKi>
    2b20:	96 e0       	ldi	r25, 0x06	; 6
    2b22:	90 93 38 03 	sts	0x0338, r25
	motor[6].position(486);
    2b26:	fe 01       	movw	r30, r28
    2b28:	ed 5b       	subi	r30, 0xBD	; 189
    2b2a:	ff 4f       	sbci	r31, 0xFF	; 255
    2b2c:	f1 82       	std	Z+1, r15	; 0x01
    2b2e:	e0 82       	st	Z, r14
    2b30:	c8 01       	movw	r24, r16
    2b32:	bf 01       	movw	r22, r30
    2b34:	0e 94 6b 0d 	call	0x1ad6	; 0x1ad6 <_ZN7motor_t8positionERKi>
    2b38:	87 e0       	ldi	r24, 0x07	; 7
    2b3a:	80 93 38 03 	sts	0x0338, r24
	motor[7].position(548);
    2b3e:	fe 01       	movw	r30, r28
    2b40:	eb 5b       	subi	r30, 0xBB	; 187
    2b42:	ff 4f       	sbci	r31, 0xFF	; 255
    2b44:	d1 82       	std	Z+1, r13	; 0x01
    2b46:	c0 82       	st	Z, r12
    2b48:	c8 01       	movw	r24, r16
    2b4a:	bf 01       	movw	r22, r30
    2b4c:	0e 94 6b 0d 	call	0x1ad6	; 0x1ad6 <_ZN7motor_t8positionERKi>
	syncWait(5000000);
    2b50:	60 e4       	ldi	r22, 0x40	; 64
    2b52:	7b e4       	ldi	r23, 0x4B	; 75
    2b54:	8c e4       	ldi	r24, 0x4C	; 76
    2b56:	90 e0       	ldi	r25, 0x00	; 0
    2b58:	0e 94 e1 00 	call	0x1c2	; 0x1c2 <_Z8syncWaitm>
    2b5c:	91 e0       	ldi	r25, 0x01	; 1
    2b5e:	90 93 38 03 	sts	0x0338, r25
	//nad figurkou zavre celisti
	motor[1].position(180);
    2b62:	fe 01       	movw	r30, r28
    2b64:	e9 5b       	subi	r30, 0xB9	; 185
    2b66:	ff 4f       	sbci	r31, 0xFF	; 255
    2b68:	51 82       	std	Z+1, r5	; 0x01
    2b6a:	40 82       	st	Z, r4
    2b6c:	c8 01       	movw	r24, r16
    2b6e:	bf 01       	movw	r22, r30
    2b70:	0e 94 6b 0d 	call	0x1ad6	; 0x1ad6 <_ZN7motor_t8positionERKi>
    2b74:	82 e0       	ldi	r24, 0x02	; 2
    2b76:	80 93 38 03 	sts	0x0338, r24
	motor[2].position(415);
    2b7a:	fe 01       	movw	r30, r28
    2b7c:	e7 5b       	subi	r30, 0xB7	; 183
    2b7e:	ff 4f       	sbci	r31, 0xFF	; 255
    2b80:	b1 82       	std	Z+1, r11	; 0x01
    2b82:	a0 82       	st	Z, r10
    2b84:	c8 01       	movw	r24, r16
    2b86:	bf 01       	movw	r22, r30
    2b88:	0e 94 6b 0d 	call	0x1ad6	; 0x1ad6 <_ZN7motor_t8positionERKi>
    2b8c:	93 e0       	ldi	r25, 0x03	; 3
    2b8e:	90 93 38 03 	sts	0x0338, r25
	motor[3].position(447);
    2b92:	fe 01       	movw	r30, r28
    2b94:	e5 5b       	subi	r30, 0xB5	; 181
    2b96:	ff 4f       	sbci	r31, 0xFF	; 255
    2b98:	91 82       	std	Z+1, r9	; 0x01
    2b9a:	80 82       	st	Z, r8
    2b9c:	c8 01       	movw	r24, r16
    2b9e:	bf 01       	movw	r22, r30
    2ba0:	0e 94 6b 0d 	call	0x1ad6	; 0x1ad6 <_ZN7motor_t8positionERKi>
    2ba4:	84 e0       	ldi	r24, 0x04	; 4
    2ba6:	80 93 38 03 	sts	0x0338, r24
	motor[4].position(477);
    2baa:	fe 01       	movw	r30, r28
    2bac:	e3 5b       	subi	r30, 0xB3	; 179
    2bae:	ff 4f       	sbci	r31, 0xFF	; 255
    2bb0:	71 82       	std	Z+1, r7	; 0x01
    2bb2:	60 82       	st	Z, r6
    2bb4:	c8 01       	movw	r24, r16
    2bb6:	bf 01       	movw	r22, r30
    2bb8:	0e 94 6b 0d 	call	0x1ad6	; 0x1ad6 <_ZN7motor_t8positionERKi>
    2bbc:	95 e0       	ldi	r25, 0x05	; 5
    2bbe:	90 93 38 03 	sts	0x0338, r25
	motor[5].position(170);
    2bc2:	fe 01       	movw	r30, r28
    2bc4:	e1 5b       	subi	r30, 0xB1	; 177
    2bc6:	ff 4f       	sbci	r31, 0xFF	; 255
    2bc8:	8a ea       	ldi	r24, 0xAA	; 170
    2bca:	90 e0       	ldi	r25, 0x00	; 0
    2bcc:	91 83       	std	Z+1, r25	; 0x01
    2bce:	80 83       	st	Z, r24
    2bd0:	c8 01       	movw	r24, r16
    2bd2:	bf 01       	movw	r22, r30
    2bd4:	0e 94 6b 0d 	call	0x1ad6	; 0x1ad6 <_ZN7motor_t8positionERKi>
    2bd8:	96 e0       	ldi	r25, 0x06	; 6
    2bda:	90 93 38 03 	sts	0x0338, r25
	motor[6].position(524);
    2bde:	fe 01       	movw	r30, r28
    2be0:	ef 5a       	subi	r30, 0xAF	; 175
    2be2:	ff 4f       	sbci	r31, 0xFF	; 255
    2be4:	4c e0       	ldi	r20, 0x0C	; 12
    2be6:	c4 2e       	mov	r12, r20
    2be8:	42 e0       	ldi	r20, 0x02	; 2
    2bea:	d4 2e       	mov	r13, r20
    2bec:	d1 82       	std	Z+1, r13	; 0x01
    2bee:	c0 82       	st	Z, r12
    2bf0:	c8 01       	movw	r24, r16
    2bf2:	bf 01       	movw	r22, r30
    2bf4:	0e 94 6b 0d 	call	0x1ad6	; 0x1ad6 <_ZN7motor_t8positionERKi>
    2bf8:	87 e0       	ldi	r24, 0x07	; 7
    2bfa:	80 93 38 03 	sts	0x0338, r24
	motor[7].position(500);
    2bfe:	fe 01       	movw	r30, r28
    2c00:	ed 5a       	subi	r30, 0xAD	; 173
    2c02:	ff 4f       	sbci	r31, 0xFF	; 255
    2c04:	34 ef       	ldi	r19, 0xF4	; 244
    2c06:	e3 2e       	mov	r14, r19
    2c08:	31 e0       	ldi	r19, 0x01	; 1
    2c0a:	f3 2e       	mov	r15, r19
    2c0c:	f1 82       	std	Z+1, r15	; 0x01
    2c0e:	e0 82       	st	Z, r14
    2c10:	c8 01       	movw	r24, r16
    2c12:	bf 01       	movw	r22, r30
    2c14:	0e 94 6b 0d 	call	0x1ad6	; 0x1ad6 <_ZN7motor_t8positionERKi>
	syncWait(2000000);
    2c18:	60 e8       	ldi	r22, 0x80	; 128
    2c1a:	74 e8       	ldi	r23, 0x84	; 132
    2c1c:	8e e1       	ldi	r24, 0x1E	; 30
    2c1e:	90 e0       	ldi	r25, 0x00	; 0
    2c20:	0e 94 e1 00 	call	0x1c2	; 0x1c2 <_Z8syncWaitm>
    2c24:	91 e0       	ldi	r25, 0x01	; 1
    2c26:	90 93 38 03 	sts	0x0338, r25
	//vezme figurku
	motor[1].position(180);
    2c2a:	fe 01       	movw	r30, r28
    2c2c:	eb 5a       	subi	r30, 0xAB	; 171
    2c2e:	ff 4f       	sbci	r31, 0xFF	; 255
    2c30:	51 82       	std	Z+1, r5	; 0x01
    2c32:	40 82       	st	Z, r4
    2c34:	c8 01       	movw	r24, r16
    2c36:	bf 01       	movw	r22, r30
    2c38:	0e 94 6b 0d 	call	0x1ad6	; 0x1ad6 <_ZN7motor_t8positionERKi>
    2c3c:	82 e0       	ldi	r24, 0x02	; 2
    2c3e:	80 93 38 03 	sts	0x0338, r24
	motor[2].position(415);
    2c42:	fe 01       	movw	r30, r28
    2c44:	e9 5a       	subi	r30, 0xA9	; 169
    2c46:	ff 4f       	sbci	r31, 0xFF	; 255
    2c48:	b1 82       	std	Z+1, r11	; 0x01
    2c4a:	a0 82       	st	Z, r10
    2c4c:	c8 01       	movw	r24, r16
    2c4e:	bf 01       	movw	r22, r30
    2c50:	0e 94 6b 0d 	call	0x1ad6	; 0x1ad6 <_ZN7motor_t8positionERKi>
    2c54:	93 e0       	ldi	r25, 0x03	; 3
    2c56:	90 93 38 03 	sts	0x0338, r25
	motor[3].position(505);
    2c5a:	fe 01       	movw	r30, r28
    2c5c:	e7 5a       	subi	r30, 0xA7	; 167
    2c5e:	ff 4f       	sbci	r31, 0xFF	; 255
    2c60:	89 ef       	ldi	r24, 0xF9	; 249
    2c62:	91 e0       	ldi	r25, 0x01	; 1
    2c64:	91 83       	std	Z+1, r25	; 0x01
    2c66:	80 83       	st	Z, r24
    2c68:	c8 01       	movw	r24, r16
    2c6a:	bf 01       	movw	r22, r30
    2c6c:	0e 94 6b 0d 	call	0x1ad6	; 0x1ad6 <_ZN7motor_t8positionERKi>
    2c70:	84 e0       	ldi	r24, 0x04	; 4
    2c72:	80 93 38 03 	sts	0x0338, r24
	motor[4].position(500);
    2c76:	fe 01       	movw	r30, r28
    2c78:	e5 5a       	subi	r30, 0xA5	; 165
    2c7a:	ff 4f       	sbci	r31, 0xFF	; 255
    2c7c:	f1 82       	std	Z+1, r15	; 0x01
    2c7e:	e0 82       	st	Z, r14
    2c80:	c8 01       	movw	r24, r16
    2c82:	bf 01       	movw	r22, r30
    2c84:	0e 94 6b 0d 	call	0x1ad6	; 0x1ad6 <_ZN7motor_t8positionERKi>
    2c88:	95 e0       	ldi	r25, 0x05	; 5
    2c8a:	90 93 38 03 	sts	0x0338, r25
	motor[5].position(170);
    2c8e:	fe 01       	movw	r30, r28
    2c90:	e3 5a       	subi	r30, 0xA3	; 163
    2c92:	ff 4f       	sbci	r31, 0xFF	; 255
    2c94:	8a ea       	ldi	r24, 0xAA	; 170
    2c96:	90 e0       	ldi	r25, 0x00	; 0
    2c98:	91 83       	std	Z+1, r25	; 0x01
    2c9a:	80 83       	st	Z, r24
    2c9c:	c8 01       	movw	r24, r16
    2c9e:	bf 01       	movw	r22, r30
    2ca0:	0e 94 6b 0d 	call	0x1ad6	; 0x1ad6 <_ZN7motor_t8positionERKi>
    2ca4:	96 e0       	ldi	r25, 0x06	; 6
    2ca6:	90 93 38 03 	sts	0x0338, r25
	motor[6].position(524);
    2caa:	fe 01       	movw	r30, r28
    2cac:	e1 5a       	subi	r30, 0xA1	; 161
    2cae:	ff 4f       	sbci	r31, 0xFF	; 255
    2cb0:	d1 82       	std	Z+1, r13	; 0x01
    2cb2:	c0 82       	st	Z, r12
    2cb4:	c8 01       	movw	r24, r16
    2cb6:	bf 01       	movw	r22, r30
    2cb8:	0e 94 6b 0d 	call	0x1ad6	; 0x1ad6 <_ZN7motor_t8positionERKi>
    2cbc:	87 e0       	ldi	r24, 0x07	; 7
    2cbe:	80 93 38 03 	sts	0x0338, r24
	motor[7].position(500);
    2cc2:	fe 01       	movw	r30, r28
    2cc4:	ef 59       	subi	r30, 0x9F	; 159
    2cc6:	ff 4f       	sbci	r31, 0xFF	; 255
    2cc8:	f1 82       	std	Z+1, r15	; 0x01
    2cca:	e0 82       	st	Z, r14
    2ccc:	c8 01       	movw	r24, r16
    2cce:	bf 01       	movw	r22, r30
    2cd0:	0e 94 6b 0d 	call	0x1ad6	; 0x1ad6 <_ZN7motor_t8positionERKi>
	syncWait(3000000);
    2cd4:	60 ec       	ldi	r22, 0xC0	; 192
    2cd6:	76 ec       	ldi	r23, 0xC6	; 198
    2cd8:	8d e2       	ldi	r24, 0x2D	; 45
    2cda:	90 e0       	ldi	r25, 0x00	; 0
    2cdc:	0e 94 e1 00 	call	0x1c2	; 0x1c2 <_Z8syncWaitm>
    2ce0:	91 e0       	ldi	r25, 0x01	; 1
    2ce2:	90 93 38 03 	sts	0x0338, r25
	//zvedne figurku 2
	motor[1].position(180);
    2ce6:	fe 01       	movw	r30, r28
    2ce8:	ed 59       	subi	r30, 0x9D	; 157
    2cea:	ff 4f       	sbci	r31, 0xFF	; 255
    2cec:	51 82       	std	Z+1, r5	; 0x01
    2cee:	40 82       	st	Z, r4
    2cf0:	c8 01       	movw	r24, r16
    2cf2:	bf 01       	movw	r22, r30
    2cf4:	0e 94 6b 0d 	call	0x1ad6	; 0x1ad6 <_ZN7motor_t8positionERKi>
    2cf8:	82 e0       	ldi	r24, 0x02	; 2
    2cfa:	80 93 38 03 	sts	0x0338, r24
	motor[2].position(420);
    2cfe:	fe 01       	movw	r30, r28
    2d00:	eb 59       	subi	r30, 0x9B	; 155
    2d02:	ff 4f       	sbci	r31, 0xFF	; 255
    2d04:	84 ea       	ldi	r24, 0xA4	; 164
    2d06:	91 e0       	ldi	r25, 0x01	; 1
    2d08:	91 83       	std	Z+1, r25	; 0x01
    2d0a:	80 83       	st	Z, r24
    2d0c:	c8 01       	movw	r24, r16
    2d0e:	bf 01       	movw	r22, r30
    2d10:	0e 94 6b 0d 	call	0x1ad6	; 0x1ad6 <_ZN7motor_t8positionERKi>
    2d14:	93 e0       	ldi	r25, 0x03	; 3
    2d16:	90 93 38 03 	sts	0x0338, r25
	motor[3].position(652);
    2d1a:	fe 01       	movw	r30, r28
    2d1c:	e9 59       	subi	r30, 0x99	; 153
    2d1e:	ff 4f       	sbci	r31, 0xFF	; 255
    2d20:	2c e8       	ldi	r18, 0x8C	; 140
    2d22:	a2 2e       	mov	r10, r18
    2d24:	22 e0       	ldi	r18, 0x02	; 2
    2d26:	b2 2e       	mov	r11, r18
    2d28:	b1 82       	std	Z+1, r11	; 0x01
    2d2a:	a0 82       	st	Z, r10
    2d2c:	c8 01       	movw	r24, r16
    2d2e:	bf 01       	movw	r22, r30
    2d30:	0e 94 6b 0d 	call	0x1ad6	; 0x1ad6 <_ZN7motor_t8positionERKi>
    2d34:	84 e0       	ldi	r24, 0x04	; 4
    2d36:	80 93 38 03 	sts	0x0338, r24
	motor[4].position(184);
    2d3a:	fe 01       	movw	r30, r28
    2d3c:	e7 59       	subi	r30, 0x97	; 151
    2d3e:	ff 4f       	sbci	r31, 0xFF	; 255
    2d40:	98 eb       	ldi	r25, 0xB8	; 184
    2d42:	c9 2e       	mov	r12, r25
    2d44:	d1 2c       	mov	r13, r1
    2d46:	d1 82       	std	Z+1, r13	; 0x01
    2d48:	c0 82       	st	Z, r12
    2d4a:	c8 01       	movw	r24, r16
    2d4c:	bf 01       	movw	r22, r30
    2d4e:	0e 94 6b 0d 	call	0x1ad6	; 0x1ad6 <_ZN7motor_t8positionERKi>
    2d52:	95 e0       	ldi	r25, 0x05	; 5
    2d54:	90 93 38 03 	sts	0x0338, r25
	motor[5].position(166);
    2d58:	fe 01       	movw	r30, r28
    2d5a:	e5 59       	subi	r30, 0x95	; 149
    2d5c:	ff 4f       	sbci	r31, 0xFF	; 255
    2d5e:	86 ea       	ldi	r24, 0xA6	; 166
    2d60:	e8 2e       	mov	r14, r24
    2d62:	f1 2c       	mov	r15, r1
    2d64:	f1 82       	std	Z+1, r15	; 0x01
    2d66:	e0 82       	st	Z, r14
    2d68:	c8 01       	movw	r24, r16
    2d6a:	bf 01       	movw	r22, r30
    2d6c:	0e 94 6b 0d 	call	0x1ad6	; 0x1ad6 <_ZN7motor_t8positionERKi>
    2d70:	86 e0       	ldi	r24, 0x06	; 6
    2d72:	80 93 38 03 	sts	0x0338, r24
	motor[6].position(530);
    2d76:	fe 01       	movw	r30, r28
    2d78:	e3 59       	subi	r30, 0x93	; 147
    2d7a:	ff 4f       	sbci	r31, 0xFF	; 255
    2d7c:	b2 e1       	ldi	r27, 0x12	; 18
    2d7e:	2b 2e       	mov	r2, r27
    2d80:	b2 e0       	ldi	r27, 0x02	; 2
    2d82:	3b 2e       	mov	r3, r27
    2d84:	31 82       	std	Z+1, r3	; 0x01
    2d86:	20 82       	st	Z, r2
    2d88:	c8 01       	movw	r24, r16
    2d8a:	bf 01       	movw	r22, r30
    2d8c:	0e 94 6b 0d 	call	0x1ad6	; 0x1ad6 <_ZN7motor_t8positionERKi>
    2d90:	97 e0       	ldi	r25, 0x07	; 7
    2d92:	90 93 38 03 	sts	0x0338, r25
	motor[7].position(494);
    2d96:	fe 01       	movw	r30, r28
    2d98:	e1 59       	subi	r30, 0x91	; 145
    2d9a:	ff 4f       	sbci	r31, 0xFF	; 255
    2d9c:	ae ee       	ldi	r26, 0xEE	; 238
    2d9e:	6a 2e       	mov	r6, r26
    2da0:	a1 e0       	ldi	r26, 0x01	; 1
    2da2:	7a 2e       	mov	r7, r26
    2da4:	71 82       	std	Z+1, r7	; 0x01
    2da6:	60 82       	st	Z, r6
    2da8:	c8 01       	movw	r24, r16
    2daa:	bf 01       	movw	r22, r30
    2dac:	0e 94 6b 0d 	call	0x1ad6	; 0x1ad6 <_ZN7motor_t8positionERKi>
	syncWait(2000000);
    2db0:	60 e8       	ldi	r22, 0x80	; 128
    2db2:	74 e8       	ldi	r23, 0x84	; 132
    2db4:	8e e1       	ldi	r24, 0x1E	; 30
    2db6:	90 e0       	ldi	r25, 0x00	; 0
    2db8:	0e 94 e1 00 	call	0x1c2	; 0x1c2 <_Z8syncWaitm>
    2dbc:	81 e0       	ldi	r24, 0x01	; 1
    2dbe:	80 93 38 03 	sts	0x0338, r24
	//druhy motor se zakloni
	motor[1].position(180);
    2dc2:	fe 01       	movw	r30, r28
    2dc4:	ef 58       	subi	r30, 0x8F	; 143
    2dc6:	ff 4f       	sbci	r31, 0xFF	; 255
    2dc8:	51 82       	std	Z+1, r5	; 0x01
    2dca:	40 82       	st	Z, r4
    2dcc:	c8 01       	movw	r24, r16
    2dce:	bf 01       	movw	r22, r30
    2dd0:	0e 94 6b 0d 	call	0x1ad6	; 0x1ad6 <_ZN7motor_t8positionERKi>
    2dd4:	92 e0       	ldi	r25, 0x02	; 2
    2dd6:	90 93 38 03 	sts	0x0338, r25
	motor[2].position(570);
    2dda:	fe 01       	movw	r30, r28
    2ddc:	ed 58       	subi	r30, 0x8D	; 141
    2dde:	ff 4f       	sbci	r31, 0xFF	; 255
    2de0:	8a e3       	ldi	r24, 0x3A	; 58
    2de2:	92 e0       	ldi	r25, 0x02	; 2
    2de4:	91 83       	std	Z+1, r25	; 0x01
    2de6:	80 83       	st	Z, r24
    2de8:	c8 01       	movw	r24, r16
    2dea:	bf 01       	movw	r22, r30
    2dec:	0e 94 6b 0d 	call	0x1ad6	; 0x1ad6 <_ZN7motor_t8positionERKi>
    2df0:	93 e0       	ldi	r25, 0x03	; 3
    2df2:	90 93 38 03 	sts	0x0338, r25
	motor[3].position(652);
    2df6:	fe 01       	movw	r30, r28
    2df8:	eb 58       	subi	r30, 0x8B	; 139
    2dfa:	ff 4f       	sbci	r31, 0xFF	; 255
    2dfc:	b1 82       	std	Z+1, r11	; 0x01
    2dfe:	a0 82       	st	Z, r10
    2e00:	c8 01       	movw	r24, r16
    2e02:	bf 01       	movw	r22, r30
    2e04:	0e 94 6b 0d 	call	0x1ad6	; 0x1ad6 <_ZN7motor_t8positionERKi>
    2e08:	84 e0       	ldi	r24, 0x04	; 4
    2e0a:	80 93 38 03 	sts	0x0338, r24
	motor[4].position(184);
    2e0e:	fe 01       	movw	r30, r28
    2e10:	e9 58       	subi	r30, 0x89	; 137
    2e12:	ff 4f       	sbci	r31, 0xFF	; 255
    2e14:	d1 82       	std	Z+1, r13	; 0x01
    2e16:	c0 82       	st	Z, r12
    2e18:	c8 01       	movw	r24, r16
    2e1a:	bf 01       	movw	r22, r30
    2e1c:	0e 94 6b 0d 	call	0x1ad6	; 0x1ad6 <_ZN7motor_t8positionERKi>
    2e20:	95 e0       	ldi	r25, 0x05	; 5
    2e22:	90 93 38 03 	sts	0x0338, r25
	motor[5].position(166);
    2e26:	fe 01       	movw	r30, r28
    2e28:	e7 58       	subi	r30, 0x87	; 135
    2e2a:	ff 4f       	sbci	r31, 0xFF	; 255
    2e2c:	f1 82       	std	Z+1, r15	; 0x01
    2e2e:	e0 82       	st	Z, r14
    2e30:	c8 01       	movw	r24, r16
    2e32:	bf 01       	movw	r22, r30
    2e34:	0e 94 6b 0d 	call	0x1ad6	; 0x1ad6 <_ZN7motor_t8positionERKi>
    2e38:	86 e0       	ldi	r24, 0x06	; 6
    2e3a:	80 93 38 03 	sts	0x0338, r24
	motor[6].position(530);
    2e3e:	fe 01       	movw	r30, r28
    2e40:	e5 58       	subi	r30, 0x85	; 133
    2e42:	ff 4f       	sbci	r31, 0xFF	; 255
    2e44:	31 82       	std	Z+1, r3	; 0x01
    2e46:	20 82       	st	Z, r2
    2e48:	c8 01       	movw	r24, r16
    2e4a:	bf 01       	movw	r22, r30
    2e4c:	0e 94 6b 0d 	call	0x1ad6	; 0x1ad6 <_ZN7motor_t8positionERKi>
    2e50:	97 e0       	ldi	r25, 0x07	; 7
    2e52:	90 93 38 03 	sts	0x0338, r25
	motor[7].position(494);
    2e56:	fe 01       	movw	r30, r28
    2e58:	e3 58       	subi	r30, 0x83	; 131
    2e5a:	ff 4f       	sbci	r31, 0xFF	; 255
    2e5c:	71 82       	std	Z+1, r7	; 0x01
    2e5e:	60 82       	st	Z, r6
    2e60:	c8 01       	movw	r24, r16
    2e62:	bf 01       	movw	r22, r30
    2e64:	0e 94 6b 0d 	call	0x1ad6	; 0x1ad6 <_ZN7motor_t8positionERKi>
	syncWait(2000000);
    2e68:	60 e8       	ldi	r22, 0x80	; 128
    2e6a:	74 e8       	ldi	r23, 0x84	; 132
    2e6c:	8e e1       	ldi	r24, 0x1E	; 30
    2e6e:	90 e0       	ldi	r25, 0x00	; 0
    2e70:	0e 94 e1 00 	call	0x1c2	; 0x1c2 <_Z8syncWaitm>
    2e74:	81 e0       	ldi	r24, 0x01	; 1
    2e76:	80 93 38 03 	sts	0x0338, r24
	//zacne pokladat figurku
	motor[1].position(168);
    2e7a:	fe 01       	movw	r30, r28
    2e7c:	e1 58       	subi	r30, 0x81	; 129
    2e7e:	ff 4f       	sbci	r31, 0xFF	; 255
    2e80:	78 ea       	ldi	r23, 0xA8	; 168
    2e82:	47 2e       	mov	r4, r23
    2e84:	51 2c       	mov	r5, r1
    2e86:	51 82       	std	Z+1, r5	; 0x01
    2e88:	40 82       	st	Z, r4
    2e8a:	c8 01       	movw	r24, r16
    2e8c:	bf 01       	movw	r22, r30
    2e8e:	0e 94 6b 0d 	call	0x1ad6	; 0x1ad6 <_ZN7motor_t8positionERKi>
    2e92:	92 e0       	ldi	r25, 0x02	; 2
    2e94:	90 93 38 03 	sts	0x0338, r25
	motor[2].position(538);
    2e98:	fe 01       	movw	r30, r28
    2e9a:	ef 57       	subi	r30, 0x7F	; 127
    2e9c:	ff 4f       	sbci	r31, 0xFF	; 255
    2e9e:	8a e1       	ldi	r24, 0x1A	; 26
    2ea0:	92 e0       	ldi	r25, 0x02	; 2
    2ea2:	91 83       	std	Z+1, r25	; 0x01
    2ea4:	80 83       	st	Z, r24
    2ea6:	c8 01       	movw	r24, r16
    2ea8:	bf 01       	movw	r22, r30
    2eaa:	0e 94 6b 0d 	call	0x1ad6	; 0x1ad6 <_ZN7motor_t8positionERKi>
    2eae:	83 e0       	ldi	r24, 0x03	; 3
    2eb0:	80 93 38 03 	sts	0x0338, r24
	motor[3].position(409);
    2eb4:	fe 01       	movw	r30, r28
    2eb6:	ed 57       	subi	r30, 0x7D	; 125
    2eb8:	ff 4f       	sbci	r31, 0xFF	; 255
    2eba:	89 e9       	ldi	r24, 0x99	; 153
    2ebc:	91 e0       	ldi	r25, 0x01	; 1
    2ebe:	91 83       	std	Z+1, r25	; 0x01
    2ec0:	80 83       	st	Z, r24
    2ec2:	c8 01       	movw	r24, r16
    2ec4:	bf 01       	movw	r22, r30
    2ec6:	0e 94 6b 0d 	call	0x1ad6	; 0x1ad6 <_ZN7motor_t8positionERKi>
    2eca:	94 e0       	ldi	r25, 0x04	; 4
    2ecc:	90 93 38 03 	sts	0x0338, r25
	motor[4].position(284);
    2ed0:	fe 01       	movw	r30, r28
    2ed2:	eb 57       	subi	r30, 0x7B	; 123
    2ed4:	ff 4f       	sbci	r31, 0xFF	; 255
    2ed6:	8c e1       	ldi	r24, 0x1C	; 28
    2ed8:	91 e0       	ldi	r25, 0x01	; 1
    2eda:	91 83       	std	Z+1, r25	; 0x01
    2edc:	80 83       	st	Z, r24
    2ede:	c8 01       	movw	r24, r16
    2ee0:	bf 01       	movw	r22, r30
    2ee2:	0e 94 6b 0d 	call	0x1ad6	; 0x1ad6 <_ZN7motor_t8positionERKi>
    2ee6:	85 e0       	ldi	r24, 0x05	; 5
    2ee8:	80 93 38 03 	sts	0x0338, r24
	motor[5].position(238);//238
    2eec:	fe 01       	movw	r30, r28
    2eee:	e9 57       	subi	r30, 0x79	; 121
    2ef0:	ff 4f       	sbci	r31, 0xFF	; 255
    2ef2:	8e ee       	ldi	r24, 0xEE	; 238
    2ef4:	90 e0       	ldi	r25, 0x00	; 0
    2ef6:	91 83       	std	Z+1, r25	; 0x01
    2ef8:	80 83       	st	Z, r24
    2efa:	c8 01       	movw	r24, r16
    2efc:	bf 01       	movw	r22, r30
    2efe:	0e 94 6b 0d 	call	0x1ad6	; 0x1ad6 <_ZN7motor_t8positionERKi>
    2f02:	96 e0       	ldi	r25, 0x06	; 6
    2f04:	90 93 38 03 	sts	0x0338, r25
	motor[6].position(530);
    2f08:	fe 01       	movw	r30, r28
    2f0a:	e7 57       	subi	r30, 0x77	; 119
    2f0c:	ff 4f       	sbci	r31, 0xFF	; 255
    2f0e:	31 82       	std	Z+1, r3	; 0x01
    2f10:	20 82       	st	Z, r2
    2f12:	c8 01       	movw	r24, r16
    2f14:	bf 01       	movw	r22, r30
    2f16:	0e 94 6b 0d 	call	0x1ad6	; 0x1ad6 <_ZN7motor_t8positionERKi>
    2f1a:	87 e0       	ldi	r24, 0x07	; 7
    2f1c:	80 93 38 03 	sts	0x0338, r24
	motor[7].position(494);
    2f20:	fe 01       	movw	r30, r28
    2f22:	e5 57       	subi	r30, 0x75	; 117
    2f24:	ff 4f       	sbci	r31, 0xFF	; 255
    2f26:	71 82       	std	Z+1, r7	; 0x01
    2f28:	60 82       	st	Z, r6
    2f2a:	c8 01       	movw	r24, r16
    2f2c:	bf 01       	movw	r22, r30
    2f2e:	0e 94 6b 0d 	call	0x1ad6	; 0x1ad6 <_ZN7motor_t8positionERKi>
	syncWait(1000000);
    2f32:	60 e4       	ldi	r22, 0x40	; 64
    2f34:	72 e4       	ldi	r23, 0x42	; 66
    2f36:	8f e0       	ldi	r24, 0x0F	; 15
    2f38:	90 e0       	ldi	r25, 0x00	; 0
    2f3a:	0e 94 e1 00 	call	0x1c2	; 0x1c2 <_Z8syncWaitm>
    2f3e:	91 e0       	ldi	r25, 0x01	; 1
    2f40:	90 93 38 03 	sts	0x0338, r25
	//zacne pokladat figurku
	motor[1].position(168);
    2f44:	fe 01       	movw	r30, r28
    2f46:	e3 57       	subi	r30, 0x73	; 115
    2f48:	ff 4f       	sbci	r31, 0xFF	; 255
    2f4a:	51 82       	std	Z+1, r5	; 0x01
    2f4c:	40 82       	st	Z, r4
    2f4e:	c8 01       	movw	r24, r16
    2f50:	bf 01       	movw	r22, r30
    2f52:	0e 94 6b 0d 	call	0x1ad6	; 0x1ad6 <_ZN7motor_t8positionERKi>
    2f56:	82 e0       	ldi	r24, 0x02	; 2
    2f58:	80 93 38 03 	sts	0x0338, r24
	motor[2].position(470);
    2f5c:	fe 01       	movw	r30, r28
    2f5e:	e1 57       	subi	r30, 0x71	; 113
    2f60:	ff 4f       	sbci	r31, 0xFF	; 255
    2f62:	66 ed       	ldi	r22, 0xD6	; 214
    2f64:	e6 2e       	mov	r14, r22
    2f66:	61 e0       	ldi	r22, 0x01	; 1
    2f68:	f6 2e       	mov	r15, r22
    2f6a:	f1 82       	std	Z+1, r15	; 0x01
    2f6c:	e0 82       	st	Z, r14
    2f6e:	c8 01       	movw	r24, r16
    2f70:	bf 01       	movw	r22, r30
    2f72:	0e 94 6b 0d 	call	0x1ad6	; 0x1ad6 <_ZN7motor_t8positionERKi>
    2f76:	93 e0       	ldi	r25, 0x03	; 3
    2f78:	90 93 38 03 	sts	0x0338, r25
	motor[3].position(440);//440
    2f7c:	fe 01       	movw	r30, r28
    2f7e:	ef 56       	subi	r30, 0x6F	; 111
    2f80:	ff 4f       	sbci	r31, 0xFF	; 255
    2f82:	88 eb       	ldi	r24, 0xB8	; 184
    2f84:	91 e0       	ldi	r25, 0x01	; 1
    2f86:	91 83       	std	Z+1, r25	; 0x01
    2f88:	80 83       	st	Z, r24
    2f8a:	c8 01       	movw	r24, r16
    2f8c:	bf 01       	movw	r22, r30
    2f8e:	0e 94 6b 0d 	call	0x1ad6	; 0x1ad6 <_ZN7motor_t8positionERKi>
    2f92:	84 e0       	ldi	r24, 0x04	; 4
    2f94:	80 93 38 03 	sts	0x0338, r24
	motor[4].position(372);
    2f98:	fe 01       	movw	r30, r28
    2f9a:	ed 56       	subi	r30, 0x6D	; 109
    2f9c:	ff 4f       	sbci	r31, 0xFF	; 255
    2f9e:	84 e7       	ldi	r24, 0x74	; 116
    2fa0:	91 e0       	ldi	r25, 0x01	; 1
    2fa2:	91 83       	std	Z+1, r25	; 0x01
    2fa4:	80 83       	st	Z, r24
    2fa6:	c8 01       	movw	r24, r16
    2fa8:	bf 01       	movw	r22, r30
    2faa:	0e 94 6b 0d 	call	0x1ad6	; 0x1ad6 <_ZN7motor_t8positionERKi>
    2fae:	95 e0       	ldi	r25, 0x05	; 5
    2fb0:	90 93 38 03 	sts	0x0338, r25
	motor[5].position(170);//170
    2fb4:	fe 01       	movw	r30, r28
    2fb6:	eb 56       	subi	r30, 0x6B	; 107
    2fb8:	ff 4f       	sbci	r31, 0xFF	; 255
    2fba:	8a ea       	ldi	r24, 0xAA	; 170
    2fbc:	90 e0       	ldi	r25, 0x00	; 0
    2fbe:	91 83       	std	Z+1, r25	; 0x01
    2fc0:	80 83       	st	Z, r24
    2fc2:	c8 01       	movw	r24, r16
    2fc4:	bf 01       	movw	r22, r30
    2fc6:	0e 94 6b 0d 	call	0x1ad6	; 0x1ad6 <_ZN7motor_t8positionERKi>
    2fca:	96 e0       	ldi	r25, 0x06	; 6
    2fcc:	90 93 38 03 	sts	0x0338, r25
	motor[6].position(530);
    2fd0:	fe 01       	movw	r30, r28
    2fd2:	e9 56       	subi	r30, 0x69	; 105
    2fd4:	ff 4f       	sbci	r31, 0xFF	; 255
    2fd6:	31 82       	std	Z+1, r3	; 0x01
    2fd8:	20 82       	st	Z, r2
    2fda:	c8 01       	movw	r24, r16
    2fdc:	bf 01       	movw	r22, r30
    2fde:	0e 94 6b 0d 	call	0x1ad6	; 0x1ad6 <_ZN7motor_t8positionERKi>
    2fe2:	87 e0       	ldi	r24, 0x07	; 7
    2fe4:	80 93 38 03 	sts	0x0338, r24
	motor[7].position(494);
    2fe8:	fe 01       	movw	r30, r28
    2fea:	e7 56       	subi	r30, 0x67	; 103
    2fec:	ff 4f       	sbci	r31, 0xFF	; 255
    2fee:	71 82       	std	Z+1, r7	; 0x01
    2ff0:	60 82       	st	Z, r6
    2ff2:	c8 01       	movw	r24, r16
    2ff4:	bf 01       	movw	r22, r30
    2ff6:	0e 94 6b 0d 	call	0x1ad6	; 0x1ad6 <_ZN7motor_t8positionERKi>
	syncWait(3000000);
    2ffa:	60 ec       	ldi	r22, 0xC0	; 192
    2ffc:	76 ec       	ldi	r23, 0xC6	; 198
    2ffe:	8d e2       	ldi	r24, 0x2D	; 45
    3000:	90 e0       	ldi	r25, 0x00	; 0
    3002:	0e 94 e1 00 	call	0x1c2	; 0x1c2 <_Z8syncWaitm>
    3006:	91 e0       	ldi	r25, 0x01	; 1
    3008:	90 93 38 03 	sts	0x0338, r25
	//zacne pokladat figurku
	motor[1].position(168);
    300c:	fe 01       	movw	r30, r28
    300e:	e5 56       	subi	r30, 0x65	; 101
    3010:	ff 4f       	sbci	r31, 0xFF	; 255
    3012:	51 82       	std	Z+1, r5	; 0x01
    3014:	40 82       	st	Z, r4
    3016:	c8 01       	movw	r24, r16
    3018:	bf 01       	movw	r22, r30
    301a:	0e 94 6b 0d 	call	0x1ad6	; 0x1ad6 <_ZN7motor_t8positionERKi>
    301e:	82 e0       	ldi	r24, 0x02	; 2
    3020:	80 93 38 03 	sts	0x0338, r24
	motor[2].position(470);
    3024:	fe 01       	movw	r30, r28
    3026:	e3 56       	subi	r30, 0x63	; 99
    3028:	ff 4f       	sbci	r31, 0xFF	; 255
    302a:	f1 82       	std	Z+1, r15	; 0x01
    302c:	e0 82       	st	Z, r14
    302e:	c8 01       	movw	r24, r16
    3030:	bf 01       	movw	r22, r30
    3032:	0e 94 6b 0d 	call	0x1ad6	; 0x1ad6 <_ZN7motor_t8positionERKi>
    3036:	93 e0       	ldi	r25, 0x03	; 3
    3038:	90 93 38 03 	sts	0x0338, r25
	motor[3].position(453);//453
    303c:	fe 01       	movw	r30, r28
    303e:	e1 56       	subi	r30, 0x61	; 97
    3040:	ff 4f       	sbci	r31, 0xFF	; 255
    3042:	55 ec       	ldi	r21, 0xC5	; 197
    3044:	85 2e       	mov	r8, r21
    3046:	51 e0       	ldi	r21, 0x01	; 1
    3048:	95 2e       	mov	r9, r21
    304a:	91 82       	std	Z+1, r9	; 0x01
    304c:	80 82       	st	Z, r8
    304e:	c8 01       	movw	r24, r16
    3050:	bf 01       	movw	r22, r30
    3052:	0e 94 6b 0d 	call	0x1ad6	; 0x1ad6 <_ZN7motor_t8positionERKi>
    3056:	84 e0       	ldi	r24, 0x04	; 4
    3058:	80 93 38 03 	sts	0x0338, r24
	motor[4].position(320);
    305c:	fe 01       	movw	r30, r28
    305e:	ef 55       	subi	r30, 0x5F	; 95
    3060:	ff 4f       	sbci	r31, 0xFF	; 255
    3062:	40 e4       	ldi	r20, 0x40	; 64
    3064:	a4 2e       	mov	r10, r20
    3066:	41 e0       	ldi	r20, 0x01	; 1
    3068:	b4 2e       	mov	r11, r20
    306a:	b1 82       	std	Z+1, r11	; 0x01
    306c:	a0 82       	st	Z, r10
    306e:	c8 01       	movw	r24, r16
    3070:	bf 01       	movw	r22, r30
    3072:	0e 94 6b 0d 	call	0x1ad6	; 0x1ad6 <_ZN7motor_t8positionERKi>
    3076:	95 e0       	ldi	r25, 0x05	; 5
    3078:	90 93 38 03 	sts	0x0338, r25
	motor[5].position(245);//255 puvodni pred upravou
    307c:	fe 01       	movw	r30, r28
    307e:	ed 55       	subi	r30, 0x5D	; 93
    3080:	ff 4f       	sbci	r31, 0xFF	; 255
    3082:	35 ef       	ldi	r19, 0xF5	; 245
    3084:	c3 2e       	mov	r12, r19
    3086:	d1 2c       	mov	r13, r1
    3088:	d1 82       	std	Z+1, r13	; 0x01
    308a:	c0 82       	st	Z, r12
    308c:	c8 01       	movw	r24, r16
    308e:	bf 01       	movw	r22, r30
    3090:	0e 94 6b 0d 	call	0x1ad6	; 0x1ad6 <_ZN7motor_t8positionERKi>
    3094:	86 e0       	ldi	r24, 0x06	; 6
    3096:	80 93 38 03 	sts	0x0338, r24
	motor[6].position(530);
    309a:	fe 01       	movw	r30, r28
    309c:	eb 55       	subi	r30, 0x5B	; 91
    309e:	ff 4f       	sbci	r31, 0xFF	; 255
    30a0:	31 82       	std	Z+1, r3	; 0x01
    30a2:	20 82       	st	Z, r2
    30a4:	c8 01       	movw	r24, r16
    30a6:	bf 01       	movw	r22, r30
    30a8:	0e 94 6b 0d 	call	0x1ad6	; 0x1ad6 <_ZN7motor_t8positionERKi>
    30ac:	97 e0       	ldi	r25, 0x07	; 7
    30ae:	90 93 38 03 	sts	0x0338, r25
	motor[7].position(494);
    30b2:	fe 01       	movw	r30, r28
    30b4:	e9 55       	subi	r30, 0x59	; 89
    30b6:	ff 4f       	sbci	r31, 0xFF	; 255
    30b8:	71 82       	std	Z+1, r7	; 0x01
    30ba:	60 82       	st	Z, r6
    30bc:	c8 01       	movw	r24, r16
    30be:	bf 01       	movw	r22, r30
    30c0:	0e 94 6b 0d 	call	0x1ad6	; 0x1ad6 <_ZN7motor_t8positionERKi>
	syncWait(3000000);
    30c4:	60 ec       	ldi	r22, 0xC0	; 192
    30c6:	76 ec       	ldi	r23, 0xC6	; 198
    30c8:	8d e2       	ldi	r24, 0x2D	; 45
    30ca:	90 e0       	ldi	r25, 0x00	; 0
    30cc:	0e 94 e1 00 	call	0x1c2	; 0x1c2 <_Z8syncWaitm>
    30d0:	81 e0       	ldi	r24, 0x01	; 1
    30d2:	80 93 38 03 	sts	0x0338, r24
	//otevre celisti
	motor[1].position(168);
    30d6:	fe 01       	movw	r30, r28
    30d8:	e7 55       	subi	r30, 0x57	; 87
    30da:	ff 4f       	sbci	r31, 0xFF	; 255
    30dc:	51 82       	std	Z+1, r5	; 0x01
    30de:	40 82       	st	Z, r4
    30e0:	c8 01       	movw	r24, r16
    30e2:	bf 01       	movw	r22, r30
    30e4:	0e 94 6b 0d 	call	0x1ad6	; 0x1ad6 <_ZN7motor_t8positionERKi>
    30e8:	92 e0       	ldi	r25, 0x02	; 2
    30ea:	90 93 38 03 	sts	0x0338, r25
	motor[2].position(470);
    30ee:	fe 01       	movw	r30, r28
    30f0:	e5 55       	subi	r30, 0x55	; 85
    30f2:	ff 4f       	sbci	r31, 0xFF	; 255
    30f4:	f1 82       	std	Z+1, r15	; 0x01
    30f6:	e0 82       	st	Z, r14
    30f8:	c8 01       	movw	r24, r16
    30fa:	bf 01       	movw	r22, r30
    30fc:	0e 94 6b 0d 	call	0x1ad6	; 0x1ad6 <_ZN7motor_t8positionERKi>
    3100:	83 e0       	ldi	r24, 0x03	; 3
    3102:	80 93 38 03 	sts	0x0338, r24
	motor[3].position(453);
    3106:	fe 01       	movw	r30, r28
    3108:	e3 55       	subi	r30, 0x53	; 83
    310a:	ff 4f       	sbci	r31, 0xFF	; 255
    310c:	91 82       	std	Z+1, r9	; 0x01
    310e:	80 82       	st	Z, r8
    3110:	c8 01       	movw	r24, r16
    3112:	bf 01       	movw	r22, r30
    3114:	0e 94 6b 0d 	call	0x1ad6	; 0x1ad6 <_ZN7motor_t8positionERKi>
    3118:	94 e0       	ldi	r25, 0x04	; 4
    311a:	90 93 38 03 	sts	0x0338, r25
	motor[4].position(320);
    311e:	fe 01       	movw	r30, r28
    3120:	e1 55       	subi	r30, 0x51	; 81
    3122:	ff 4f       	sbci	r31, 0xFF	; 255
    3124:	b1 82       	std	Z+1, r11	; 0x01
    3126:	a0 82       	st	Z, r10
    3128:	c8 01       	movw	r24, r16
    312a:	bf 01       	movw	r22, r30
    312c:	0e 94 6b 0d 	call	0x1ad6	; 0x1ad6 <_ZN7motor_t8positionERKi>
    3130:	85 e0       	ldi	r24, 0x05	; 5
    3132:	80 93 38 03 	sts	0x0338, r24
	motor[5].position(245);//255
    3136:	fe 01       	movw	r30, r28
    3138:	ef 54       	subi	r30, 0x4F	; 79
    313a:	ff 4f       	sbci	r31, 0xFF	; 255
    313c:	d1 82       	std	Z+1, r13	; 0x01
    313e:	c0 82       	st	Z, r12
    3140:	c8 01       	movw	r24, r16
    3142:	bf 01       	movw	r22, r30
    3144:	0e 94 6b 0d 	call	0x1ad6	; 0x1ad6 <_ZN7motor_t8positionERKi>
    3148:	96 e0       	ldi	r25, 0x06	; 6
    314a:	90 93 38 03 	sts	0x0338, r25
	motor[6].position(496);
    314e:	fe 01       	movw	r30, r28
    3150:	ed 54       	subi	r30, 0x4D	; 77
    3152:	ff 4f       	sbci	r31, 0xFF	; 255
    3154:	20 ef       	ldi	r18, 0xF0	; 240
    3156:	c2 2e       	mov	r12, r18
    3158:	21 e0       	ldi	r18, 0x01	; 1
    315a:	d2 2e       	mov	r13, r18
    315c:	d1 82       	std	Z+1, r13	; 0x01
    315e:	c0 82       	st	Z, r12
    3160:	c8 01       	movw	r24, r16
    3162:	bf 01       	movw	r22, r30
    3164:	0e 94 6b 0d 	call	0x1ad6	; 0x1ad6 <_ZN7motor_t8positionERKi>
    3168:	87 e0       	ldi	r24, 0x07	; 7
    316a:	80 93 38 03 	sts	0x0338, r24
	motor[7].position(534);
    316e:	fe 01       	movw	r30, r28
    3170:	eb 54       	subi	r30, 0x4B	; 75
    3172:	ff 4f       	sbci	r31, 0xFF	; 255
    3174:	96 e1       	ldi	r25, 0x16	; 22
    3176:	e9 2e       	mov	r14, r25
    3178:	92 e0       	ldi	r25, 0x02	; 2
    317a:	f9 2e       	mov	r15, r25
    317c:	f1 82       	std	Z+1, r15	; 0x01
    317e:	e0 82       	st	Z, r14
    3180:	c8 01       	movw	r24, r16
    3182:	bf 01       	movw	r22, r30
    3184:	0e 94 6b 0d 	call	0x1ad6	; 0x1ad6 <_ZN7motor_t8positionERKi>
	syncWait(3000000);
    3188:	60 ec       	ldi	r22, 0xC0	; 192
    318a:	76 ec       	ldi	r23, 0xC6	; 198
    318c:	8d e2       	ldi	r24, 0x2D	; 45
    318e:	90 e0       	ldi	r25, 0x00	; 0
    3190:	0e 94 e1 00 	call	0x1c2	; 0x1c2 <_Z8syncWaitm>
    3194:	91 e0       	ldi	r25, 0x01	; 1
    3196:	90 93 38 03 	sts	0x0338, r25
	//narovna rameno
	motor[1].position(168);
    319a:	fe 01       	movw	r30, r28
    319c:	e9 54       	subi	r30, 0x49	; 73
    319e:	ff 4f       	sbci	r31, 0xFF	; 255
    31a0:	51 82       	std	Z+1, r5	; 0x01
    31a2:	40 82       	st	Z, r4
    31a4:	c8 01       	movw	r24, r16
    31a6:	bf 01       	movw	r22, r30
    31a8:	0e 94 6b 0d 	call	0x1ad6	; 0x1ad6 <_ZN7motor_t8positionERKi>
    31ac:	82 e0       	ldi	r24, 0x02	; 2
    31ae:	80 93 38 03 	sts	0x0338, r24
	motor[2].position(570);
    31b2:	fe 01       	movw	r30, r28
    31b4:	e7 54       	subi	r30, 0x47	; 71
    31b6:	ff 4f       	sbci	r31, 0xFF	; 255
    31b8:	8a e3       	ldi	r24, 0x3A	; 58
    31ba:	92 e0       	ldi	r25, 0x02	; 2
    31bc:	91 83       	std	Z+1, r25	; 0x01
    31be:	80 83       	st	Z, r24
    31c0:	c8 01       	movw	r24, r16
    31c2:	bf 01       	movw	r22, r30
    31c4:	0e 94 6b 0d 	call	0x1ad6	; 0x1ad6 <_ZN7motor_t8positionERKi>
    31c8:	93 e0       	ldi	r25, 0x03	; 3
    31ca:	90 93 38 03 	sts	0x0338, r25
	motor[3].position(433);
    31ce:	fe 01       	movw	r30, r28
    31d0:	e5 54       	subi	r30, 0x45	; 69
    31d2:	ff 4f       	sbci	r31, 0xFF	; 255
    31d4:	81 eb       	ldi	r24, 0xB1	; 177
    31d6:	91 e0       	ldi	r25, 0x01	; 1
    31d8:	91 83       	std	Z+1, r25	; 0x01
    31da:	80 83       	st	Z, r24
    31dc:	c8 01       	movw	r24, r16
    31de:	bf 01       	movw	r22, r30
    31e0:	0e 94 6b 0d 	call	0x1ad6	; 0x1ad6 <_ZN7motor_t8positionERKi>
    31e4:	84 e0       	ldi	r24, 0x04	; 4
    31e6:	80 93 38 03 	sts	0x0338, r24
	motor[4].position(314);
    31ea:	fe 01       	movw	r30, r28
    31ec:	e3 54       	subi	r30, 0x43	; 67
    31ee:	ff 4f       	sbci	r31, 0xFF	; 255
    31f0:	8a e3       	ldi	r24, 0x3A	; 58
    31f2:	91 e0       	ldi	r25, 0x01	; 1
    31f4:	91 83       	std	Z+1, r25	; 0x01
    31f6:	80 83       	st	Z, r24
    31f8:	c8 01       	movw	r24, r16
    31fa:	bf 01       	movw	r22, r30
    31fc:	0e 94 6b 0d 	call	0x1ad6	; 0x1ad6 <_ZN7motor_t8positionERKi>
    3200:	95 e0       	ldi	r25, 0x05	; 5
    3202:	90 93 38 03 	sts	0x0338, r25
	motor[5].position(257);
    3206:	fe 01       	movw	r30, r28
    3208:	e1 54       	subi	r30, 0x41	; 65
    320a:	ff 4f       	sbci	r31, 0xFF	; 255
    320c:	81 e0       	ldi	r24, 0x01	; 1
    320e:	91 e0       	ldi	r25, 0x01	; 1
    3210:	91 83       	std	Z+1, r25	; 0x01
    3212:	80 83       	st	Z, r24
    3214:	c8 01       	movw	r24, r16
    3216:	bf 01       	movw	r22, r30
    3218:	0e 94 6b 0d 	call	0x1ad6	; 0x1ad6 <_ZN7motor_t8positionERKi>
    321c:	86 e0       	ldi	r24, 0x06	; 6
    321e:	80 93 38 03 	sts	0x0338, r24
	motor[6].position(496);
    3222:	fe 01       	movw	r30, r28
    3224:	ef 53       	subi	r30, 0x3F	; 63
    3226:	ff 4f       	sbci	r31, 0xFF	; 255
    3228:	d1 82       	std	Z+1, r13	; 0x01
    322a:	c0 82       	st	Z, r12
    322c:	c8 01       	movw	r24, r16
    322e:	bf 01       	movw	r22, r30
    3230:	0e 94 6b 0d 	call	0x1ad6	; 0x1ad6 <_ZN7motor_t8positionERKi>
    3234:	97 e0       	ldi	r25, 0x07	; 7
    3236:	90 93 38 03 	sts	0x0338, r25
	motor[7].position(534);
    323a:	fe 01       	movw	r30, r28
    323c:	ed 53       	subi	r30, 0x3D	; 61
    323e:	ff 4f       	sbci	r31, 0xFF	; 255
    3240:	f1 82       	std	Z+1, r15	; 0x01
    3242:	e0 82       	st	Z, r14
    3244:	c8 01       	movw	r24, r16
    3246:	bf 01       	movw	r22, r30
    3248:	0e 94 6b 0d 	call	0x1ad6	; 0x1ad6 <_ZN7motor_t8positionERKi>
	syncWait(2000000);
    324c:	60 e8       	ldi	r22, 0x80	; 128
    324e:	74 e8       	ldi	r23, 0x84	; 132
    3250:	8e e1       	ldi	r24, 0x1E	; 30
    3252:	90 e0       	ldi	r25, 0x00	; 0
    3254:	0e 94 e1 00 	call	0x1c2	; 0x1c2 <_Z8syncWaitm>
}
    3258:	cc 53       	subi	r28, 0x3C	; 60
    325a:	df 4f       	sbci	r29, 0xFF	; 255
    325c:	0f b6       	in	r0, 0x3f	; 63
    325e:	f8 94       	cli
    3260:	de bf       	out	0x3e, r29	; 62
    3262:	0f be       	out	0x3f, r0	; 63
    3264:	cd bf       	out	0x3d, r28	; 61
    3266:	cf 91       	pop	r28
    3268:	df 91       	pop	r29
    326a:	1f 91       	pop	r17
    326c:	0f 91       	pop	r16
    326e:	ff 90       	pop	r15
    3270:	ef 90       	pop	r14
    3272:	df 90       	pop	r13
    3274:	cf 90       	pop	r12
    3276:	bf 90       	pop	r11
    3278:	af 90       	pop	r10
    327a:	9f 90       	pop	r9
    327c:	8f 90       	pop	r8
    327e:	7f 90       	pop	r7
    3280:	6f 90       	pop	r6
    3282:	5f 90       	pop	r5
    3284:	4f 90       	pop	r4
    3286:	3f 90       	pop	r3
    3288:	2f 90       	pop	r2
    328a:	08 95       	ret

0000328c <_Z23chlivek_clovek_pozice40v>:
	motor[6].position(486);
	motor[7].position(548);
	syncWait(4000000);

}
void chlivek_clovek_pozice40()
    328c:	2f 92       	push	r2
    328e:	3f 92       	push	r3
    3290:	4f 92       	push	r4
    3292:	5f 92       	push	r5
    3294:	6f 92       	push	r6
    3296:	7f 92       	push	r7
    3298:	8f 92       	push	r8
    329a:	9f 92       	push	r9
    329c:	af 92       	push	r10
    329e:	bf 92       	push	r11
    32a0:	cf 92       	push	r12
    32a2:	df 92       	push	r13
    32a4:	ef 92       	push	r14
    32a6:	ff 92       	push	r15
    32a8:	0f 93       	push	r16
    32aa:	1f 93       	push	r17
    32ac:	df 93       	push	r29
    32ae:	cf 93       	push	r28
    32b0:	cd b7       	in	r28, 0x3d	; 61
    32b2:	de b7       	in	r29, 0x3e	; 62
    32b4:	c6 54       	subi	r28, 0x46	; 70
    32b6:	d0 40       	sbci	r29, 0x00	; 0
    32b8:	0f b6       	in	r0, 0x3f	; 63
    32ba:	f8 94       	cli
    32bc:	de bf       	out	0x3e, r29	; 62
    32be:	0f be       	out	0x3f, r0	; 63
    32c0:	cd bf       	out	0x3d, r28	; 61
    32c2:	08 e3       	ldi	r16, 0x38	; 56
    32c4:	13 e0       	ldi	r17, 0x03	; 3
    32c6:	81 e0       	ldi	r24, 0x01	; 1
    32c8:	80 93 38 03 	sts	0x0338, r24
{
	//nakloni se s figurkou nad chlivek
	motor[1].position(788);
    32cc:	94 e1       	ldi	r25, 0x14	; 20
    32ce:	49 2e       	mov	r4, r25
    32d0:	93 e0       	ldi	r25, 0x03	; 3
    32d2:	59 2e       	mov	r5, r25
    32d4:	5a 82       	std	Y+2, r5	; 0x02
    32d6:	49 82       	std	Y+1, r4	; 0x01
    32d8:	c8 01       	movw	r24, r16
    32da:	be 01       	movw	r22, r28
    32dc:	6f 5f       	subi	r22, 0xFF	; 255
    32de:	7f 4f       	sbci	r23, 0xFF	; 255
    32e0:	0e 94 6b 0d 	call	0x1ad6	; 0x1ad6 <_ZN7motor_t8positionERKi>
    32e4:	82 e0       	ldi	r24, 0x02	; 2
    32e6:	80 93 38 03 	sts	0x0338, r24
	motor[2].position(521);
    32ea:	89 e0       	ldi	r24, 0x09	; 9
    32ec:	92 e0       	ldi	r25, 0x02	; 2
    32ee:	9c 83       	std	Y+4, r25	; 0x04
    32f0:	8b 83       	std	Y+3, r24	; 0x03
    32f2:	c8 01       	movw	r24, r16
    32f4:	be 01       	movw	r22, r28
    32f6:	6d 5f       	subi	r22, 0xFD	; 253
    32f8:	7f 4f       	sbci	r23, 0xFF	; 255
    32fa:	0e 94 6b 0d 	call	0x1ad6	; 0x1ad6 <_ZN7motor_t8positionERKi>
    32fe:	83 e0       	ldi	r24, 0x03	; 3
    3300:	80 93 38 03 	sts	0x0338, r24
	motor[3].position(459);
    3304:	8b ec       	ldi	r24, 0xCB	; 203
    3306:	91 e0       	ldi	r25, 0x01	; 1
    3308:	9e 83       	std	Y+6, r25	; 0x06
    330a:	8d 83       	std	Y+5, r24	; 0x05
    330c:	c8 01       	movw	r24, r16
    330e:	be 01       	movw	r22, r28
    3310:	6b 5f       	subi	r22, 0xFB	; 251
    3312:	7f 4f       	sbci	r23, 0xFF	; 255
    3314:	0e 94 6b 0d 	call	0x1ad6	; 0x1ad6 <_ZN7motor_t8positionERKi>
    3318:	84 e0       	ldi	r24, 0x04	; 4
    331a:	28 2e       	mov	r2, r24
    331c:	20 92 38 03 	sts	0x0338, r2
	motor[4].position(343);
    3320:	87 e5       	ldi	r24, 0x57	; 87
    3322:	91 e0       	ldi	r25, 0x01	; 1
    3324:	98 87       	std	Y+8, r25	; 0x08
    3326:	8f 83       	std	Y+7, r24	; 0x07
    3328:	c8 01       	movw	r24, r16
    332a:	be 01       	movw	r22, r28
    332c:	69 5f       	subi	r22, 0xF9	; 249
    332e:	7f 4f       	sbci	r23, 0xFF	; 255
    3330:	0e 94 6b 0d 	call	0x1ad6	; 0x1ad6 <_ZN7motor_t8positionERKi>
    3334:	85 e0       	ldi	r24, 0x05	; 5
    3336:	80 93 38 03 	sts	0x0338, r24
	motor[5].position(287);
    333a:	8f e1       	ldi	r24, 0x1F	; 31
    333c:	91 e0       	ldi	r25, 0x01	; 1
    333e:	9a 87       	std	Y+10, r25	; 0x0a
    3340:	89 87       	std	Y+9, r24	; 0x09
    3342:	c8 01       	movw	r24, r16
    3344:	be 01       	movw	r22, r28
    3346:	67 5f       	subi	r22, 0xF7	; 247
    3348:	7f 4f       	sbci	r23, 0xFF	; 255
    334a:	0e 94 6b 0d 	call	0x1ad6	; 0x1ad6 <_ZN7motor_t8positionERKi>
    334e:	86 e0       	ldi	r24, 0x06	; 6
    3350:	80 93 38 03 	sts	0x0338, r24
	motor[6].position(512);
    3354:	e1 2c       	mov	r14, r1
    3356:	b2 e0       	ldi	r27, 0x02	; 2
    3358:	fb 2e       	mov	r15, r27
    335a:	fc 86       	std	Y+12, r15	; 0x0c
    335c:	eb 86       	std	Y+11, r14	; 0x0b
    335e:	c8 01       	movw	r24, r16
    3360:	be 01       	movw	r22, r28
    3362:	65 5f       	subi	r22, 0xF5	; 245
    3364:	7f 4f       	sbci	r23, 0xFF	; 255
    3366:	0e 94 6b 0d 	call	0x1ad6	; 0x1ad6 <_ZN7motor_t8positionERKi>
    336a:	a7 e0       	ldi	r26, 0x07	; 7
    336c:	3a 2e       	mov	r3, r26
    336e:	30 92 38 03 	sts	0x0338, r3
	motor[7].position(512);
    3372:	fe 86       	std	Y+14, r15	; 0x0e
    3374:	ed 86       	std	Y+13, r14	; 0x0d
    3376:	c8 01       	movw	r24, r16
    3378:	be 01       	movw	r22, r28
    337a:	63 5f       	subi	r22, 0xF3	; 243
    337c:	7f 4f       	sbci	r23, 0xFF	; 255
    337e:	0e 94 6b 0d 	call	0x1ad6	; 0x1ad6 <_ZN7motor_t8positionERKi>
	syncWait(7000000);
    3382:	60 ec       	ldi	r22, 0xC0	; 192
    3384:	7f ec       	ldi	r23, 0xCF	; 207
    3386:	8a e6       	ldi	r24, 0x6A	; 106
    3388:	90 e0       	ldi	r25, 0x00	; 0
    338a:	0e 94 e1 00 	call	0x1c2	; 0x1c2 <_Z8syncWaitm>
    338e:	81 e0       	ldi	r24, 0x01	; 1
    3390:	80 93 38 03 	sts	0x0338, r24
	//zacne pokladat figurku
	motor[1].position(788);
    3394:	58 8a       	std	Y+16, r5	; 0x10
    3396:	4f 86       	std	Y+15, r4	; 0x0f
    3398:	c8 01       	movw	r24, r16
    339a:	be 01       	movw	r22, r28
    339c:	61 5f       	subi	r22, 0xF1	; 241
    339e:	7f 4f       	sbci	r23, 0xFF	; 255
    33a0:	0e 94 6b 0d 	call	0x1ad6	; 0x1ad6 <_ZN7motor_t8positionERKi>
    33a4:	82 e0       	ldi	r24, 0x02	; 2
    33a6:	80 93 38 03 	sts	0x0338, r24
	motor[2].position(500);
    33aa:	84 ef       	ldi	r24, 0xF4	; 244
    33ac:	91 e0       	ldi	r25, 0x01	; 1
    33ae:	9a 8b       	std	Y+18, r25	; 0x12
    33b0:	89 8b       	std	Y+17, r24	; 0x11
    33b2:	c8 01       	movw	r24, r16
    33b4:	be 01       	movw	r22, r28
    33b6:	6f 5e       	subi	r22, 0xEF	; 239
    33b8:	7f 4f       	sbci	r23, 0xFF	; 255
    33ba:	0e 94 6b 0d 	call	0x1ad6	; 0x1ad6 <_ZN7motor_t8positionERKi>
    33be:	83 e0       	ldi	r24, 0x03	; 3
    33c0:	80 93 38 03 	sts	0x0338, r24
	motor[3].position(440);
    33c4:	f8 eb       	ldi	r31, 0xB8	; 184
    33c6:	af 2e       	mov	r10, r31
    33c8:	f1 e0       	ldi	r31, 0x01	; 1
    33ca:	bf 2e       	mov	r11, r31
    33cc:	bc 8a       	std	Y+20, r11	; 0x14
    33ce:	ab 8a       	std	Y+19, r10	; 0x13
    33d0:	c8 01       	movw	r24, r16
    33d2:	be 01       	movw	r22, r28
    33d4:	6d 5e       	subi	r22, 0xED	; 237
    33d6:	7f 4f       	sbci	r23, 0xFF	; 255
    33d8:	0e 94 6b 0d 	call	0x1ad6	; 0x1ad6 <_ZN7motor_t8positionERKi>
    33dc:	20 92 38 03 	sts	0x0338, r2
	motor[4].position(457);
    33e0:	e9 ec       	ldi	r30, 0xC9	; 201
    33e2:	ce 2e       	mov	r12, r30
    33e4:	e1 e0       	ldi	r30, 0x01	; 1
    33e6:	de 2e       	mov	r13, r30
    33e8:	de 8a       	std	Y+22, r13	; 0x16
    33ea:	cd 8a       	std	Y+21, r12	; 0x15
    33ec:	c8 01       	movw	r24, r16
    33ee:	be 01       	movw	r22, r28
    33f0:	6b 5e       	subi	r22, 0xEB	; 235
    33f2:	7f 4f       	sbci	r23, 0xFF	; 255
    33f4:	0e 94 6b 0d 	call	0x1ad6	; 0x1ad6 <_ZN7motor_t8positionERKi>
    33f8:	85 e0       	ldi	r24, 0x05	; 5
    33fa:	80 93 38 03 	sts	0x0338, r24
	motor[5].position(180);
    33fe:	84 eb       	ldi	r24, 0xB4	; 180
    3400:	90 e0       	ldi	r25, 0x00	; 0
    3402:	98 8f       	std	Y+24, r25	; 0x18
    3404:	8f 8b       	std	Y+23, r24	; 0x17
    3406:	c8 01       	movw	r24, r16
    3408:	be 01       	movw	r22, r28
    340a:	69 5e       	subi	r22, 0xE9	; 233
    340c:	7f 4f       	sbci	r23, 0xFF	; 255
    340e:	0e 94 6b 0d 	call	0x1ad6	; 0x1ad6 <_ZN7motor_t8positionERKi>
    3412:	86 e0       	ldi	r24, 0x06	; 6
    3414:	80 93 38 03 	sts	0x0338, r24
	motor[6].position(512);
    3418:	fa 8e       	std	Y+26, r15	; 0x1a
    341a:	e9 8e       	std	Y+25, r14	; 0x19
    341c:	c8 01       	movw	r24, r16
    341e:	be 01       	movw	r22, r28
    3420:	67 5e       	subi	r22, 0xE7	; 231
    3422:	7f 4f       	sbci	r23, 0xFF	; 255
    3424:	0e 94 6b 0d 	call	0x1ad6	; 0x1ad6 <_ZN7motor_t8positionERKi>
    3428:	30 92 38 03 	sts	0x0338, r3
	motor[7].position(512);
    342c:	fc 8e       	std	Y+28, r15	; 0x1c
    342e:	eb 8e       	std	Y+27, r14	; 0x1b
    3430:	c8 01       	movw	r24, r16
    3432:	be 01       	movw	r22, r28
    3434:	65 5e       	subi	r22, 0xE5	; 229
    3436:	7f 4f       	sbci	r23, 0xFF	; 255
    3438:	0e 94 6b 0d 	call	0x1ad6	; 0x1ad6 <_ZN7motor_t8positionERKi>
	syncWait(1000000);
    343c:	60 e4       	ldi	r22, 0x40	; 64
    343e:	72 e4       	ldi	r23, 0x42	; 66
    3440:	8f e0       	ldi	r24, 0x0F	; 15
    3442:	90 e0       	ldi	r25, 0x00	; 0
    3444:	0e 94 e1 00 	call	0x1c2	; 0x1c2 <_Z8syncWaitm>
    3448:	81 e0       	ldi	r24, 0x01	; 1
    344a:	80 93 38 03 	sts	0x0338, r24
	//polozi figurku
	motor[1].position(788);
    344e:	5e 8e       	std	Y+30, r5	; 0x1e
    3450:	4d 8e       	std	Y+29, r4	; 0x1d
    3452:	c8 01       	movw	r24, r16
    3454:	be 01       	movw	r22, r28
    3456:	63 5e       	subi	r22, 0xE3	; 227
    3458:	7f 4f       	sbci	r23, 0xFF	; 255
    345a:	0e 94 6b 0d 	call	0x1ad6	; 0x1ad6 <_ZN7motor_t8positionERKi>
    345e:	82 e0       	ldi	r24, 0x02	; 2
    3460:	80 93 38 03 	sts	0x0338, r24
	motor[2].position(450);
    3464:	72 ec       	ldi	r23, 0xC2	; 194
    3466:	67 2e       	mov	r6, r23
    3468:	71 e0       	ldi	r23, 0x01	; 1
    346a:	77 2e       	mov	r7, r23
    346c:	78 a2       	std	Y+32, r7	; 0x20
    346e:	6f 8e       	std	Y+31, r6	; 0x1f
    3470:	c8 01       	movw	r24, r16
    3472:	be 01       	movw	r22, r28
    3474:	61 5e       	subi	r22, 0xE1	; 225
    3476:	7f 4f       	sbci	r23, 0xFF	; 255
    3478:	0e 94 6b 0d 	call	0x1ad6	; 0x1ad6 <_ZN7motor_t8positionERKi>
    347c:	83 e0       	ldi	r24, 0x03	; 3
    347e:	80 93 38 03 	sts	0x0338, r24
	motor[3].position(440);
    3482:	ba a2       	std	Y+34, r11	; 0x22
    3484:	a9 a2       	std	Y+33, r10	; 0x21
    3486:	c8 01       	movw	r24, r16
    3488:	be 01       	movw	r22, r28
    348a:	6f 5d       	subi	r22, 0xDF	; 223
    348c:	7f 4f       	sbci	r23, 0xFF	; 255
    348e:	0e 94 6b 0d 	call	0x1ad6	; 0x1ad6 <_ZN7motor_t8positionERKi>
    3492:	20 92 38 03 	sts	0x0338, r2
	motor[4].position(457);
    3496:	dc a2       	std	Y+36, r13	; 0x24
    3498:	cb a2       	std	Y+35, r12	; 0x23
    349a:	c8 01       	movw	r24, r16
    349c:	be 01       	movw	r22, r28
    349e:	6d 5d       	subi	r22, 0xDD	; 221
    34a0:	7f 4f       	sbci	r23, 0xFF	; 255
    34a2:	0e 94 6b 0d 	call	0x1ad6	; 0x1ad6 <_ZN7motor_t8positionERKi>
    34a6:	85 e0       	ldi	r24, 0x05	; 5
    34a8:	80 93 38 03 	sts	0x0338, r24
	motor[5].position(190);
    34ac:	6e eb       	ldi	r22, 0xBE	; 190
    34ae:	86 2e       	mov	r8, r22
    34b0:	91 2c       	mov	r9, r1
    34b2:	9e a2       	std	Y+38, r9	; 0x26
    34b4:	8d a2       	std	Y+37, r8	; 0x25
    34b6:	c8 01       	movw	r24, r16
    34b8:	be 01       	movw	r22, r28
    34ba:	6b 5d       	subi	r22, 0xDB	; 219
    34bc:	7f 4f       	sbci	r23, 0xFF	; 255
    34be:	0e 94 6b 0d 	call	0x1ad6	; 0x1ad6 <_ZN7motor_t8positionERKi>
    34c2:	86 e0       	ldi	r24, 0x06	; 6
    34c4:	80 93 38 03 	sts	0x0338, r24
	motor[6].position(512);
    34c8:	f8 a6       	std	Y+40, r15	; 0x28
    34ca:	ef a2       	std	Y+39, r14	; 0x27
    34cc:	c8 01       	movw	r24, r16
    34ce:	be 01       	movw	r22, r28
    34d0:	69 5d       	subi	r22, 0xD9	; 217
    34d2:	7f 4f       	sbci	r23, 0xFF	; 255
    34d4:	0e 94 6b 0d 	call	0x1ad6	; 0x1ad6 <_ZN7motor_t8positionERKi>
    34d8:	30 92 38 03 	sts	0x0338, r3
	motor[7].position(512);
    34dc:	fa a6       	std	Y+42, r15	; 0x2a
    34de:	e9 a6       	std	Y+41, r14	; 0x29
    34e0:	c8 01       	movw	r24, r16
    34e2:	be 01       	movw	r22, r28
    34e4:	67 5d       	subi	r22, 0xD7	; 215
    34e6:	7f 4f       	sbci	r23, 0xFF	; 255
    34e8:	0e 94 6b 0d 	call	0x1ad6	; 0x1ad6 <_ZN7motor_t8positionERKi>
	syncWait(4000000);
    34ec:	60 e0       	ldi	r22, 0x00	; 0
    34ee:	79 e0       	ldi	r23, 0x09	; 9
    34f0:	8d e3       	ldi	r24, 0x3D	; 61
    34f2:	90 e0       	ldi	r25, 0x00	; 0
    34f4:	0e 94 e1 00 	call	0x1c2	; 0x1c2 <_Z8syncWaitm>
    34f8:	81 e0       	ldi	r24, 0x01	; 1
    34fa:	80 93 38 03 	sts	0x0338, r24
	//otevre celisti
	motor[1].position(788);
    34fe:	5c a6       	std	Y+44, r5	; 0x2c
    3500:	4b a6       	std	Y+43, r4	; 0x2b
    3502:	c8 01       	movw	r24, r16
    3504:	be 01       	movw	r22, r28
    3506:	65 5d       	subi	r22, 0xD5	; 213
    3508:	7f 4f       	sbci	r23, 0xFF	; 255
    350a:	0e 94 6b 0d 	call	0x1ad6	; 0x1ad6 <_ZN7motor_t8positionERKi>
    350e:	82 e0       	ldi	r24, 0x02	; 2
    3510:	80 93 38 03 	sts	0x0338, r24
	motor[2].position(450);
    3514:	7e a6       	std	Y+46, r7	; 0x2e
    3516:	6d a6       	std	Y+45, r6	; 0x2d
    3518:	c8 01       	movw	r24, r16
    351a:	be 01       	movw	r22, r28
    351c:	63 5d       	subi	r22, 0xD3	; 211
    351e:	7f 4f       	sbci	r23, 0xFF	; 255
    3520:	0e 94 6b 0d 	call	0x1ad6	; 0x1ad6 <_ZN7motor_t8positionERKi>
    3524:	83 e0       	ldi	r24, 0x03	; 3
    3526:	80 93 38 03 	sts	0x0338, r24
	motor[3].position(440);
    352a:	b8 aa       	std	Y+48, r11	; 0x30
    352c:	af a6       	std	Y+47, r10	; 0x2f
    352e:	c8 01       	movw	r24, r16
    3530:	be 01       	movw	r22, r28
    3532:	61 5d       	subi	r22, 0xD1	; 209
    3534:	7f 4f       	sbci	r23, 0xFF	; 255
    3536:	0e 94 6b 0d 	call	0x1ad6	; 0x1ad6 <_ZN7motor_t8positionERKi>
    353a:	20 92 38 03 	sts	0x0338, r2
	motor[4].position(457);
    353e:	da aa       	std	Y+50, r13	; 0x32
    3540:	c9 aa       	std	Y+49, r12	; 0x31
    3542:	c8 01       	movw	r24, r16
    3544:	be 01       	movw	r22, r28
    3546:	6f 5c       	subi	r22, 0xCF	; 207
    3548:	7f 4f       	sbci	r23, 0xFF	; 255
    354a:	0e 94 6b 0d 	call	0x1ad6	; 0x1ad6 <_ZN7motor_t8positionERKi>
    354e:	85 e0       	ldi	r24, 0x05	; 5
    3550:	80 93 38 03 	sts	0x0338, r24
	motor[5].position(190);
    3554:	9c aa       	std	Y+52, r9	; 0x34
    3556:	8b aa       	std	Y+51, r8	; 0x33
    3558:	c8 01       	movw	r24, r16
    355a:	be 01       	movw	r22, r28
    355c:	6d 5c       	subi	r22, 0xCD	; 205
    355e:	7f 4f       	sbci	r23, 0xFF	; 255
    3560:	0e 94 6b 0d 	call	0x1ad6	; 0x1ad6 <_ZN7motor_t8positionERKi>
    3564:	86 e0       	ldi	r24, 0x06	; 6
    3566:	80 93 38 03 	sts	0x0338, r24
	motor[6].position(486);
    356a:	56 ee       	ldi	r21, 0xE6	; 230
    356c:	e5 2e       	mov	r14, r21
    356e:	51 e0       	ldi	r21, 0x01	; 1
    3570:	f5 2e       	mov	r15, r21
    3572:	fe aa       	std	Y+54, r15	; 0x36
    3574:	ed aa       	std	Y+53, r14	; 0x35
    3576:	c8 01       	movw	r24, r16
    3578:	be 01       	movw	r22, r28
    357a:	6b 5c       	subi	r22, 0xCB	; 203
    357c:	7f 4f       	sbci	r23, 0xFF	; 255
    357e:	0e 94 6b 0d 	call	0x1ad6	; 0x1ad6 <_ZN7motor_t8positionERKi>
    3582:	30 92 38 03 	sts	0x0338, r3
	motor[7].position(548);
    3586:	44 e2       	ldi	r20, 0x24	; 36
    3588:	c4 2e       	mov	r12, r20
    358a:	42 e0       	ldi	r20, 0x02	; 2
    358c:	d4 2e       	mov	r13, r20
    358e:	d8 ae       	std	Y+56, r13	; 0x38
    3590:	cf aa       	std	Y+55, r12	; 0x37
    3592:	c8 01       	movw	r24, r16
    3594:	be 01       	movw	r22, r28
    3596:	69 5c       	subi	r22, 0xC9	; 201
    3598:	7f 4f       	sbci	r23, 0xFF	; 255
    359a:	0e 94 6b 0d 	call	0x1ad6	; 0x1ad6 <_ZN7motor_t8positionERKi>
	syncWait(4000000);
    359e:	60 e0       	ldi	r22, 0x00	; 0
    35a0:	79 e0       	ldi	r23, 0x09	; 9
    35a2:	8d e3       	ldi	r24, 0x3D	; 61
    35a4:	90 e0       	ldi	r25, 0x00	; 0
    35a6:	0e 94 e1 00 	call	0x1c2	; 0x1c2 <_Z8syncWaitm>
    35aa:	81 e0       	ldi	r24, 0x01	; 1
    35ac:	80 93 38 03 	sts	0x0338, r24
	//zvedne rameno
	motor[1].position(788);
    35b0:	5a ae       	std	Y+58, r5	; 0x3a
    35b2:	49 ae       	std	Y+57, r4	; 0x39
    35b4:	c8 01       	movw	r24, r16
    35b6:	be 01       	movw	r22, r28
    35b8:	67 5c       	subi	r22, 0xC7	; 199
    35ba:	7f 4f       	sbci	r23, 0xFF	; 255
    35bc:	0e 94 6b 0d 	call	0x1ad6	; 0x1ad6 <_ZN7motor_t8positionERKi>
    35c0:	82 e0       	ldi	r24, 0x02	; 2
    35c2:	80 93 38 03 	sts	0x0338, r24
	motor[2].position(550);
    35c6:	86 e2       	ldi	r24, 0x26	; 38
    35c8:	92 e0       	ldi	r25, 0x02	; 2
    35ca:	9c af       	std	Y+60, r25	; 0x3c
    35cc:	8b af       	std	Y+59, r24	; 0x3b
    35ce:	c8 01       	movw	r24, r16
    35d0:	be 01       	movw	r22, r28
    35d2:	65 5c       	subi	r22, 0xC5	; 197
    35d4:	7f 4f       	sbci	r23, 0xFF	; 255
    35d6:	0e 94 6b 0d 	call	0x1ad6	; 0x1ad6 <_ZN7motor_t8positionERKi>
    35da:	83 e0       	ldi	r24, 0x03	; 3
    35dc:	80 93 38 03 	sts	0x0338, r24
	motor[3].position(453);
    35e0:	85 ec       	ldi	r24, 0xC5	; 197
    35e2:	91 e0       	ldi	r25, 0x01	; 1
    35e4:	9e af       	std	Y+62, r25	; 0x3e
    35e6:	8d af       	std	Y+61, r24	; 0x3d
    35e8:	c8 01       	movw	r24, r16
    35ea:	be 01       	movw	r22, r28
    35ec:	63 5c       	subi	r22, 0xC3	; 195
    35ee:	7f 4f       	sbci	r23, 0xFF	; 255
    35f0:	0e 94 6b 0d 	call	0x1ad6	; 0x1ad6 <_ZN7motor_t8positionERKi>
    35f4:	20 92 38 03 	sts	0x0338, r2
	motor[4].position(434);
    35f8:	fe 01       	movw	r30, r28
    35fa:	ff 96       	adiw	r30, 0x3f	; 63
    35fc:	82 eb       	ldi	r24, 0xB2	; 178
    35fe:	91 e0       	ldi	r25, 0x01	; 1
    3600:	91 83       	std	Z+1, r25	; 0x01
    3602:	80 83       	st	Z, r24
    3604:	c8 01       	movw	r24, r16
    3606:	bf 01       	movw	r22, r30
    3608:	0e 94 6b 0d 	call	0x1ad6	; 0x1ad6 <_ZN7motor_t8positionERKi>
    360c:	85 e0       	ldi	r24, 0x05	; 5
    360e:	80 93 38 03 	sts	0x0338, r24
	motor[5].position(161);
    3612:	fe 01       	movw	r30, r28
    3614:	ef 5b       	subi	r30, 0xBF	; 191
    3616:	ff 4f       	sbci	r31, 0xFF	; 255
    3618:	81 ea       	ldi	r24, 0xA1	; 161
    361a:	90 e0       	ldi	r25, 0x00	; 0
    361c:	91 83       	std	Z+1, r25	; 0x01
    361e:	80 83       	st	Z, r24
    3620:	c8 01       	movw	r24, r16
    3622:	bf 01       	movw	r22, r30
    3624:	0e 94 6b 0d 	call	0x1ad6	; 0x1ad6 <_ZN7motor_t8positionERKi>
    3628:	86 e0       	ldi	r24, 0x06	; 6
    362a:	80 93 38 03 	sts	0x0338, r24
	motor[6].position(486);
    362e:	fe 01       	movw	r30, r28
    3630:	ed 5b       	subi	r30, 0xBD	; 189
    3632:	ff 4f       	sbci	r31, 0xFF	; 255
    3634:	f1 82       	std	Z+1, r15	; 0x01
    3636:	e0 82       	st	Z, r14
    3638:	c8 01       	movw	r24, r16
    363a:	bf 01       	movw	r22, r30
    363c:	0e 94 6b 0d 	call	0x1ad6	; 0x1ad6 <_ZN7motor_t8positionERKi>
    3640:	30 92 38 03 	sts	0x0338, r3
	motor[7].position(548);
    3644:	fe 01       	movw	r30, r28
    3646:	eb 5b       	subi	r30, 0xBB	; 187
    3648:	ff 4f       	sbci	r31, 0xFF	; 255
    364a:	d1 82       	std	Z+1, r13	; 0x01
    364c:	c0 82       	st	Z, r12
    364e:	c8 01       	movw	r24, r16
    3650:	bf 01       	movw	r22, r30
    3652:	0e 94 6b 0d 	call	0x1ad6	; 0x1ad6 <_ZN7motor_t8positionERKi>
	syncWait(4000000);
    3656:	60 e0       	ldi	r22, 0x00	; 0
    3658:	79 e0       	ldi	r23, 0x09	; 9
    365a:	8d e3       	ldi	r24, 0x3D	; 61
    365c:	90 e0       	ldi	r25, 0x00	; 0
    365e:	0e 94 e1 00 	call	0x1c2	; 0x1c2 <_Z8syncWaitm>

}
    3662:	ca 5b       	subi	r28, 0xBA	; 186
    3664:	df 4f       	sbci	r29, 0xFF	; 255
    3666:	0f b6       	in	r0, 0x3f	; 63
    3668:	f8 94       	cli
    366a:	de bf       	out	0x3e, r29	; 62
    366c:	0f be       	out	0x3f, r0	; 63
    366e:	cd bf       	out	0x3d, r28	; 61
    3670:	cf 91       	pop	r28
    3672:	df 91       	pop	r29
    3674:	1f 91       	pop	r17
    3676:	0f 91       	pop	r16
    3678:	ff 90       	pop	r15
    367a:	ef 90       	pop	r14
    367c:	df 90       	pop	r13
    367e:	cf 90       	pop	r12
    3680:	bf 90       	pop	r11
    3682:	af 90       	pop	r10
    3684:	9f 90       	pop	r9
    3686:	8f 90       	pop	r8
    3688:	7f 90       	pop	r7
    368a:	6f 90       	pop	r6
    368c:	5f 90       	pop	r5
    368e:	4f 90       	pop	r4
    3690:	3f 90       	pop	r3
    3692:	2f 90       	pop	r2
    3694:	08 95       	ret

00003696 <_Z23chlivek_clovek_pozice39v>:
	motor[6].position(512);
	motor[7].position(512);
}


void chlivek_clovek_pozice39()
    3696:	2f 92       	push	r2
    3698:	3f 92       	push	r3
    369a:	4f 92       	push	r4
    369c:	5f 92       	push	r5
    369e:	6f 92       	push	r6
    36a0:	7f 92       	push	r7
    36a2:	8f 92       	push	r8
    36a4:	9f 92       	push	r9
    36a6:	af 92       	push	r10
    36a8:	bf 92       	push	r11
    36aa:	cf 92       	push	r12
    36ac:	df 92       	push	r13
    36ae:	ef 92       	push	r14
    36b0:	ff 92       	push	r15
    36b2:	0f 93       	push	r16
    36b4:	1f 93       	push	r17
    36b6:	df 93       	push	r29
    36b8:	cf 93       	push	r28
    36ba:	cd b7       	in	r28, 0x3d	; 61
    36bc:	de b7       	in	r29, 0x3e	; 62
    36be:	c6 54       	subi	r28, 0x46	; 70
    36c0:	d0 40       	sbci	r29, 0x00	; 0
    36c2:	0f b6       	in	r0, 0x3f	; 63
    36c4:	f8 94       	cli
    36c6:	de bf       	out	0x3e, r29	; 62
    36c8:	0f be       	out	0x3f, r0	; 63
    36ca:	cd bf       	out	0x3d, r28	; 61
    36cc:	08 e3       	ldi	r16, 0x38	; 56
    36ce:	13 e0       	ldi	r17, 0x03	; 3
    36d0:	81 e0       	ldi	r24, 0x01	; 1
    36d2:	80 93 38 03 	sts	0x0338, r24
{
	//nakloni se s figurkou nad chlivek
	motor[1].position(838);
    36d6:	b6 e4       	ldi	r27, 0x46	; 70
    36d8:	4b 2e       	mov	r4, r27
    36da:	b3 e0       	ldi	r27, 0x03	; 3
    36dc:	5b 2e       	mov	r5, r27
    36de:	5a 82       	std	Y+2, r5	; 0x02
    36e0:	49 82       	std	Y+1, r4	; 0x01
    36e2:	c8 01       	movw	r24, r16
    36e4:	be 01       	movw	r22, r28
    36e6:	6f 5f       	subi	r22, 0xFF	; 255
    36e8:	7f 4f       	sbci	r23, 0xFF	; 255
    36ea:	0e 94 6b 0d 	call	0x1ad6	; 0x1ad6 <_ZN7motor_t8positionERKi>
    36ee:	82 e0       	ldi	r24, 0x02	; 2
    36f0:	80 93 38 03 	sts	0x0338, r24
	motor[2].position(521);
    36f4:	89 e0       	ldi	r24, 0x09	; 9
    36f6:	92 e0       	ldi	r25, 0x02	; 2
    36f8:	9c 83       	std	Y+4, r25	; 0x04
    36fa:	8b 83       	std	Y+3, r24	; 0x03
    36fc:	c8 01       	movw	r24, r16
    36fe:	be 01       	movw	r22, r28
    3700:	6d 5f       	subi	r22, 0xFD	; 253
    3702:	7f 4f       	sbci	r23, 0xFF	; 255
    3704:	0e 94 6b 0d 	call	0x1ad6	; 0x1ad6 <_ZN7motor_t8positionERKi>
    3708:	83 e0       	ldi	r24, 0x03	; 3
    370a:	80 93 38 03 	sts	0x0338, r24
	motor[3].position(459);
    370e:	8b ec       	ldi	r24, 0xCB	; 203
    3710:	91 e0       	ldi	r25, 0x01	; 1
    3712:	9e 83       	std	Y+6, r25	; 0x06
    3714:	8d 83       	std	Y+5, r24	; 0x05
    3716:	c8 01       	movw	r24, r16
    3718:	be 01       	movw	r22, r28
    371a:	6b 5f       	subi	r22, 0xFB	; 251
    371c:	7f 4f       	sbci	r23, 0xFF	; 255
    371e:	0e 94 6b 0d 	call	0x1ad6	; 0x1ad6 <_ZN7motor_t8positionERKi>
    3722:	a4 e0       	ldi	r26, 0x04	; 4
    3724:	2a 2e       	mov	r2, r26
    3726:	20 92 38 03 	sts	0x0338, r2
	motor[4].position(343);
    372a:	87 e5       	ldi	r24, 0x57	; 87
    372c:	91 e0       	ldi	r25, 0x01	; 1
    372e:	98 87       	std	Y+8, r25	; 0x08
    3730:	8f 83       	std	Y+7, r24	; 0x07
    3732:	c8 01       	movw	r24, r16
    3734:	be 01       	movw	r22, r28
    3736:	69 5f       	subi	r22, 0xF9	; 249
    3738:	7f 4f       	sbci	r23, 0xFF	; 255
    373a:	0e 94 6b 0d 	call	0x1ad6	; 0x1ad6 <_ZN7motor_t8positionERKi>
    373e:	85 e0       	ldi	r24, 0x05	; 5
    3740:	80 93 38 03 	sts	0x0338, r24
	motor[5].position(287);
    3744:	8f e1       	ldi	r24, 0x1F	; 31
    3746:	91 e0       	ldi	r25, 0x01	; 1
    3748:	9a 87       	std	Y+10, r25	; 0x0a
    374a:	89 87       	std	Y+9, r24	; 0x09
    374c:	c8 01       	movw	r24, r16
    374e:	be 01       	movw	r22, r28
    3750:	67 5f       	subi	r22, 0xF7	; 247
    3752:	7f 4f       	sbci	r23, 0xFF	; 255
    3754:	0e 94 6b 0d 	call	0x1ad6	; 0x1ad6 <_ZN7motor_t8positionERKi>
    3758:	86 e0       	ldi	r24, 0x06	; 6
    375a:	80 93 38 03 	sts	0x0338, r24
	motor[6].position(512);
    375e:	e1 2c       	mov	r14, r1
    3760:	f2 e0       	ldi	r31, 0x02	; 2
    3762:	ff 2e       	mov	r15, r31
    3764:	fc 86       	std	Y+12, r15	; 0x0c
    3766:	eb 86       	std	Y+11, r14	; 0x0b
    3768:	c8 01       	movw	r24, r16
    376a:	be 01       	movw	r22, r28
    376c:	65 5f       	subi	r22, 0xF5	; 245
    376e:	7f 4f       	sbci	r23, 0xFF	; 255
    3770:	0e 94 6b 0d 	call	0x1ad6	; 0x1ad6 <_ZN7motor_t8positionERKi>
    3774:	e7 e0       	ldi	r30, 0x07	; 7
    3776:	3e 2e       	mov	r3, r30
    3778:	30 92 38 03 	sts	0x0338, r3
	motor[7].position(512);
    377c:	fe 86       	std	Y+14, r15	; 0x0e
    377e:	ed 86       	std	Y+13, r14	; 0x0d
    3780:	c8 01       	movw	r24, r16
    3782:	be 01       	movw	r22, r28
    3784:	63 5f       	subi	r22, 0xF3	; 243
    3786:	7f 4f       	sbci	r23, 0xFF	; 255
    3788:	0e 94 6b 0d 	call	0x1ad6	; 0x1ad6 <_ZN7motor_t8positionERKi>
	syncWait(7000000);
    378c:	60 ec       	ldi	r22, 0xC0	; 192
    378e:	7f ec       	ldi	r23, 0xCF	; 207
    3790:	8a e6       	ldi	r24, 0x6A	; 106
    3792:	90 e0       	ldi	r25, 0x00	; 0
    3794:	0e 94 e1 00 	call	0x1c2	; 0x1c2 <_Z8syncWaitm>
    3798:	81 e0       	ldi	r24, 0x01	; 1
    379a:	80 93 38 03 	sts	0x0338, r24
	//zacne pokladat figurku
	motor[1].position(838);
    379e:	58 8a       	std	Y+16, r5	; 0x10
    37a0:	4f 86       	std	Y+15, r4	; 0x0f
    37a2:	c8 01       	movw	r24, r16
    37a4:	be 01       	movw	r22, r28
    37a6:	61 5f       	subi	r22, 0xF1	; 241
    37a8:	7f 4f       	sbci	r23, 0xFF	; 255
    37aa:	0e 94 6b 0d 	call	0x1ad6	; 0x1ad6 <_ZN7motor_t8positionERKi>
    37ae:	82 e0       	ldi	r24, 0x02	; 2
    37b0:	80 93 38 03 	sts	0x0338, r24
	motor[2].position(500);
    37b4:	84 ef       	ldi	r24, 0xF4	; 244
    37b6:	91 e0       	ldi	r25, 0x01	; 1
    37b8:	9a 8b       	std	Y+18, r25	; 0x12
    37ba:	89 8b       	std	Y+17, r24	; 0x11
    37bc:	c8 01       	movw	r24, r16
    37be:	be 01       	movw	r22, r28
    37c0:	6f 5e       	subi	r22, 0xEF	; 239
    37c2:	7f 4f       	sbci	r23, 0xFF	; 255
    37c4:	0e 94 6b 0d 	call	0x1ad6	; 0x1ad6 <_ZN7motor_t8positionERKi>
    37c8:	83 e0       	ldi	r24, 0x03	; 3
    37ca:	80 93 38 03 	sts	0x0338, r24
	motor[3].position(440);
    37ce:	78 eb       	ldi	r23, 0xB8	; 184
    37d0:	a7 2e       	mov	r10, r23
    37d2:	71 e0       	ldi	r23, 0x01	; 1
    37d4:	b7 2e       	mov	r11, r23
    37d6:	bc 8a       	std	Y+20, r11	; 0x14
    37d8:	ab 8a       	std	Y+19, r10	; 0x13
    37da:	c8 01       	movw	r24, r16
    37dc:	be 01       	movw	r22, r28
    37de:	6d 5e       	subi	r22, 0xED	; 237
    37e0:	7f 4f       	sbci	r23, 0xFF	; 255
    37e2:	0e 94 6b 0d 	call	0x1ad6	; 0x1ad6 <_ZN7motor_t8positionERKi>
    37e6:	20 92 38 03 	sts	0x0338, r2
	motor[4].position(457);
    37ea:	69 ec       	ldi	r22, 0xC9	; 201
    37ec:	c6 2e       	mov	r12, r22
    37ee:	61 e0       	ldi	r22, 0x01	; 1
    37f0:	d6 2e       	mov	r13, r22
    37f2:	de 8a       	std	Y+22, r13	; 0x16
    37f4:	cd 8a       	std	Y+21, r12	; 0x15
    37f6:	c8 01       	movw	r24, r16
    37f8:	be 01       	movw	r22, r28
    37fa:	6b 5e       	subi	r22, 0xEB	; 235
    37fc:	7f 4f       	sbci	r23, 0xFF	; 255
    37fe:	0e 94 6b 0d 	call	0x1ad6	; 0x1ad6 <_ZN7motor_t8positionERKi>
    3802:	85 e0       	ldi	r24, 0x05	; 5
    3804:	80 93 38 03 	sts	0x0338, r24
	motor[5].position(180);
    3808:	84 eb       	ldi	r24, 0xB4	; 180
    380a:	90 e0       	ldi	r25, 0x00	; 0
    380c:	98 8f       	std	Y+24, r25	; 0x18
    380e:	8f 8b       	std	Y+23, r24	; 0x17
    3810:	c8 01       	movw	r24, r16
    3812:	be 01       	movw	r22, r28
    3814:	69 5e       	subi	r22, 0xE9	; 233
    3816:	7f 4f       	sbci	r23, 0xFF	; 255
    3818:	0e 94 6b 0d 	call	0x1ad6	; 0x1ad6 <_ZN7motor_t8positionERKi>
    381c:	86 e0       	ldi	r24, 0x06	; 6
    381e:	80 93 38 03 	sts	0x0338, r24
	motor[6].position(512);
    3822:	fa 8e       	std	Y+26, r15	; 0x1a
    3824:	e9 8e       	std	Y+25, r14	; 0x19
    3826:	c8 01       	movw	r24, r16
    3828:	be 01       	movw	r22, r28
    382a:	67 5e       	subi	r22, 0xE7	; 231
    382c:	7f 4f       	sbci	r23, 0xFF	; 255
    382e:	0e 94 6b 0d 	call	0x1ad6	; 0x1ad6 <_ZN7motor_t8positionERKi>
    3832:	30 92 38 03 	sts	0x0338, r3
	motor[7].position(512);
    3836:	fc 8e       	std	Y+28, r15	; 0x1c
    3838:	eb 8e       	std	Y+27, r14	; 0x1b
    383a:	c8 01       	movw	r24, r16
    383c:	be 01       	movw	r22, r28
    383e:	65 5e       	subi	r22, 0xE5	; 229
    3840:	7f 4f       	sbci	r23, 0xFF	; 255
    3842:	0e 94 6b 0d 	call	0x1ad6	; 0x1ad6 <_ZN7motor_t8positionERKi>
	syncWait(1000000);
    3846:	60 e4       	ldi	r22, 0x40	; 64
    3848:	72 e4       	ldi	r23, 0x42	; 66
    384a:	8f e0       	ldi	r24, 0x0F	; 15
    384c:	90 e0       	ldi	r25, 0x00	; 0
    384e:	0e 94 e1 00 	call	0x1c2	; 0x1c2 <_Z8syncWaitm>
    3852:	81 e0       	ldi	r24, 0x01	; 1
    3854:	80 93 38 03 	sts	0x0338, r24
	//polozi figurku
	motor[1].position(838);
    3858:	5e 8e       	std	Y+30, r5	; 0x1e
    385a:	4d 8e       	std	Y+29, r4	; 0x1d
    385c:	c8 01       	movw	r24, r16
    385e:	be 01       	movw	r22, r28
    3860:	63 5e       	subi	r22, 0xE3	; 227
    3862:	7f 4f       	sbci	r23, 0xFF	; 255
    3864:	0e 94 6b 0d 	call	0x1ad6	; 0x1ad6 <_ZN7motor_t8positionERKi>
    3868:	82 e0       	ldi	r24, 0x02	; 2
    386a:	80 93 38 03 	sts	0x0338, r24
	motor[2].position(450);
    386e:	52 ec       	ldi	r21, 0xC2	; 194
    3870:	65 2e       	mov	r6, r21
    3872:	51 e0       	ldi	r21, 0x01	; 1
    3874:	75 2e       	mov	r7, r21
    3876:	78 a2       	std	Y+32, r7	; 0x20
    3878:	6f 8e       	std	Y+31, r6	; 0x1f
    387a:	c8 01       	movw	r24, r16
    387c:	be 01       	movw	r22, r28
    387e:	61 5e       	subi	r22, 0xE1	; 225
    3880:	7f 4f       	sbci	r23, 0xFF	; 255
    3882:	0e 94 6b 0d 	call	0x1ad6	; 0x1ad6 <_ZN7motor_t8positionERKi>
    3886:	83 e0       	ldi	r24, 0x03	; 3
    3888:	80 93 38 03 	sts	0x0338, r24
	motor[3].position(440);
    388c:	ba a2       	std	Y+34, r11	; 0x22
    388e:	a9 a2       	std	Y+33, r10	; 0x21
    3890:	c8 01       	movw	r24, r16
    3892:	be 01       	movw	r22, r28
    3894:	6f 5d       	subi	r22, 0xDF	; 223
    3896:	7f 4f       	sbci	r23, 0xFF	; 255
    3898:	0e 94 6b 0d 	call	0x1ad6	; 0x1ad6 <_ZN7motor_t8positionERKi>
    389c:	20 92 38 03 	sts	0x0338, r2
	motor[4].position(457);
    38a0:	dc a2       	std	Y+36, r13	; 0x24
    38a2:	cb a2       	std	Y+35, r12	; 0x23
    38a4:	c8 01       	movw	r24, r16
    38a6:	be 01       	movw	r22, r28
    38a8:	6d 5d       	subi	r22, 0xDD	; 221
    38aa:	7f 4f       	sbci	r23, 0xFF	; 255
    38ac:	0e 94 6b 0d 	call	0x1ad6	; 0x1ad6 <_ZN7motor_t8positionERKi>
    38b0:	85 e0       	ldi	r24, 0x05	; 5
    38b2:	80 93 38 03 	sts	0x0338, r24
	motor[5].position(190);
    38b6:	4e eb       	ldi	r20, 0xBE	; 190
    38b8:	84 2e       	mov	r8, r20
    38ba:	91 2c       	mov	r9, r1
    38bc:	9e a2       	std	Y+38, r9	; 0x26
    38be:	8d a2       	std	Y+37, r8	; 0x25
    38c0:	c8 01       	movw	r24, r16
    38c2:	be 01       	movw	r22, r28
    38c4:	6b 5d       	subi	r22, 0xDB	; 219
    38c6:	7f 4f       	sbci	r23, 0xFF	; 255
    38c8:	0e 94 6b 0d 	call	0x1ad6	; 0x1ad6 <_ZN7motor_t8positionERKi>
    38cc:	86 e0       	ldi	r24, 0x06	; 6
    38ce:	80 93 38 03 	sts	0x0338, r24
	motor[6].position(512);
    38d2:	f8 a6       	std	Y+40, r15	; 0x28
    38d4:	ef a2       	std	Y+39, r14	; 0x27
    38d6:	c8 01       	movw	r24, r16
    38d8:	be 01       	movw	r22, r28
    38da:	69 5d       	subi	r22, 0xD9	; 217
    38dc:	7f 4f       	sbci	r23, 0xFF	; 255
    38de:	0e 94 6b 0d 	call	0x1ad6	; 0x1ad6 <_ZN7motor_t8positionERKi>
    38e2:	30 92 38 03 	sts	0x0338, r3
	motor[7].position(512);
    38e6:	fa a6       	std	Y+42, r15	; 0x2a
    38e8:	e9 a6       	std	Y+41, r14	; 0x29
    38ea:	c8 01       	movw	r24, r16
    38ec:	be 01       	movw	r22, r28
    38ee:	67 5d       	subi	r22, 0xD7	; 215
    38f0:	7f 4f       	sbci	r23, 0xFF	; 255
    38f2:	0e 94 6b 0d 	call	0x1ad6	; 0x1ad6 <_ZN7motor_t8positionERKi>
	syncWait(4000000);
    38f6:	60 e0       	ldi	r22, 0x00	; 0
    38f8:	79 e0       	ldi	r23, 0x09	; 9
    38fa:	8d e3       	ldi	r24, 0x3D	; 61
    38fc:	90 e0       	ldi	r25, 0x00	; 0
    38fe:	0e 94 e1 00 	call	0x1c2	; 0x1c2 <_Z8syncWaitm>
    3902:	81 e0       	ldi	r24, 0x01	; 1
    3904:	80 93 38 03 	sts	0x0338, r24
	//otevre celisti
	motor[1].position(838);
    3908:	5c a6       	std	Y+44, r5	; 0x2c
    390a:	4b a6       	std	Y+43, r4	; 0x2b
    390c:	c8 01       	movw	r24, r16
    390e:	be 01       	movw	r22, r28
    3910:	65 5d       	subi	r22, 0xD5	; 213
    3912:	7f 4f       	sbci	r23, 0xFF	; 255
    3914:	0e 94 6b 0d 	call	0x1ad6	; 0x1ad6 <_ZN7motor_t8positionERKi>
    3918:	82 e0       	ldi	r24, 0x02	; 2
    391a:	80 93 38 03 	sts	0x0338, r24
	motor[2].position(450);
    391e:	7e a6       	std	Y+46, r7	; 0x2e
    3920:	6d a6       	std	Y+45, r6	; 0x2d
    3922:	c8 01       	movw	r24, r16
    3924:	be 01       	movw	r22, r28
    3926:	63 5d       	subi	r22, 0xD3	; 211
    3928:	7f 4f       	sbci	r23, 0xFF	; 255
    392a:	0e 94 6b 0d 	call	0x1ad6	; 0x1ad6 <_ZN7motor_t8positionERKi>
    392e:	83 e0       	ldi	r24, 0x03	; 3
    3930:	80 93 38 03 	sts	0x0338, r24
	motor[3].position(440);
    3934:	b8 aa       	std	Y+48, r11	; 0x30
    3936:	af a6       	std	Y+47, r10	; 0x2f
    3938:	c8 01       	movw	r24, r16
    393a:	be 01       	movw	r22, r28
    393c:	61 5d       	subi	r22, 0xD1	; 209
    393e:	7f 4f       	sbci	r23, 0xFF	; 255
    3940:	0e 94 6b 0d 	call	0x1ad6	; 0x1ad6 <_ZN7motor_t8positionERKi>
    3944:	20 92 38 03 	sts	0x0338, r2
	motor[4].position(457);
    3948:	da aa       	std	Y+50, r13	; 0x32
    394a:	c9 aa       	std	Y+49, r12	; 0x31
    394c:	c8 01       	movw	r24, r16
    394e:	be 01       	movw	r22, r28
    3950:	6f 5c       	subi	r22, 0xCF	; 207
    3952:	7f 4f       	sbci	r23, 0xFF	; 255
    3954:	0e 94 6b 0d 	call	0x1ad6	; 0x1ad6 <_ZN7motor_t8positionERKi>
    3958:	85 e0       	ldi	r24, 0x05	; 5
    395a:	80 93 38 03 	sts	0x0338, r24
	motor[5].position(190);
    395e:	9c aa       	std	Y+52, r9	; 0x34
    3960:	8b aa       	std	Y+51, r8	; 0x33
    3962:	c8 01       	movw	r24, r16
    3964:	be 01       	movw	r22, r28
    3966:	6d 5c       	subi	r22, 0xCD	; 205
    3968:	7f 4f       	sbci	r23, 0xFF	; 255
    396a:	0e 94 6b 0d 	call	0x1ad6	; 0x1ad6 <_ZN7motor_t8positionERKi>
    396e:	86 e0       	ldi	r24, 0x06	; 6
    3970:	80 93 38 03 	sts	0x0338, r24
	motor[6].position(486);
    3974:	36 ee       	ldi	r19, 0xE6	; 230
    3976:	e3 2e       	mov	r14, r19
    3978:	31 e0       	ldi	r19, 0x01	; 1
    397a:	f3 2e       	mov	r15, r19
    397c:	fe aa       	std	Y+54, r15	; 0x36
    397e:	ed aa       	std	Y+53, r14	; 0x35
    3980:	c8 01       	movw	r24, r16
    3982:	be 01       	movw	r22, r28
    3984:	6b 5c       	subi	r22, 0xCB	; 203
    3986:	7f 4f       	sbci	r23, 0xFF	; 255
    3988:	0e 94 6b 0d 	call	0x1ad6	; 0x1ad6 <_ZN7motor_t8positionERKi>
    398c:	30 92 38 03 	sts	0x0338, r3
	motor[7].position(548);
    3990:	24 e2       	ldi	r18, 0x24	; 36
    3992:	c2 2e       	mov	r12, r18
    3994:	22 e0       	ldi	r18, 0x02	; 2
    3996:	d2 2e       	mov	r13, r18
    3998:	d8 ae       	std	Y+56, r13	; 0x38
    399a:	cf aa       	std	Y+55, r12	; 0x37
    399c:	c8 01       	movw	r24, r16
    399e:	be 01       	movw	r22, r28
    39a0:	69 5c       	subi	r22, 0xC9	; 201
    39a2:	7f 4f       	sbci	r23, 0xFF	; 255
    39a4:	0e 94 6b 0d 	call	0x1ad6	; 0x1ad6 <_ZN7motor_t8positionERKi>
	syncWait(4000000);
    39a8:	60 e0       	ldi	r22, 0x00	; 0
    39aa:	79 e0       	ldi	r23, 0x09	; 9
    39ac:	8d e3       	ldi	r24, 0x3D	; 61
    39ae:	90 e0       	ldi	r25, 0x00	; 0
    39b0:	0e 94 e1 00 	call	0x1c2	; 0x1c2 <_Z8syncWaitm>
    39b4:	81 e0       	ldi	r24, 0x01	; 1
    39b6:	80 93 38 03 	sts	0x0338, r24
	//zvedne rameno
	motor[1].position(838);
    39ba:	5a ae       	std	Y+58, r5	; 0x3a
    39bc:	49 ae       	std	Y+57, r4	; 0x39
    39be:	c8 01       	movw	r24, r16
    39c0:	be 01       	movw	r22, r28
    39c2:	67 5c       	subi	r22, 0xC7	; 199
    39c4:	7f 4f       	sbci	r23, 0xFF	; 255
    39c6:	0e 94 6b 0d 	call	0x1ad6	; 0x1ad6 <_ZN7motor_t8positionERKi>
    39ca:	82 e0       	ldi	r24, 0x02	; 2
    39cc:	80 93 38 03 	sts	0x0338, r24
	motor[2].position(550);
    39d0:	86 e2       	ldi	r24, 0x26	; 38
    39d2:	92 e0       	ldi	r25, 0x02	; 2
    39d4:	9c af       	std	Y+60, r25	; 0x3c
    39d6:	8b af       	std	Y+59, r24	; 0x3b
    39d8:	c8 01       	movw	r24, r16
    39da:	be 01       	movw	r22, r28
    39dc:	65 5c       	subi	r22, 0xC5	; 197
    39de:	7f 4f       	sbci	r23, 0xFF	; 255
    39e0:	0e 94 6b 0d 	call	0x1ad6	; 0x1ad6 <_ZN7motor_t8positionERKi>
    39e4:	83 e0       	ldi	r24, 0x03	; 3
    39e6:	80 93 38 03 	sts	0x0338, r24
	motor[3].position(453);
    39ea:	85 ec       	ldi	r24, 0xC5	; 197
    39ec:	91 e0       	ldi	r25, 0x01	; 1
    39ee:	9e af       	std	Y+62, r25	; 0x3e
    39f0:	8d af       	std	Y+61, r24	; 0x3d
    39f2:	c8 01       	movw	r24, r16
    39f4:	be 01       	movw	r22, r28
    39f6:	63 5c       	subi	r22, 0xC3	; 195
    39f8:	7f 4f       	sbci	r23, 0xFF	; 255
    39fa:	0e 94 6b 0d 	call	0x1ad6	; 0x1ad6 <_ZN7motor_t8positionERKi>
    39fe:	20 92 38 03 	sts	0x0338, r2
	motor[4].position(434);
    3a02:	fe 01       	movw	r30, r28
    3a04:	ff 96       	adiw	r30, 0x3f	; 63
    3a06:	82 eb       	ldi	r24, 0xB2	; 178
    3a08:	91 e0       	ldi	r25, 0x01	; 1
    3a0a:	91 83       	std	Z+1, r25	; 0x01
    3a0c:	80 83       	st	Z, r24
    3a0e:	c8 01       	movw	r24, r16
    3a10:	bf 01       	movw	r22, r30
    3a12:	0e 94 6b 0d 	call	0x1ad6	; 0x1ad6 <_ZN7motor_t8positionERKi>
    3a16:	85 e0       	ldi	r24, 0x05	; 5
    3a18:	80 93 38 03 	sts	0x0338, r24
	motor[5].position(161);
    3a1c:	fe 01       	movw	r30, r28
    3a1e:	ef 5b       	subi	r30, 0xBF	; 191
    3a20:	ff 4f       	sbci	r31, 0xFF	; 255
    3a22:	81 ea       	ldi	r24, 0xA1	; 161
    3a24:	90 e0       	ldi	r25, 0x00	; 0
    3a26:	91 83       	std	Z+1, r25	; 0x01
    3a28:	80 83       	st	Z, r24
    3a2a:	c8 01       	movw	r24, r16
    3a2c:	bf 01       	movw	r22, r30
    3a2e:	0e 94 6b 0d 	call	0x1ad6	; 0x1ad6 <_ZN7motor_t8positionERKi>
    3a32:	86 e0       	ldi	r24, 0x06	; 6
    3a34:	80 93 38 03 	sts	0x0338, r24
	motor[6].position(486);
    3a38:	fe 01       	movw	r30, r28
    3a3a:	ed 5b       	subi	r30, 0xBD	; 189
    3a3c:	ff 4f       	sbci	r31, 0xFF	; 255
    3a3e:	f1 82       	std	Z+1, r15	; 0x01
    3a40:	e0 82       	st	Z, r14
    3a42:	c8 01       	movw	r24, r16
    3a44:	bf 01       	movw	r22, r30
    3a46:	0e 94 6b 0d 	call	0x1ad6	; 0x1ad6 <_ZN7motor_t8positionERKi>
    3a4a:	30 92 38 03 	sts	0x0338, r3
	motor[7].position(548);
    3a4e:	fe 01       	movw	r30, r28
    3a50:	eb 5b       	subi	r30, 0xBB	; 187
    3a52:	ff 4f       	sbci	r31, 0xFF	; 255
    3a54:	d1 82       	std	Z+1, r13	; 0x01
    3a56:	c0 82       	st	Z, r12
    3a58:	c8 01       	movw	r24, r16
    3a5a:	bf 01       	movw	r22, r30
    3a5c:	0e 94 6b 0d 	call	0x1ad6	; 0x1ad6 <_ZN7motor_t8positionERKi>
	syncWait(4000000);
    3a60:	60 e0       	ldi	r22, 0x00	; 0
    3a62:	79 e0       	ldi	r23, 0x09	; 9
    3a64:	8d e3       	ldi	r24, 0x3D	; 61
    3a66:	90 e0       	ldi	r25, 0x00	; 0
    3a68:	0e 94 e1 00 	call	0x1c2	; 0x1c2 <_Z8syncWaitm>

}
    3a6c:	ca 5b       	subi	r28, 0xBA	; 186
    3a6e:	df 4f       	sbci	r29, 0xFF	; 255
    3a70:	0f b6       	in	r0, 0x3f	; 63
    3a72:	f8 94       	cli
    3a74:	de bf       	out	0x3e, r29	; 62
    3a76:	0f be       	out	0x3f, r0	; 63
    3a78:	cd bf       	out	0x3d, r28	; 61
    3a7a:	cf 91       	pop	r28
    3a7c:	df 91       	pop	r29
    3a7e:	1f 91       	pop	r17
    3a80:	0f 91       	pop	r16
    3a82:	ff 90       	pop	r15
    3a84:	ef 90       	pop	r14
    3a86:	df 90       	pop	r13
    3a88:	cf 90       	pop	r12
    3a8a:	bf 90       	pop	r11
    3a8c:	af 90       	pop	r10
    3a8e:	9f 90       	pop	r9
    3a90:	8f 90       	pop	r8
    3a92:	7f 90       	pop	r7
    3a94:	6f 90       	pop	r6
    3a96:	5f 90       	pop	r5
    3a98:	4f 90       	pop	r4
    3a9a:	3f 90       	pop	r3
    3a9c:	2f 90       	pop	r2
    3a9e:	08 95       	ret

00003aa0 <_Z15zakladni_pozicev>:
	motor[4].speed(50);
	motor[5].speed(50);
	motor[6].speed(50);
	motor[7].speed(50);
}
void zakladni_pozice()
    3aa0:	ef 92       	push	r14
    3aa2:	ff 92       	push	r15
    3aa4:	0f 93       	push	r16
    3aa6:	1f 93       	push	r17
    3aa8:	df 93       	push	r29
    3aaa:	cf 93       	push	r28
    3aac:	cd b7       	in	r28, 0x3d	; 61
    3aae:	de b7       	in	r29, 0x3e	; 62
    3ab0:	2e 97       	sbiw	r28, 0x0e	; 14
    3ab2:	0f b6       	in	r0, 0x3f	; 63
    3ab4:	f8 94       	cli
    3ab6:	de bf       	out	0x3e, r29	; 62
    3ab8:	0f be       	out	0x3f, r0	; 63
    3aba:	cd bf       	out	0x3d, r28	; 61
    3abc:	08 e3       	ldi	r16, 0x38	; 56
    3abe:	13 e0       	ldi	r17, 0x03	; 3
    3ac0:	81 e0       	ldi	r24, 0x01	; 1
    3ac2:	80 93 38 03 	sts	0x0338, r24
{
	motor[1].position(512);
    3ac6:	e1 2c       	mov	r14, r1
    3ac8:	82 e0       	ldi	r24, 0x02	; 2
    3aca:	f8 2e       	mov	r15, r24
    3acc:	fa 82       	std	Y+2, r15	; 0x02
    3ace:	e9 82       	std	Y+1, r14	; 0x01
    3ad0:	c8 01       	movw	r24, r16
    3ad2:	be 01       	movw	r22, r28
    3ad4:	6f 5f       	subi	r22, 0xFF	; 255
    3ad6:	7f 4f       	sbci	r23, 0xFF	; 255
    3ad8:	0e 94 6b 0d 	call	0x1ad6	; 0x1ad6 <_ZN7motor_t8positionERKi>
    3adc:	82 e0       	ldi	r24, 0x02	; 2
    3ade:	80 93 38 03 	sts	0x0338, r24
	motor[2].position(605);
    3ae2:	8d e5       	ldi	r24, 0x5D	; 93
    3ae4:	92 e0       	ldi	r25, 0x02	; 2
    3ae6:	9c 83       	std	Y+4, r25	; 0x04
    3ae8:	8b 83       	std	Y+3, r24	; 0x03
    3aea:	c8 01       	movw	r24, r16
    3aec:	be 01       	movw	r22, r28
    3aee:	6d 5f       	subi	r22, 0xFD	; 253
    3af0:	7f 4f       	sbci	r23, 0xFF	; 255
    3af2:	0e 94 6b 0d 	call	0x1ad6	; 0x1ad6 <_ZN7motor_t8positionERKi>
    3af6:	83 e0       	ldi	r24, 0x03	; 3
    3af8:	80 93 38 03 	sts	0x0338, r24
	motor[3].position(39);
    3afc:	87 e2       	ldi	r24, 0x27	; 39
    3afe:	90 e0       	ldi	r25, 0x00	; 0
    3b00:	9e 83       	std	Y+6, r25	; 0x06
    3b02:	8d 83       	std	Y+5, r24	; 0x05
    3b04:	c8 01       	movw	r24, r16
    3b06:	be 01       	movw	r22, r28
    3b08:	6b 5f       	subi	r22, 0xFB	; 251
    3b0a:	7f 4f       	sbci	r23, 0xFF	; 255
    3b0c:	0e 94 6b 0d 	call	0x1ad6	; 0x1ad6 <_ZN7motor_t8positionERKi>
    3b10:	84 e0       	ldi	r24, 0x04	; 4
    3b12:	80 93 38 03 	sts	0x0338, r24
	motor[4].position(977);
    3b16:	81 ed       	ldi	r24, 0xD1	; 209
    3b18:	93 e0       	ldi	r25, 0x03	; 3
    3b1a:	98 87       	std	Y+8, r25	; 0x08
    3b1c:	8f 83       	std	Y+7, r24	; 0x07
    3b1e:	c8 01       	movw	r24, r16
    3b20:	be 01       	movw	r22, r28
    3b22:	69 5f       	subi	r22, 0xF9	; 249
    3b24:	7f 4f       	sbci	r23, 0xFF	; 255
    3b26:	0e 94 6b 0d 	call	0x1ad6	; 0x1ad6 <_ZN7motor_t8positionERKi>
    3b2a:	85 e0       	ldi	r24, 0x05	; 5
    3b2c:	80 93 38 03 	sts	0x0338, r24
	motor[5].position(688);
    3b30:	80 eb       	ldi	r24, 0xB0	; 176
    3b32:	92 e0       	ldi	r25, 0x02	; 2
    3b34:	9a 87       	std	Y+10, r25	; 0x0a
    3b36:	89 87       	std	Y+9, r24	; 0x09
    3b38:	c8 01       	movw	r24, r16
    3b3a:	be 01       	movw	r22, r28
    3b3c:	67 5f       	subi	r22, 0xF7	; 247
    3b3e:	7f 4f       	sbci	r23, 0xFF	; 255
    3b40:	0e 94 6b 0d 	call	0x1ad6	; 0x1ad6 <_ZN7motor_t8positionERKi>
    3b44:	86 e0       	ldi	r24, 0x06	; 6
    3b46:	80 93 38 03 	sts	0x0338, r24
	motor[6].position(512);
    3b4a:	fc 86       	std	Y+12, r15	; 0x0c
    3b4c:	eb 86       	std	Y+11, r14	; 0x0b
    3b4e:	c8 01       	movw	r24, r16
    3b50:	be 01       	movw	r22, r28
    3b52:	65 5f       	subi	r22, 0xF5	; 245
    3b54:	7f 4f       	sbci	r23, 0xFF	; 255
    3b56:	0e 94 6b 0d 	call	0x1ad6	; 0x1ad6 <_ZN7motor_t8positionERKi>
    3b5a:	87 e0       	ldi	r24, 0x07	; 7
    3b5c:	80 93 38 03 	sts	0x0338, r24
	motor[7].position(512);
    3b60:	fe 86       	std	Y+14, r15	; 0x0e
    3b62:	ed 86       	std	Y+13, r14	; 0x0d
    3b64:	c8 01       	movw	r24, r16
    3b66:	be 01       	movw	r22, r28
    3b68:	63 5f       	subi	r22, 0xF3	; 243
    3b6a:	7f 4f       	sbci	r23, 0xFF	; 255
    3b6c:	0e 94 6b 0d 	call	0x1ad6	; 0x1ad6 <_ZN7motor_t8positionERKi>
}
    3b70:	2e 96       	adiw	r28, 0x0e	; 14
    3b72:	0f b6       	in	r0, 0x3f	; 63
    3b74:	f8 94       	cli
    3b76:	de bf       	out	0x3e, r29	; 62
    3b78:	0f be       	out	0x3f, r0	; 63
    3b7a:	cd bf       	out	0x3d, r28	; 61
    3b7c:	cf 91       	pop	r28
    3b7e:	df 91       	pop	r29
    3b80:	1f 91       	pop	r17
    3b82:	0f 91       	pop	r16
    3b84:	ff 90       	pop	r15
    3b86:	ef 90       	pop	r14
    3b88:	08 95       	ret

00003b8a <_Z19chlivek_start_robotv>:
	syncWait(2000000);
}

void chlivek_start_robot()//presune figurku z chlivku na start robota
{
	zakladni_pozice();
    3b8a:	0e 94 50 1d 	call	0x3aa0	; 0x3aa0 <_Z15zakladni_pozicev>
	chlivek_robot_pozice33();
    3b8e:	0e 94 bc 13 	call	0x2778	; 0x2778 <_Z22chlivek_robot_pozice33v>
}
    3b92:	08 95       	ret

00003b94 <_Z24vyloz_na_pozici_chlivek1v>:
	motor[5].position(688);
	motor[6].position(486);
	motor[7].position(548);
	syncWait(2000000);
}
void vyloz_na_pozici_chlivek1()
    3b94:	2f 92       	push	r2
    3b96:	3f 92       	push	r3
    3b98:	4f 92       	push	r4
    3b9a:	5f 92       	push	r5
    3b9c:	6f 92       	push	r6
    3b9e:	7f 92       	push	r7
    3ba0:	8f 92       	push	r8
    3ba2:	9f 92       	push	r9
    3ba4:	af 92       	push	r10
    3ba6:	bf 92       	push	r11
    3ba8:	cf 92       	push	r12
    3baa:	df 92       	push	r13
    3bac:	ef 92       	push	r14
    3bae:	ff 92       	push	r15
    3bb0:	0f 93       	push	r16
    3bb2:	1f 93       	push	r17
    3bb4:	df 93       	push	r29
    3bb6:	cf 93       	push	r28
    3bb8:	cd b7       	in	r28, 0x3d	; 61
    3bba:	de b7       	in	r29, 0x3e	; 62
    3bbc:	e8 97       	sbiw	r28, 0x38	; 56
    3bbe:	0f b6       	in	r0, 0x3f	; 63
    3bc0:	f8 94       	cli
    3bc2:	de bf       	out	0x3e, r29	; 62
    3bc4:	0f be       	out	0x3f, r0	; 63
    3bc6:	cd bf       	out	0x3d, r28	; 61
    3bc8:	08 e3       	ldi	r16, 0x38	; 56
    3bca:	13 e0       	ldi	r17, 0x03	; 3
    3bcc:	81 e0       	ldi	r24, 0x01	; 1
    3bce:	80 93 38 03 	sts	0x0338, r24
{
	//robot nad chlivkem
	motor[1].position(198);
    3bd2:	86 ec       	ldi	r24, 0xC6	; 198
    3bd4:	90 e0       	ldi	r25, 0x00	; 0
    3bd6:	9a 83       	std	Y+2, r25	; 0x02
    3bd8:	89 83       	std	Y+1, r24	; 0x01
    3bda:	c8 01       	movw	r24, r16
    3bdc:	be 01       	movw	r22, r28
    3bde:	6f 5f       	subi	r22, 0xFF	; 255
    3be0:	7f 4f       	sbci	r23, 0xFF	; 255
    3be2:	0e 94 6b 0d 	call	0x1ad6	; 0x1ad6 <_ZN7motor_t8positionERKi>
    3be6:	92 e0       	ldi	r25, 0x02	; 2
    3be8:	90 93 38 03 	sts	0x0338, r25
	motor[2].position(500);
    3bec:	84 ef       	ldi	r24, 0xF4	; 244
    3bee:	91 e0       	ldi	r25, 0x01	; 1
    3bf0:	9c 83       	std	Y+4, r25	; 0x04
    3bf2:	8b 83       	std	Y+3, r24	; 0x03
    3bf4:	c8 01       	movw	r24, r16
    3bf6:	be 01       	movw	r22, r28
    3bf8:	6d 5f       	subi	r22, 0xFD	; 253
    3bfa:	7f 4f       	sbci	r23, 0xFF	; 255
    3bfc:	0e 94 6b 0d 	call	0x1ad6	; 0x1ad6 <_ZN7motor_t8positionERKi>
    3c00:	83 e0       	ldi	r24, 0x03	; 3
    3c02:	80 93 38 03 	sts	0x0338, r24
	motor[3].position(700);
    3c06:	8c eb       	ldi	r24, 0xBC	; 188
    3c08:	92 e0       	ldi	r25, 0x02	; 2
    3c0a:	9e 83       	std	Y+6, r25	; 0x06
    3c0c:	8d 83       	std	Y+5, r24	; 0x05
    3c0e:	c8 01       	movw	r24, r16
    3c10:	be 01       	movw	r22, r28
    3c12:	6b 5f       	subi	r22, 0xFB	; 251
    3c14:	7f 4f       	sbci	r23, 0xFF	; 255
    3c16:	0e 94 6b 0d 	call	0x1ad6	; 0x1ad6 <_ZN7motor_t8positionERKi>
    3c1a:	94 e0       	ldi	r25, 0x04	; 4
    3c1c:	90 93 38 03 	sts	0x0338, r25
	motor[4].position(314);
    3c20:	8a e3       	ldi	r24, 0x3A	; 58
    3c22:	91 e0       	ldi	r25, 0x01	; 1
    3c24:	98 87       	std	Y+8, r25	; 0x08
    3c26:	8f 83       	std	Y+7, r24	; 0x07
    3c28:	c8 01       	movw	r24, r16
    3c2a:	be 01       	movw	r22, r28
    3c2c:	69 5f       	subi	r22, 0xF9	; 249
    3c2e:	7f 4f       	sbci	r23, 0xFF	; 255
    3c30:	0e 94 6b 0d 	call	0x1ad6	; 0x1ad6 <_ZN7motor_t8positionERKi>
    3c34:	85 e0       	ldi	r24, 0x05	; 5
    3c36:	80 93 38 03 	sts	0x0338, r24
	motor[5].position(248);
    3c3a:	88 ef       	ldi	r24, 0xF8	; 248
    3c3c:	90 e0       	ldi	r25, 0x00	; 0
    3c3e:	9a 87       	std	Y+10, r25	; 0x0a
    3c40:	89 87       	std	Y+9, r24	; 0x09
    3c42:	c8 01       	movw	r24, r16
    3c44:	be 01       	movw	r22, r28
    3c46:	67 5f       	subi	r22, 0xF7	; 247
    3c48:	7f 4f       	sbci	r23, 0xFF	; 255
    3c4a:	0e 94 6b 0d 	call	0x1ad6	; 0x1ad6 <_ZN7motor_t8positionERKi>
    3c4e:	96 e0       	ldi	r25, 0x06	; 6
    3c50:	90 93 38 03 	sts	0x0338, r25
	motor[6].position(530);
    3c54:	f2 e1       	ldi	r31, 0x12	; 18
    3c56:	2f 2e       	mov	r2, r31
    3c58:	f2 e0       	ldi	r31, 0x02	; 2
    3c5a:	3f 2e       	mov	r3, r31
    3c5c:	3c 86       	std	Y+12, r3	; 0x0c
    3c5e:	2b 86       	std	Y+11, r2	; 0x0b
    3c60:	c8 01       	movw	r24, r16
    3c62:	be 01       	movw	r22, r28
    3c64:	65 5f       	subi	r22, 0xF5	; 245
    3c66:	7f 4f       	sbci	r23, 0xFF	; 255
    3c68:	0e 94 6b 0d 	call	0x1ad6	; 0x1ad6 <_ZN7motor_t8positionERKi>
    3c6c:	87 e0       	ldi	r24, 0x07	; 7
    3c6e:	80 93 38 03 	sts	0x0338, r24
	motor[7].position(494);
    3c72:	ee ee       	ldi	r30, 0xEE	; 238
    3c74:	4e 2e       	mov	r4, r30
    3c76:	e1 e0       	ldi	r30, 0x01	; 1
    3c78:	5e 2e       	mov	r5, r30
    3c7a:	5e 86       	std	Y+14, r5	; 0x0e
    3c7c:	4d 86       	std	Y+13, r4	; 0x0d
    3c7e:	c8 01       	movw	r24, r16
    3c80:	be 01       	movw	r22, r28
    3c82:	63 5f       	subi	r22, 0xF3	; 243
    3c84:	7f 4f       	sbci	r23, 0xFF	; 255
    3c86:	0e 94 6b 0d 	call	0x1ad6	; 0x1ad6 <_ZN7motor_t8positionERKi>
	syncWait(2000000);
    3c8a:	60 e8       	ldi	r22, 0x80	; 128
    3c8c:	74 e8       	ldi	r23, 0x84	; 132
    3c8e:	8e e1       	ldi	r24, 0x1E	; 30
    3c90:	90 e0       	ldi	r25, 0x00	; 0
    3c92:	0e 94 e1 00 	call	0x1c2	; 0x1c2 <_Z8syncWaitm>
    3c96:	91 e0       	ldi	r25, 0x01	; 1
    3c98:	90 93 38 03 	sts	0x0338, r25
	//polozi figurku
	motor[1].position(197);
    3c9c:	75 ec       	ldi	r23, 0xC5	; 197
    3c9e:	67 2e       	mov	r6, r23
    3ca0:	71 2c       	mov	r7, r1
    3ca2:	78 8a       	std	Y+16, r7	; 0x10
    3ca4:	6f 86       	std	Y+15, r6	; 0x0f
    3ca6:	c8 01       	movw	r24, r16
    3ca8:	be 01       	movw	r22, r28
    3caa:	61 5f       	subi	r22, 0xF1	; 241
    3cac:	7f 4f       	sbci	r23, 0xFF	; 255
    3cae:	0e 94 6b 0d 	call	0x1ad6	; 0x1ad6 <_ZN7motor_t8positionERKi>
    3cb2:	82 e0       	ldi	r24, 0x02	; 2
    3cb4:	80 93 38 03 	sts	0x0338, r24
	motor[2].position(570);
    3cb8:	6a e3       	ldi	r22, 0x3A	; 58
    3cba:	86 2e       	mov	r8, r22
    3cbc:	62 e0       	ldi	r22, 0x02	; 2
    3cbe:	96 2e       	mov	r9, r22
    3cc0:	9a 8a       	std	Y+18, r9	; 0x12
    3cc2:	89 8a       	std	Y+17, r8	; 0x11
    3cc4:	c8 01       	movw	r24, r16
    3cc6:	be 01       	movw	r22, r28
    3cc8:	6f 5e       	subi	r22, 0xEF	; 239
    3cca:	7f 4f       	sbci	r23, 0xFF	; 255
    3ccc:	0e 94 6b 0d 	call	0x1ad6	; 0x1ad6 <_ZN7motor_t8positionERKi>
    3cd0:	93 e0       	ldi	r25, 0x03	; 3
    3cd2:	90 93 38 03 	sts	0x0338, r25
	motor[3].position(324);
    3cd6:	54 e4       	ldi	r21, 0x44	; 68
    3cd8:	a5 2e       	mov	r10, r21
    3cda:	51 e0       	ldi	r21, 0x01	; 1
    3cdc:	b5 2e       	mov	r11, r21
    3cde:	bc 8a       	std	Y+20, r11	; 0x14
    3ce0:	ab 8a       	std	Y+19, r10	; 0x13
    3ce2:	c8 01       	movw	r24, r16
    3ce4:	be 01       	movw	r22, r28
    3ce6:	6d 5e       	subi	r22, 0xED	; 237
    3ce8:	7f 4f       	sbci	r23, 0xFF	; 255
    3cea:	0e 94 6b 0d 	call	0x1ad6	; 0x1ad6 <_ZN7motor_t8positionERKi>
    3cee:	84 e0       	ldi	r24, 0x04	; 4
    3cf0:	80 93 38 03 	sts	0x0338, r24
	motor[4].position(336);
    3cf4:	40 e5       	ldi	r20, 0x50	; 80
    3cf6:	c4 2e       	mov	r12, r20
    3cf8:	41 e0       	ldi	r20, 0x01	; 1
    3cfa:	d4 2e       	mov	r13, r20
    3cfc:	de 8a       	std	Y+22, r13	; 0x16
    3cfe:	cd 8a       	std	Y+21, r12	; 0x15
    3d00:	c8 01       	movw	r24, r16
    3d02:	be 01       	movw	r22, r28
    3d04:	6b 5e       	subi	r22, 0xEB	; 235
    3d06:	7f 4f       	sbci	r23, 0xFF	; 255
    3d08:	0e 94 6b 0d 	call	0x1ad6	; 0x1ad6 <_ZN7motor_t8positionERKi>
    3d0c:	95 e0       	ldi	r25, 0x05	; 5
    3d0e:	90 93 38 03 	sts	0x0338, r25
	motor[5].position(270);
    3d12:	3e e0       	ldi	r19, 0x0E	; 14
    3d14:	e3 2e       	mov	r14, r19
    3d16:	31 e0       	ldi	r19, 0x01	; 1
    3d18:	f3 2e       	mov	r15, r19
    3d1a:	f8 8e       	std	Y+24, r15	; 0x18
    3d1c:	ef 8a       	std	Y+23, r14	; 0x17
    3d1e:	c8 01       	movw	r24, r16
    3d20:	be 01       	movw	r22, r28
    3d22:	69 5e       	subi	r22, 0xE9	; 233
    3d24:	7f 4f       	sbci	r23, 0xFF	; 255
    3d26:	0e 94 6b 0d 	call	0x1ad6	; 0x1ad6 <_ZN7motor_t8positionERKi>
    3d2a:	86 e0       	ldi	r24, 0x06	; 6
    3d2c:	80 93 38 03 	sts	0x0338, r24
	motor[6].position(530);
    3d30:	3a 8e       	std	Y+26, r3	; 0x1a
    3d32:	29 8e       	std	Y+25, r2	; 0x19
    3d34:	c8 01       	movw	r24, r16
    3d36:	be 01       	movw	r22, r28
    3d38:	67 5e       	subi	r22, 0xE7	; 231
    3d3a:	7f 4f       	sbci	r23, 0xFF	; 255
    3d3c:	0e 94 6b 0d 	call	0x1ad6	; 0x1ad6 <_ZN7motor_t8positionERKi>
    3d40:	97 e0       	ldi	r25, 0x07	; 7
    3d42:	90 93 38 03 	sts	0x0338, r25
	motor[7].position(494);
    3d46:	5c 8e       	std	Y+28, r5	; 0x1c
    3d48:	4b 8e       	std	Y+27, r4	; 0x1b
    3d4a:	c8 01       	movw	r24, r16
    3d4c:	be 01       	movw	r22, r28
    3d4e:	65 5e       	subi	r22, 0xE5	; 229
    3d50:	7f 4f       	sbci	r23, 0xFF	; 255
    3d52:	0e 94 6b 0d 	call	0x1ad6	; 0x1ad6 <_ZN7motor_t8positionERKi>
	syncWait(5000000);
    3d56:	60 e4       	ldi	r22, 0x40	; 64
    3d58:	7b e4       	ldi	r23, 0x4B	; 75
    3d5a:	8c e4       	ldi	r24, 0x4C	; 76
    3d5c:	90 e0       	ldi	r25, 0x00	; 0
    3d5e:	0e 94 e1 00 	call	0x1c2	; 0x1c2 <_Z8syncWaitm>
    3d62:	81 e0       	ldi	r24, 0x01	; 1
    3d64:	80 93 38 03 	sts	0x0338, r24
	//otevre celisti
	motor[1].position(197);
    3d68:	7e 8e       	std	Y+30, r7	; 0x1e
    3d6a:	6d 8e       	std	Y+29, r6	; 0x1d
    3d6c:	c8 01       	movw	r24, r16
    3d6e:	be 01       	movw	r22, r28
    3d70:	63 5e       	subi	r22, 0xE3	; 227
    3d72:	7f 4f       	sbci	r23, 0xFF	; 255
    3d74:	0e 94 6b 0d 	call	0x1ad6	; 0x1ad6 <_ZN7motor_t8positionERKi>
    3d78:	92 e0       	ldi	r25, 0x02	; 2
    3d7a:	90 93 38 03 	sts	0x0338, r25
	motor[2].position(570);
    3d7e:	98 a2       	std	Y+32, r9	; 0x20
    3d80:	8f 8e       	std	Y+31, r8	; 0x1f
    3d82:	c8 01       	movw	r24, r16
    3d84:	be 01       	movw	r22, r28
    3d86:	61 5e       	subi	r22, 0xE1	; 225
    3d88:	7f 4f       	sbci	r23, 0xFF	; 255
    3d8a:	0e 94 6b 0d 	call	0x1ad6	; 0x1ad6 <_ZN7motor_t8positionERKi>
    3d8e:	83 e0       	ldi	r24, 0x03	; 3
    3d90:	80 93 38 03 	sts	0x0338, r24
	motor[3].position(324);
    3d94:	ba a2       	std	Y+34, r11	; 0x22
    3d96:	a9 a2       	std	Y+33, r10	; 0x21
    3d98:	c8 01       	movw	r24, r16
    3d9a:	be 01       	movw	r22, r28
    3d9c:	6f 5d       	subi	r22, 0xDF	; 223
    3d9e:	7f 4f       	sbci	r23, 0xFF	; 255
    3da0:	0e 94 6b 0d 	call	0x1ad6	; 0x1ad6 <_ZN7motor_t8positionERKi>
    3da4:	94 e0       	ldi	r25, 0x04	; 4
    3da6:	90 93 38 03 	sts	0x0338, r25
	motor[4].position(336);
    3daa:	dc a2       	std	Y+36, r13	; 0x24
    3dac:	cb a2       	std	Y+35, r12	; 0x23
    3dae:	c8 01       	movw	r24, r16
    3db0:	be 01       	movw	r22, r28
    3db2:	6d 5d       	subi	r22, 0xDD	; 221
    3db4:	7f 4f       	sbci	r23, 0xFF	; 255
    3db6:	0e 94 6b 0d 	call	0x1ad6	; 0x1ad6 <_ZN7motor_t8positionERKi>
    3dba:	85 e0       	ldi	r24, 0x05	; 5
    3dbc:	80 93 38 03 	sts	0x0338, r24
	motor[5].position(270);
    3dc0:	fe a2       	std	Y+38, r15	; 0x26
    3dc2:	ed a2       	std	Y+37, r14	; 0x25
    3dc4:	c8 01       	movw	r24, r16
    3dc6:	be 01       	movw	r22, r28
    3dc8:	6b 5d       	subi	r22, 0xDB	; 219
    3dca:	7f 4f       	sbci	r23, 0xFF	; 255
    3dcc:	0e 94 6b 0d 	call	0x1ad6	; 0x1ad6 <_ZN7motor_t8positionERKi>
    3dd0:	96 e0       	ldi	r25, 0x06	; 6
    3dd2:	90 93 38 03 	sts	0x0338, r25
	motor[6].position(486);
    3dd6:	26 ee       	ldi	r18, 0xE6	; 230
    3dd8:	c2 2e       	mov	r12, r18
    3dda:	21 e0       	ldi	r18, 0x01	; 1
    3ddc:	d2 2e       	mov	r13, r18
    3dde:	d8 a6       	std	Y+40, r13	; 0x28
    3de0:	cf a2       	std	Y+39, r12	; 0x27
    3de2:	c8 01       	movw	r24, r16
    3de4:	be 01       	movw	r22, r28
    3de6:	69 5d       	subi	r22, 0xD9	; 217
    3de8:	7f 4f       	sbci	r23, 0xFF	; 255
    3dea:	0e 94 6b 0d 	call	0x1ad6	; 0x1ad6 <_ZN7motor_t8positionERKi>
    3dee:	87 e0       	ldi	r24, 0x07	; 7
    3df0:	80 93 38 03 	sts	0x0338, r24
	motor[7].position(524);
    3df4:	9c e0       	ldi	r25, 0x0C	; 12
    3df6:	e9 2e       	mov	r14, r25
    3df8:	92 e0       	ldi	r25, 0x02	; 2
    3dfa:	f9 2e       	mov	r15, r25
    3dfc:	fa a6       	std	Y+42, r15	; 0x2a
    3dfe:	e9 a6       	std	Y+41, r14	; 0x29
    3e00:	c8 01       	movw	r24, r16
    3e02:	be 01       	movw	r22, r28
    3e04:	67 5d       	subi	r22, 0xD7	; 215
    3e06:	7f 4f       	sbci	r23, 0xFF	; 255
    3e08:	0e 94 6b 0d 	call	0x1ad6	; 0x1ad6 <_ZN7motor_t8positionERKi>
	syncWait(2000000);
    3e0c:	60 e8       	ldi	r22, 0x80	; 128
    3e0e:	74 e8       	ldi	r23, 0x84	; 132
    3e10:	8e e1       	ldi	r24, 0x1E	; 30
    3e12:	90 e0       	ldi	r25, 0x00	; 0
    3e14:	0e 94 e1 00 	call	0x1c2	; 0x1c2 <_Z8syncWaitm>
    3e18:	91 e0       	ldi	r25, 0x01	; 1
    3e1a:	90 93 38 03 	sts	0x0338, r25
	//rameno nahoru
	motor[1].position(198);
    3e1e:	86 ec       	ldi	r24, 0xC6	; 198
    3e20:	90 e0       	ldi	r25, 0x00	; 0
    3e22:	9c a7       	std	Y+44, r25	; 0x2c
    3e24:	8b a7       	std	Y+43, r24	; 0x2b
    3e26:	c8 01       	movw	r24, r16
    3e28:	be 01       	movw	r22, r28
    3e2a:	65 5d       	subi	r22, 0xD5	; 213
    3e2c:	7f 4f       	sbci	r23, 0xFF	; 255
    3e2e:	0e 94 6b 0d 	call	0x1ad6	; 0x1ad6 <_ZN7motor_t8positionERKi>
    3e32:	92 e0       	ldi	r25, 0x02	; 2
    3e34:	90 93 38 03 	sts	0x0338, r25
	motor[2].position(750);
    3e38:	8e ee       	ldi	r24, 0xEE	; 238
    3e3a:	92 e0       	ldi	r25, 0x02	; 2
    3e3c:	9e a7       	std	Y+46, r25	; 0x2e
    3e3e:	8d a7       	std	Y+45, r24	; 0x2d
    3e40:	c8 01       	movw	r24, r16
    3e42:	be 01       	movw	r22, r28
    3e44:	63 5d       	subi	r22, 0xD3	; 211
    3e46:	7f 4f       	sbci	r23, 0xFF	; 255
    3e48:	0e 94 6b 0d 	call	0x1ad6	; 0x1ad6 <_ZN7motor_t8positionERKi>
    3e4c:	83 e0       	ldi	r24, 0x03	; 3
    3e4e:	80 93 38 03 	sts	0x0338, r24
	motor[3].position(292);
    3e52:	84 e2       	ldi	r24, 0x24	; 36
    3e54:	91 e0       	ldi	r25, 0x01	; 1
    3e56:	98 ab       	std	Y+48, r25	; 0x30
    3e58:	8f a7       	std	Y+47, r24	; 0x2f
    3e5a:	c8 01       	movw	r24, r16
    3e5c:	be 01       	movw	r22, r28
    3e5e:	61 5d       	subi	r22, 0xD1	; 209
    3e60:	7f 4f       	sbci	r23, 0xFF	; 255
    3e62:	0e 94 6b 0d 	call	0x1ad6	; 0x1ad6 <_ZN7motor_t8positionERKi>
    3e66:	94 e0       	ldi	r25, 0x04	; 4
    3e68:	90 93 38 03 	sts	0x0338, r25
	motor[4].position(373);
    3e6c:	85 e7       	ldi	r24, 0x75	; 117
    3e6e:	91 e0       	ldi	r25, 0x01	; 1
    3e70:	9a ab       	std	Y+50, r25	; 0x32
    3e72:	89 ab       	std	Y+49, r24	; 0x31
    3e74:	c8 01       	movw	r24, r16
    3e76:	be 01       	movw	r22, r28
    3e78:	6f 5c       	subi	r22, 0xCF	; 207
    3e7a:	7f 4f       	sbci	r23, 0xFF	; 255
    3e7c:	0e 94 6b 0d 	call	0x1ad6	; 0x1ad6 <_ZN7motor_t8positionERKi>
    3e80:	85 e0       	ldi	r24, 0x05	; 5
    3e82:	80 93 38 03 	sts	0x0338, r24
	motor[5].position(200);
    3e86:	88 ec       	ldi	r24, 0xC8	; 200
    3e88:	90 e0       	ldi	r25, 0x00	; 0
    3e8a:	9c ab       	std	Y+52, r25	; 0x34
    3e8c:	8b ab       	std	Y+51, r24	; 0x33
    3e8e:	c8 01       	movw	r24, r16
    3e90:	be 01       	movw	r22, r28
    3e92:	6d 5c       	subi	r22, 0xCD	; 205
    3e94:	7f 4f       	sbci	r23, 0xFF	; 255
    3e96:	0e 94 6b 0d 	call	0x1ad6	; 0x1ad6 <_ZN7motor_t8positionERKi>
    3e9a:	96 e0       	ldi	r25, 0x06	; 6
    3e9c:	90 93 38 03 	sts	0x0338, r25
	motor[6].position(486);
    3ea0:	de aa       	std	Y+54, r13	; 0x36
    3ea2:	cd aa       	std	Y+53, r12	; 0x35
    3ea4:	c8 01       	movw	r24, r16
    3ea6:	be 01       	movw	r22, r28
    3ea8:	6b 5c       	subi	r22, 0xCB	; 203
    3eaa:	7f 4f       	sbci	r23, 0xFF	; 255
    3eac:	0e 94 6b 0d 	call	0x1ad6	; 0x1ad6 <_ZN7motor_t8positionERKi>
    3eb0:	87 e0       	ldi	r24, 0x07	; 7
    3eb2:	80 93 38 03 	sts	0x0338, r24
	motor[7].position(524);
    3eb6:	f8 ae       	std	Y+56, r15	; 0x38
    3eb8:	ef aa       	std	Y+55, r14	; 0x37
    3eba:	c8 01       	movw	r24, r16
    3ebc:	be 01       	movw	r22, r28
    3ebe:	69 5c       	subi	r22, 0xC9	; 201
    3ec0:	7f 4f       	sbci	r23, 0xFF	; 255
    3ec2:	0e 94 6b 0d 	call	0x1ad6	; 0x1ad6 <_ZN7motor_t8positionERKi>
	syncWait(2000000);
    3ec6:	60 e8       	ldi	r22, 0x80	; 128
    3ec8:	74 e8       	ldi	r23, 0x84	; 132
    3eca:	8e e1       	ldi	r24, 0x1E	; 30
    3ecc:	90 e0       	ldi	r25, 0x00	; 0
    3ece:	0e 94 e1 00 	call	0x1c2	; 0x1c2 <_Z8syncWaitm>

}
    3ed2:	e8 96       	adiw	r28, 0x38	; 56
    3ed4:	0f b6       	in	r0, 0x3f	; 63
    3ed6:	f8 94       	cli
    3ed8:	de bf       	out	0x3e, r29	; 62
    3eda:	0f be       	out	0x3f, r0	; 63
    3edc:	cd bf       	out	0x3d, r28	; 61
    3ede:	cf 91       	pop	r28
    3ee0:	df 91       	pop	r29
    3ee2:	1f 91       	pop	r17
    3ee4:	0f 91       	pop	r16
    3ee6:	ff 90       	pop	r15
    3ee8:	ef 90       	pop	r14
    3eea:	df 90       	pop	r13
    3eec:	cf 90       	pop	r12
    3eee:	bf 90       	pop	r11
    3ef0:	af 90       	pop	r10
    3ef2:	9f 90       	pop	r9
    3ef4:	8f 90       	pop	r8
    3ef6:	7f 90       	pop	r7
    3ef8:	6f 90       	pop	r6
    3efa:	5f 90       	pop	r5
    3efc:	4f 90       	pop	r4
    3efe:	3f 90       	pop	r3
    3f00:	2f 90       	pop	r2
    3f02:	08 95       	ret

00003f04 <_Z5vylozv>:
	motor[6].position(530);
	motor[7].position(494);
	syncWait(3000000);
}

void vyloz()
    3f04:	2f 92       	push	r2
    3f06:	3f 92       	push	r3
    3f08:	4f 92       	push	r4
    3f0a:	5f 92       	push	r5
    3f0c:	6f 92       	push	r6
    3f0e:	7f 92       	push	r7
    3f10:	8f 92       	push	r8
    3f12:	9f 92       	push	r9
    3f14:	af 92       	push	r10
    3f16:	bf 92       	push	r11
    3f18:	cf 92       	push	r12
    3f1a:	df 92       	push	r13
    3f1c:	ef 92       	push	r14
    3f1e:	ff 92       	push	r15
    3f20:	0f 93       	push	r16
    3f22:	1f 93       	push	r17
    3f24:	df 93       	push	r29
    3f26:	cf 93       	push	r28
    3f28:	cd b7       	in	r28, 0x3d	; 61
    3f2a:	de b7       	in	r29, 0x3e	; 62
    3f2c:	ec 97       	sbiw	r28, 0x3c	; 60
    3f2e:	0f b6       	in	r0, 0x3f	; 63
    3f30:	f8 94       	cli
    3f32:	de bf       	out	0x3e, r29	; 62
    3f34:	0f be       	out	0x3f, r0	; 63
    3f36:	cd bf       	out	0x3d, r28	; 61
    3f38:	08 e3       	ldi	r16, 0x38	; 56
    3f3a:	13 e0       	ldi	r17, 0x03	; 3
    3f3c:	82 e0       	ldi	r24, 0x02	; 2
    3f3e:	80 93 38 03 	sts	0x0338, r24
{
	//narovna rameno - zakladni pozice
	motor[2].position(500);
    3f42:	84 ef       	ldi	r24, 0xF4	; 244
    3f44:	91 e0       	ldi	r25, 0x01	; 1
    3f46:	9a 83       	std	Y+2, r25	; 0x02
    3f48:	89 83       	std	Y+1, r24	; 0x01
    3f4a:	c8 01       	movw	r24, r16
    3f4c:	be 01       	movw	r22, r28
    3f4e:	6f 5f       	subi	r22, 0xFF	; 255
    3f50:	7f 4f       	sbci	r23, 0xFF	; 255
    3f52:	0e 94 6b 0d 	call	0x1ad6	; 0x1ad6 <_ZN7motor_t8positionERKi>
    3f56:	83 e0       	ldi	r24, 0x03	; 3
    3f58:	80 93 38 03 	sts	0x0338, r24
	motor[3].position(700);
    3f5c:	8c eb       	ldi	r24, 0xBC	; 188
    3f5e:	92 e0       	ldi	r25, 0x02	; 2
    3f60:	9c 83       	std	Y+4, r25	; 0x04
    3f62:	8b 83       	std	Y+3, r24	; 0x03
    3f64:	c8 01       	movw	r24, r16
    3f66:	be 01       	movw	r22, r28
    3f68:	6d 5f       	subi	r22, 0xFD	; 253
    3f6a:	7f 4f       	sbci	r23, 0xFF	; 255
    3f6c:	0e 94 6b 0d 	call	0x1ad6	; 0x1ad6 <_ZN7motor_t8positionERKi>
    3f70:	84 e0       	ldi	r24, 0x04	; 4
    3f72:	80 93 38 03 	sts	0x0338, r24
	motor[4].position(314);
    3f76:	8a e3       	ldi	r24, 0x3A	; 58
    3f78:	91 e0       	ldi	r25, 0x01	; 1
    3f7a:	9e 83       	std	Y+6, r25	; 0x06
    3f7c:	8d 83       	std	Y+5, r24	; 0x05
    3f7e:	c8 01       	movw	r24, r16
    3f80:	be 01       	movw	r22, r28
    3f82:	6b 5f       	subi	r22, 0xFB	; 251
    3f84:	7f 4f       	sbci	r23, 0xFF	; 255
    3f86:	0e 94 6b 0d 	call	0x1ad6	; 0x1ad6 <_ZN7motor_t8positionERKi>
    3f8a:	85 e0       	ldi	r24, 0x05	; 5
    3f8c:	80 93 38 03 	sts	0x0338, r24
	motor[5].position(248);
    3f90:	88 ef       	ldi	r24, 0xF8	; 248
    3f92:	90 e0       	ldi	r25, 0x00	; 0
    3f94:	98 87       	std	Y+8, r25	; 0x08
    3f96:	8f 83       	std	Y+7, r24	; 0x07
    3f98:	c8 01       	movw	r24, r16
    3f9a:	be 01       	movw	r22, r28
    3f9c:	69 5f       	subi	r22, 0xF9	; 249
    3f9e:	7f 4f       	sbci	r23, 0xFF	; 255
    3fa0:	0e 94 6b 0d 	call	0x1ad6	; 0x1ad6 <_ZN7motor_t8positionERKi>
    3fa4:	e6 e0       	ldi	r30, 0x06	; 6
    3fa6:	2e 2e       	mov	r2, r30
    3fa8:	20 92 38 03 	sts	0x0338, r2
	motor[6].position(530);
    3fac:	72 e1       	ldi	r23, 0x12	; 18
    3fae:	47 2e       	mov	r4, r23
    3fb0:	72 e0       	ldi	r23, 0x02	; 2
    3fb2:	57 2e       	mov	r5, r23
    3fb4:	5a 86       	std	Y+10, r5	; 0x0a
    3fb6:	49 86       	std	Y+9, r4	; 0x09
    3fb8:	c8 01       	movw	r24, r16
    3fba:	be 01       	movw	r22, r28
    3fbc:	67 5f       	subi	r22, 0xF7	; 247
    3fbe:	7f 4f       	sbci	r23, 0xFF	; 255
    3fc0:	0e 94 6b 0d 	call	0x1ad6	; 0x1ad6 <_ZN7motor_t8positionERKi>
    3fc4:	67 e0       	ldi	r22, 0x07	; 7
    3fc6:	36 2e       	mov	r3, r22
    3fc8:	30 92 38 03 	sts	0x0338, r3
	motor[7].position(494);
    3fcc:	5e ee       	ldi	r21, 0xEE	; 238
    3fce:	65 2e       	mov	r6, r21
    3fd0:	51 e0       	ldi	r21, 0x01	; 1
    3fd2:	75 2e       	mov	r7, r21
    3fd4:	7c 86       	std	Y+12, r7	; 0x0c
    3fd6:	6b 86       	std	Y+11, r6	; 0x0b
    3fd8:	c8 01       	movw	r24, r16
    3fda:	be 01       	movw	r22, r28
    3fdc:	65 5f       	subi	r22, 0xF5	; 245
    3fde:	7f 4f       	sbci	r23, 0xFF	; 255
    3fe0:	0e 94 6b 0d 	call	0x1ad6	; 0x1ad6 <_ZN7motor_t8positionERKi>
	syncWait(3000000);
    3fe4:	60 ec       	ldi	r22, 0xC0	; 192
    3fe6:	76 ec       	ldi	r23, 0xC6	; 198
    3fe8:	8d e2       	ldi	r24, 0x2D	; 45
    3fea:	90 e0       	ldi	r25, 0x00	; 0
    3fec:	0e 94 e1 00 	call	0x1c2	; 0x1c2 <_Z8syncWaitm>
    3ff0:	82 e0       	ldi	r24, 0x02	; 2
    3ff2:	80 93 38 03 	sts	0x0338, r24
	//nad figurkou celisti zavrene
	motor[2].position(490);//480
    3ff6:	4a ee       	ldi	r20, 0xEA	; 234
    3ff8:	e4 2e       	mov	r14, r20
    3ffa:	41 e0       	ldi	r20, 0x01	; 1
    3ffc:	f4 2e       	mov	r15, r20
    3ffe:	fe 86       	std	Y+14, r15	; 0x0e
    4000:	ed 86       	std	Y+13, r14	; 0x0d
    4002:	c8 01       	movw	r24, r16
    4004:	be 01       	movw	r22, r28
    4006:	63 5f       	subi	r22, 0xF3	; 243
    4008:	7f 4f       	sbci	r23, 0xFF	; 255
    400a:	0e 94 6b 0d 	call	0x1ad6	; 0x1ad6 <_ZN7motor_t8positionERKi>
    400e:	83 e0       	ldi	r24, 0x03	; 3
    4010:	80 93 38 03 	sts	0x0338, r24
	motor[3].position(435);
    4014:	33 eb       	ldi	r19, 0xB3	; 179
    4016:	83 2e       	mov	r8, r19
    4018:	31 e0       	ldi	r19, 0x01	; 1
    401a:	93 2e       	mov	r9, r19
    401c:	98 8a       	std	Y+16, r9	; 0x10
    401e:	8f 86       	std	Y+15, r8	; 0x0f
    4020:	c8 01       	movw	r24, r16
    4022:	be 01       	movw	r22, r28
    4024:	61 5f       	subi	r22, 0xF1	; 241
    4026:	7f 4f       	sbci	r23, 0xFF	; 255
    4028:	0e 94 6b 0d 	call	0x1ad6	; 0x1ad6 <_ZN7motor_t8positionERKi>
    402c:	84 e0       	ldi	r24, 0x04	; 4
    402e:	80 93 38 03 	sts	0x0338, r24
	motor[4].position(320);
    4032:	20 e4       	ldi	r18, 0x40	; 64
    4034:	a2 2e       	mov	r10, r18
    4036:	21 e0       	ldi	r18, 0x01	; 1
    4038:	b2 2e       	mov	r11, r18
    403a:	ba 8a       	std	Y+18, r11	; 0x12
    403c:	a9 8a       	std	Y+17, r10	; 0x11
    403e:	c8 01       	movw	r24, r16
    4040:	be 01       	movw	r22, r28
    4042:	6f 5e       	subi	r22, 0xEF	; 239
    4044:	7f 4f       	sbci	r23, 0xFF	; 255
    4046:	0e 94 6b 0d 	call	0x1ad6	; 0x1ad6 <_ZN7motor_t8positionERKi>
    404a:	85 e0       	ldi	r24, 0x05	; 5
    404c:	80 93 38 03 	sts	0x0338, r24
	motor[5].position(260);
    4050:	94 e0       	ldi	r25, 0x04	; 4
    4052:	c9 2e       	mov	r12, r25
    4054:	91 e0       	ldi	r25, 0x01	; 1
    4056:	d9 2e       	mov	r13, r25
    4058:	dc 8a       	std	Y+20, r13	; 0x14
    405a:	cb 8a       	std	Y+19, r12	; 0x13
    405c:	c8 01       	movw	r24, r16
    405e:	be 01       	movw	r22, r28
    4060:	6d 5e       	subi	r22, 0xED	; 237
    4062:	7f 4f       	sbci	r23, 0xFF	; 255
    4064:	0e 94 6b 0d 	call	0x1ad6	; 0x1ad6 <_ZN7motor_t8positionERKi>
    4068:	20 92 38 03 	sts	0x0338, r2
	motor[6].position(530);
    406c:	5e 8a       	std	Y+22, r5	; 0x16
    406e:	4d 8a       	std	Y+21, r4	; 0x15
    4070:	c8 01       	movw	r24, r16
    4072:	be 01       	movw	r22, r28
    4074:	6b 5e       	subi	r22, 0xEB	; 235
    4076:	7f 4f       	sbci	r23, 0xFF	; 255
    4078:	0e 94 6b 0d 	call	0x1ad6	; 0x1ad6 <_ZN7motor_t8positionERKi>
    407c:	30 92 38 03 	sts	0x0338, r3
	motor[7].position(494);
    4080:	78 8e       	std	Y+24, r7	; 0x18
    4082:	6f 8a       	std	Y+23, r6	; 0x17
    4084:	c8 01       	movw	r24, r16
    4086:	be 01       	movw	r22, r28
    4088:	69 5e       	subi	r22, 0xE9	; 233
    408a:	7f 4f       	sbci	r23, 0xFF	; 255
    408c:	0e 94 6b 0d 	call	0x1ad6	; 0x1ad6 <_ZN7motor_t8positionERKi>
	syncWait(3000000);
    4090:	60 ec       	ldi	r22, 0xC0	; 192
    4092:	76 ec       	ldi	r23, 0xC6	; 198
    4094:	8d e2       	ldi	r24, 0x2D	; 45
    4096:	90 e0       	ldi	r25, 0x00	; 0
    4098:	0e 94 e1 00 	call	0x1c2	; 0x1c2 <_Z8syncWaitm>
    409c:	82 e0       	ldi	r24, 0x02	; 2
    409e:	80 93 38 03 	sts	0x0338, r24
	//srovnani figurky v celistech
	motor[2].position(490);//480
    40a2:	fa 8e       	std	Y+26, r15	; 0x1a
    40a4:	e9 8e       	std	Y+25, r14	; 0x19
    40a6:	c8 01       	movw	r24, r16
    40a8:	be 01       	movw	r22, r28
    40aa:	67 5e       	subi	r22, 0xE7	; 231
    40ac:	7f 4f       	sbci	r23, 0xFF	; 255
    40ae:	0e 94 6b 0d 	call	0x1ad6	; 0x1ad6 <_ZN7motor_t8positionERKi>
    40b2:	83 e0       	ldi	r24, 0x03	; 3
    40b4:	80 93 38 03 	sts	0x0338, r24
	motor[3].position(435);
    40b8:	9c 8e       	std	Y+28, r9	; 0x1c
    40ba:	8b 8e       	std	Y+27, r8	; 0x1b
    40bc:	c8 01       	movw	r24, r16
    40be:	be 01       	movw	r22, r28
    40c0:	65 5e       	subi	r22, 0xE5	; 229
    40c2:	7f 4f       	sbci	r23, 0xFF	; 255
    40c4:	0e 94 6b 0d 	call	0x1ad6	; 0x1ad6 <_ZN7motor_t8positionERKi>
    40c8:	84 e0       	ldi	r24, 0x04	; 4
    40ca:	80 93 38 03 	sts	0x0338, r24
	motor[4].position(320);
    40ce:	be 8e       	std	Y+30, r11	; 0x1e
    40d0:	ad 8e       	std	Y+29, r10	; 0x1d
    40d2:	c8 01       	movw	r24, r16
    40d4:	be 01       	movw	r22, r28
    40d6:	63 5e       	subi	r22, 0xE3	; 227
    40d8:	7f 4f       	sbci	r23, 0xFF	; 255
    40da:	0e 94 6b 0d 	call	0x1ad6	; 0x1ad6 <_ZN7motor_t8positionERKi>
    40de:	85 e0       	ldi	r24, 0x05	; 5
    40e0:	80 93 38 03 	sts	0x0338, r24
	motor[5].position(260);
    40e4:	d8 a2       	std	Y+32, r13	; 0x20
    40e6:	cf 8e       	std	Y+31, r12	; 0x1f
    40e8:	c8 01       	movw	r24, r16
    40ea:	be 01       	movw	r22, r28
    40ec:	61 5e       	subi	r22, 0xE1	; 225
    40ee:	7f 4f       	sbci	r23, 0xFF	; 255
    40f0:	0e 94 6b 0d 	call	0x1ad6	; 0x1ad6 <_ZN7motor_t8positionERKi>
    40f4:	20 92 38 03 	sts	0x0338, r2
	motor[6].position(510);
    40f8:	8e ef       	ldi	r24, 0xFE	; 254
    40fa:	e8 2e       	mov	r14, r24
    40fc:	81 e0       	ldi	r24, 0x01	; 1
    40fe:	f8 2e       	mov	r15, r24
    4100:	fa a2       	std	Y+34, r15	; 0x22
    4102:	e9 a2       	std	Y+33, r14	; 0x21
    4104:	c8 01       	movw	r24, r16
    4106:	be 01       	movw	r22, r28
    4108:	6f 5d       	subi	r22, 0xDF	; 223
    410a:	7f 4f       	sbci	r23, 0xFF	; 255
    410c:	0e 94 6b 0d 	call	0x1ad6	; 0x1ad6 <_ZN7motor_t8positionERKi>
    4110:	30 92 38 03 	sts	0x0338, r3
	motor[7].position(510);
    4114:	fc a2       	std	Y+36, r15	; 0x24
    4116:	eb a2       	std	Y+35, r14	; 0x23
    4118:	c8 01       	movw	r24, r16
    411a:	be 01       	movw	r22, r28
    411c:	6d 5d       	subi	r22, 0xDD	; 221
    411e:	7f 4f       	sbci	r23, 0xFF	; 255
    4120:	0e 94 6b 0d 	call	0x1ad6	; 0x1ad6 <_ZN7motor_t8positionERKi>
	syncWait(1500000);
    4124:	60 e6       	ldi	r22, 0x60	; 96
    4126:	73 ee       	ldi	r23, 0xE3	; 227
    4128:	86 e1       	ldi	r24, 0x16	; 22
    412a:	90 e0       	ldi	r25, 0x00	; 0
    412c:	0e 94 e1 00 	call	0x1c2	; 0x1c2 <_Z8syncWaitm>
    4130:	82 e0       	ldi	r24, 0x02	; 2
    4132:	80 93 38 03 	sts	0x0338, r24
	//nakloni se nad figurku
	motor[2].position(480);//480
    4136:	80 ee       	ldi	r24, 0xE0	; 224
    4138:	91 e0       	ldi	r25, 0x01	; 1
    413a:	9e a3       	std	Y+38, r25	; 0x26
    413c:	8d a3       	std	Y+37, r24	; 0x25
    413e:	c8 01       	movw	r24, r16
    4140:	be 01       	movw	r22, r28
    4142:	6b 5d       	subi	r22, 0xDB	; 219
    4144:	7f 4f       	sbci	r23, 0xFF	; 255
    4146:	0e 94 6b 0d 	call	0x1ad6	; 0x1ad6 <_ZN7motor_t8positionERKi>
    414a:	83 e0       	ldi	r24, 0x03	; 3
    414c:	80 93 38 03 	sts	0x0338, r24
	motor[3].position(435);
    4150:	98 a6       	std	Y+40, r9	; 0x28
    4152:	8f a2       	std	Y+39, r8	; 0x27
    4154:	c8 01       	movw	r24, r16
    4156:	be 01       	movw	r22, r28
    4158:	69 5d       	subi	r22, 0xD9	; 217
    415a:	7f 4f       	sbci	r23, 0xFF	; 255
    415c:	0e 94 6b 0d 	call	0x1ad6	; 0x1ad6 <_ZN7motor_t8positionERKi>
    4160:	84 e0       	ldi	r24, 0x04	; 4
    4162:	80 93 38 03 	sts	0x0338, r24
	motor[4].position(320);
    4166:	ba a6       	std	Y+42, r11	; 0x2a
    4168:	a9 a6       	std	Y+41, r10	; 0x29
    416a:	c8 01       	movw	r24, r16
    416c:	be 01       	movw	r22, r28
    416e:	67 5d       	subi	r22, 0xD7	; 215
    4170:	7f 4f       	sbci	r23, 0xFF	; 255
    4172:	0e 94 6b 0d 	call	0x1ad6	; 0x1ad6 <_ZN7motor_t8positionERKi>
    4176:	85 e0       	ldi	r24, 0x05	; 5
    4178:	80 93 38 03 	sts	0x0338, r24
	motor[5].position(260);
    417c:	dc a6       	std	Y+44, r13	; 0x2c
    417e:	cb a6       	std	Y+43, r12	; 0x2b
    4180:	c8 01       	movw	r24, r16
    4182:	be 01       	movw	r22, r28
    4184:	65 5d       	subi	r22, 0xD5	; 213
    4186:	7f 4f       	sbci	r23, 0xFF	; 255
    4188:	0e 94 6b 0d 	call	0x1ad6	; 0x1ad6 <_ZN7motor_t8positionERKi>
    418c:	20 92 38 03 	sts	0x0338, r2
	motor[6].position(486);
    4190:	b6 ee       	ldi	r27, 0xE6	; 230
    4192:	cb 2e       	mov	r12, r27
    4194:	b1 e0       	ldi	r27, 0x01	; 1
    4196:	db 2e       	mov	r13, r27
    4198:	de a6       	std	Y+46, r13	; 0x2e
    419a:	cd a6       	std	Y+45, r12	; 0x2d
    419c:	c8 01       	movw	r24, r16
    419e:	be 01       	movw	r22, r28
    41a0:	63 5d       	subi	r22, 0xD3	; 211
    41a2:	7f 4f       	sbci	r23, 0xFF	; 255
    41a4:	0e 94 6b 0d 	call	0x1ad6	; 0x1ad6 <_ZN7motor_t8positionERKi>
    41a8:	30 92 38 03 	sts	0x0338, r3
	motor[7].position(548);
    41ac:	a4 e2       	ldi	r26, 0x24	; 36
    41ae:	ea 2e       	mov	r14, r26
    41b0:	a2 e0       	ldi	r26, 0x02	; 2
    41b2:	fa 2e       	mov	r15, r26
    41b4:	f8 aa       	std	Y+48, r15	; 0x30
    41b6:	ef a6       	std	Y+47, r14	; 0x2f
    41b8:	c8 01       	movw	r24, r16
    41ba:	be 01       	movw	r22, r28
    41bc:	61 5d       	subi	r22, 0xD1	; 209
    41be:	7f 4f       	sbci	r23, 0xFF	; 255
    41c0:	0e 94 6b 0d 	call	0x1ad6	; 0x1ad6 <_ZN7motor_t8positionERKi>
	syncWait(3000000);
    41c4:	60 ec       	ldi	r22, 0xC0	; 192
    41c6:	76 ec       	ldi	r23, 0xC6	; 198
    41c8:	8d e2       	ldi	r24, 0x2D	; 45
    41ca:	90 e0       	ldi	r25, 0x00	; 0
    41cc:	0e 94 e1 00 	call	0x1c2	; 0x1c2 <_Z8syncWaitm>
    41d0:	82 e0       	ldi	r24, 0x02	; 2
    41d2:	80 93 38 03 	sts	0x0338, r24
	//natoci se nad pole
	motor[2].position(605);
    41d6:	8d e5       	ldi	r24, 0x5D	; 93
    41d8:	92 e0       	ldi	r25, 0x02	; 2
    41da:	9a ab       	std	Y+50, r25	; 0x32
    41dc:	89 ab       	std	Y+49, r24	; 0x31
    41de:	c8 01       	movw	r24, r16
    41e0:	be 01       	movw	r22, r28
    41e2:	6f 5c       	subi	r22, 0xCF	; 207
    41e4:	7f 4f       	sbci	r23, 0xFF	; 255
    41e6:	0e 94 6b 0d 	call	0x1ad6	; 0x1ad6 <_ZN7motor_t8positionERKi>
    41ea:	83 e0       	ldi	r24, 0x03	; 3
    41ec:	80 93 38 03 	sts	0x0338, r24
	motor[3].position(39);
    41f0:	87 e2       	ldi	r24, 0x27	; 39
    41f2:	90 e0       	ldi	r25, 0x00	; 0
    41f4:	9c ab       	std	Y+52, r25	; 0x34
    41f6:	8b ab       	std	Y+51, r24	; 0x33
    41f8:	c8 01       	movw	r24, r16
    41fa:	be 01       	movw	r22, r28
    41fc:	6d 5c       	subi	r22, 0xCD	; 205
    41fe:	7f 4f       	sbci	r23, 0xFF	; 255
    4200:	0e 94 6b 0d 	call	0x1ad6	; 0x1ad6 <_ZN7motor_t8positionERKi>
    4204:	84 e0       	ldi	r24, 0x04	; 4
    4206:	80 93 38 03 	sts	0x0338, r24
	motor[4].position(977);
    420a:	81 ed       	ldi	r24, 0xD1	; 209
    420c:	93 e0       	ldi	r25, 0x03	; 3
    420e:	9e ab       	std	Y+54, r25	; 0x36
    4210:	8d ab       	std	Y+53, r24	; 0x35
    4212:	c8 01       	movw	r24, r16
    4214:	be 01       	movw	r22, r28
    4216:	6b 5c       	subi	r22, 0xCB	; 203
    4218:	7f 4f       	sbci	r23, 0xFF	; 255
    421a:	0e 94 6b 0d 	call	0x1ad6	; 0x1ad6 <_ZN7motor_t8positionERKi>
    421e:	85 e0       	ldi	r24, 0x05	; 5
    4220:	80 93 38 03 	sts	0x0338, r24
	motor[5].position(688);
    4224:	80 eb       	ldi	r24, 0xB0	; 176
    4226:	92 e0       	ldi	r25, 0x02	; 2
    4228:	98 af       	std	Y+56, r25	; 0x38
    422a:	8f ab       	std	Y+55, r24	; 0x37
    422c:	c8 01       	movw	r24, r16
    422e:	be 01       	movw	r22, r28
    4230:	69 5c       	subi	r22, 0xC9	; 201
    4232:	7f 4f       	sbci	r23, 0xFF	; 255
    4234:	0e 94 6b 0d 	call	0x1ad6	; 0x1ad6 <_ZN7motor_t8positionERKi>
    4238:	20 92 38 03 	sts	0x0338, r2
	motor[6].position(486);
    423c:	da ae       	std	Y+58, r13	; 0x3a
    423e:	c9 ae       	std	Y+57, r12	; 0x39
    4240:	c8 01       	movw	r24, r16
    4242:	be 01       	movw	r22, r28
    4244:	67 5c       	subi	r22, 0xC7	; 199
    4246:	7f 4f       	sbci	r23, 0xFF	; 255
    4248:	0e 94 6b 0d 	call	0x1ad6	; 0x1ad6 <_ZN7motor_t8positionERKi>
    424c:	30 92 38 03 	sts	0x0338, r3
	motor[7].position(548);
    4250:	fc ae       	std	Y+60, r15	; 0x3c
    4252:	eb ae       	std	Y+59, r14	; 0x3b
    4254:	c8 01       	movw	r24, r16
    4256:	be 01       	movw	r22, r28
    4258:	65 5c       	subi	r22, 0xC5	; 197
    425a:	7f 4f       	sbci	r23, 0xFF	; 255
    425c:	0e 94 6b 0d 	call	0x1ad6	; 0x1ad6 <_ZN7motor_t8positionERKi>
	syncWait(2000000);
    4260:	60 e8       	ldi	r22, 0x80	; 128
    4262:	74 e8       	ldi	r23, 0x84	; 132
    4264:	8e e1       	ldi	r24, 0x1E	; 30
    4266:	90 e0       	ldi	r25, 0x00	; 0
    4268:	0e 94 e1 00 	call	0x1c2	; 0x1c2 <_Z8syncWaitm>
}
    426c:	ec 96       	adiw	r28, 0x3c	; 60
    426e:	0f b6       	in	r0, 0x3f	; 63
    4270:	f8 94       	cli
    4272:	de bf       	out	0x3e, r29	; 62
    4274:	0f be       	out	0x3f, r0	; 63
    4276:	cd bf       	out	0x3d, r28	; 61
    4278:	cf 91       	pop	r28
    427a:	df 91       	pop	r29
    427c:	1f 91       	pop	r17
    427e:	0f 91       	pop	r16
    4280:	ff 90       	pop	r15
    4282:	ef 90       	pop	r14
    4284:	df 90       	pop	r13
    4286:	cf 90       	pop	r12
    4288:	bf 90       	pop	r11
    428a:	af 90       	pop	r10
    428c:	9f 90       	pop	r9
    428e:	8f 90       	pop	r8
    4290:	7f 90       	pop	r7
    4292:	6f 90       	pop	r6
    4294:	5f 90       	pop	r5
    4296:	4f 90       	pop	r4
    4298:	3f 90       	pop	r3
    429a:	2f 90       	pop	r2
    429c:	08 95       	ret

0000429e <_Z16vyloz_na_pozici2v>:
{
	motor[1].position(14);
	naber();
}

void vyloz_na_pozici2()
    429e:	df 93       	push	r29
    42a0:	cf 93       	push	r28
    42a2:	00 d0       	rcall	.+0      	; 0x42a4 <_Z16vyloz_na_pozici2v+0x6>
    42a4:	cd b7       	in	r28, 0x3d	; 61
    42a6:	de b7       	in	r29, 0x3e	; 62
    42a8:	81 e0       	ldi	r24, 0x01	; 1
    42aa:	80 93 38 03 	sts	0x0338, r24
{
	motor[1].position(14);
    42ae:	8e e0       	ldi	r24, 0x0E	; 14
    42b0:	90 e0       	ldi	r25, 0x00	; 0
    42b2:	9a 83       	std	Y+2, r25	; 0x02
    42b4:	89 83       	std	Y+1, r24	; 0x01
    42b6:	88 e3       	ldi	r24, 0x38	; 56
    42b8:	93 e0       	ldi	r25, 0x03	; 3
    42ba:	be 01       	movw	r22, r28
    42bc:	6f 5f       	subi	r22, 0xFF	; 255
    42be:	7f 4f       	sbci	r23, 0xFF	; 255
    42c0:	0e 94 6b 0d 	call	0x1ad6	; 0x1ad6 <_ZN7motor_t8positionERKi>
	vyloz();
    42c4:	0e 94 82 1f 	call	0x3f04	; 0x3f04 <_Z5vylozv>
}
    42c8:	0f 90       	pop	r0
    42ca:	0f 90       	pop	r0
    42cc:	cf 91       	pop	r28
    42ce:	df 91       	pop	r29
    42d0:	08 95       	ret

000042d2 <_Z16vyloz_na_pozici1v>:
{
	motor[1].position(50);
	naber();
}

void vyloz_na_pozici1()
    42d2:	df 93       	push	r29
    42d4:	cf 93       	push	r28
    42d6:	00 d0       	rcall	.+0      	; 0x42d8 <_Z16vyloz_na_pozici1v+0x6>
    42d8:	cd b7       	in	r28, 0x3d	; 61
    42da:	de b7       	in	r29, 0x3e	; 62
    42dc:	81 e0       	ldi	r24, 0x01	; 1
    42de:	80 93 38 03 	sts	0x0338, r24
{
	motor[1].position(50);
    42e2:	82 e3       	ldi	r24, 0x32	; 50
    42e4:	90 e0       	ldi	r25, 0x00	; 0
    42e6:	9a 83       	std	Y+2, r25	; 0x02
    42e8:	89 83       	std	Y+1, r24	; 0x01
    42ea:	88 e3       	ldi	r24, 0x38	; 56
    42ec:	93 e0       	ldi	r25, 0x03	; 3
    42ee:	be 01       	movw	r22, r28
    42f0:	6f 5f       	subi	r22, 0xFF	; 255
    42f2:	7f 4f       	sbci	r23, 0xFF	; 255
    42f4:	0e 94 6b 0d 	call	0x1ad6	; 0x1ad6 <_ZN7motor_t8positionERKi>
	vyloz();
    42f8:	0e 94 82 1f 	call	0x3f04	; 0x3f04 <_Z5vylozv>
}
    42fc:	0f 90       	pop	r0
    42fe:	0f 90       	pop	r0
    4300:	cf 91       	pop	r28
    4302:	df 91       	pop	r29
    4304:	08 95       	ret

00004306 <_Z17vyloz_na_pozici32v>:
{
	motor[1].position(88);
	naber();
}

void vyloz_na_pozici32()
    4306:	df 93       	push	r29
    4308:	cf 93       	push	r28
    430a:	00 d0       	rcall	.+0      	; 0x430c <_Z17vyloz_na_pozici32v+0x6>
    430c:	cd b7       	in	r28, 0x3d	; 61
    430e:	de b7       	in	r29, 0x3e	; 62
    4310:	81 e0       	ldi	r24, 0x01	; 1
    4312:	80 93 38 03 	sts	0x0338, r24
{
	motor[1].position(88);
    4316:	88 e5       	ldi	r24, 0x58	; 88
    4318:	90 e0       	ldi	r25, 0x00	; 0
    431a:	9a 83       	std	Y+2, r25	; 0x02
    431c:	89 83       	std	Y+1, r24	; 0x01
    431e:	88 e3       	ldi	r24, 0x38	; 56
    4320:	93 e0       	ldi	r25, 0x03	; 3
    4322:	be 01       	movw	r22, r28
    4324:	6f 5f       	subi	r22, 0xFF	; 255
    4326:	7f 4f       	sbci	r23, 0xFF	; 255
    4328:	0e 94 6b 0d 	call	0x1ad6	; 0x1ad6 <_ZN7motor_t8positionERKi>
	vyloz();
    432c:	0e 94 82 1f 	call	0x3f04	; 0x3f04 <_Z5vylozv>
}
    4330:	0f 90       	pop	r0
    4332:	0f 90       	pop	r0
    4334:	cf 91       	pop	r28
    4336:	df 91       	pop	r29
    4338:	08 95       	ret

0000433a <_Z17vyloz_na_pozici31v>:
{
	motor[1].position(126);
	naber();
}

void vyloz_na_pozici31()
    433a:	df 93       	push	r29
    433c:	cf 93       	push	r28
    433e:	00 d0       	rcall	.+0      	; 0x4340 <_Z17vyloz_na_pozici31v+0x6>
    4340:	cd b7       	in	r28, 0x3d	; 61
    4342:	de b7       	in	r29, 0x3e	; 62
    4344:	81 e0       	ldi	r24, 0x01	; 1
    4346:	80 93 38 03 	sts	0x0338, r24
{
	motor[1].position(126);
    434a:	8e e7       	ldi	r24, 0x7E	; 126
    434c:	90 e0       	ldi	r25, 0x00	; 0
    434e:	9a 83       	std	Y+2, r25	; 0x02
    4350:	89 83       	std	Y+1, r24	; 0x01
    4352:	88 e3       	ldi	r24, 0x38	; 56
    4354:	93 e0       	ldi	r25, 0x03	; 3
    4356:	be 01       	movw	r22, r28
    4358:	6f 5f       	subi	r22, 0xFF	; 255
    435a:	7f 4f       	sbci	r23, 0xFF	; 255
    435c:	0e 94 6b 0d 	call	0x1ad6	; 0x1ad6 <_ZN7motor_t8positionERKi>
	vyloz();
    4360:	0e 94 82 1f 	call	0x3f04	; 0x3f04 <_Z5vylozv>
}
    4364:	0f 90       	pop	r0
    4366:	0f 90       	pop	r0
    4368:	cf 91       	pop	r28
    436a:	df 91       	pop	r29
    436c:	08 95       	ret

0000436e <_Z17vyloz_na_pozici30v>:
{
	motor[1].position(168);
	naber();
}

void vyloz_na_pozici30()
    436e:	df 93       	push	r29
    4370:	cf 93       	push	r28
    4372:	00 d0       	rcall	.+0      	; 0x4374 <_Z17vyloz_na_pozici30v+0x6>
    4374:	cd b7       	in	r28, 0x3d	; 61
    4376:	de b7       	in	r29, 0x3e	; 62
    4378:	81 e0       	ldi	r24, 0x01	; 1
    437a:	80 93 38 03 	sts	0x0338, r24
{
	motor[1].position(168);
    437e:	88 ea       	ldi	r24, 0xA8	; 168
    4380:	90 e0       	ldi	r25, 0x00	; 0
    4382:	9a 83       	std	Y+2, r25	; 0x02
    4384:	89 83       	std	Y+1, r24	; 0x01
    4386:	88 e3       	ldi	r24, 0x38	; 56
    4388:	93 e0       	ldi	r25, 0x03	; 3
    438a:	be 01       	movw	r22, r28
    438c:	6f 5f       	subi	r22, 0xFF	; 255
    438e:	7f 4f       	sbci	r23, 0xFF	; 255
    4390:	0e 94 6b 0d 	call	0x1ad6	; 0x1ad6 <_ZN7motor_t8positionERKi>
	vyloz();
    4394:	0e 94 82 1f 	call	0x3f04	; 0x3f04 <_Z5vylozv>
}
    4398:	0f 90       	pop	r0
    439a:	0f 90       	pop	r0
    439c:	cf 91       	pop	r28
    439e:	df 91       	pop	r29
    43a0:	08 95       	ret

000043a2 <_Z17vyloz_na_pozici29v>:
{
	motor[1].position(202);
	naber();
}

void vyloz_na_pozici29()
    43a2:	df 93       	push	r29
    43a4:	cf 93       	push	r28
    43a6:	00 d0       	rcall	.+0      	; 0x43a8 <_Z17vyloz_na_pozici29v+0x6>
    43a8:	cd b7       	in	r28, 0x3d	; 61
    43aa:	de b7       	in	r29, 0x3e	; 62
    43ac:	81 e0       	ldi	r24, 0x01	; 1
    43ae:	80 93 38 03 	sts	0x0338, r24
{
	motor[1].position(202);
    43b2:	8a ec       	ldi	r24, 0xCA	; 202
    43b4:	90 e0       	ldi	r25, 0x00	; 0
    43b6:	9a 83       	std	Y+2, r25	; 0x02
    43b8:	89 83       	std	Y+1, r24	; 0x01
    43ba:	88 e3       	ldi	r24, 0x38	; 56
    43bc:	93 e0       	ldi	r25, 0x03	; 3
    43be:	be 01       	movw	r22, r28
    43c0:	6f 5f       	subi	r22, 0xFF	; 255
    43c2:	7f 4f       	sbci	r23, 0xFF	; 255
    43c4:	0e 94 6b 0d 	call	0x1ad6	; 0x1ad6 <_ZN7motor_t8positionERKi>
	vyloz();
    43c8:	0e 94 82 1f 	call	0x3f04	; 0x3f04 <_Z5vylozv>
}
    43cc:	0f 90       	pop	r0
    43ce:	0f 90       	pop	r0
    43d0:	cf 91       	pop	r28
    43d2:	df 91       	pop	r29
    43d4:	08 95       	ret

000043d6 <_Z17vyloz_na_pozici28v>:
{
	motor[1].position(239);
	naber();
}

void vyloz_na_pozici28()
    43d6:	df 93       	push	r29
    43d8:	cf 93       	push	r28
    43da:	00 d0       	rcall	.+0      	; 0x43dc <_Z17vyloz_na_pozici28v+0x6>
    43dc:	cd b7       	in	r28, 0x3d	; 61
    43de:	de b7       	in	r29, 0x3e	; 62
    43e0:	81 e0       	ldi	r24, 0x01	; 1
    43e2:	80 93 38 03 	sts	0x0338, r24
{
	motor[1].position(239);
    43e6:	8f ee       	ldi	r24, 0xEF	; 239
    43e8:	90 e0       	ldi	r25, 0x00	; 0
    43ea:	9a 83       	std	Y+2, r25	; 0x02
    43ec:	89 83       	std	Y+1, r24	; 0x01
    43ee:	88 e3       	ldi	r24, 0x38	; 56
    43f0:	93 e0       	ldi	r25, 0x03	; 3
    43f2:	be 01       	movw	r22, r28
    43f4:	6f 5f       	subi	r22, 0xFF	; 255
    43f6:	7f 4f       	sbci	r23, 0xFF	; 255
    43f8:	0e 94 6b 0d 	call	0x1ad6	; 0x1ad6 <_ZN7motor_t8positionERKi>
	vyloz();
    43fc:	0e 94 82 1f 	call	0x3f04	; 0x3f04 <_Z5vylozv>
}
    4400:	0f 90       	pop	r0
    4402:	0f 90       	pop	r0
    4404:	cf 91       	pop	r28
    4406:	df 91       	pop	r29
    4408:	08 95       	ret

0000440a <_Z17vyloz_na_pozici27v>:
{
	motor[1].position(283);
	naber();
}

void vyloz_na_pozici27()
    440a:	df 93       	push	r29
    440c:	cf 93       	push	r28
    440e:	00 d0       	rcall	.+0      	; 0x4410 <_Z17vyloz_na_pozici27v+0x6>
    4410:	cd b7       	in	r28, 0x3d	; 61
    4412:	de b7       	in	r29, 0x3e	; 62
    4414:	81 e0       	ldi	r24, 0x01	; 1
    4416:	80 93 38 03 	sts	0x0338, r24
{
	motor[1].position(283);
    441a:	8b e1       	ldi	r24, 0x1B	; 27
    441c:	91 e0       	ldi	r25, 0x01	; 1
    441e:	9a 83       	std	Y+2, r25	; 0x02
    4420:	89 83       	std	Y+1, r24	; 0x01
    4422:	88 e3       	ldi	r24, 0x38	; 56
    4424:	93 e0       	ldi	r25, 0x03	; 3
    4426:	be 01       	movw	r22, r28
    4428:	6f 5f       	subi	r22, 0xFF	; 255
    442a:	7f 4f       	sbci	r23, 0xFF	; 255
    442c:	0e 94 6b 0d 	call	0x1ad6	; 0x1ad6 <_ZN7motor_t8positionERKi>
	vyloz();
    4430:	0e 94 82 1f 	call	0x3f04	; 0x3f04 <_Z5vylozv>
}
    4434:	0f 90       	pop	r0
    4436:	0f 90       	pop	r0
    4438:	cf 91       	pop	r28
    443a:	df 91       	pop	r29
    443c:	08 95       	ret

0000443e <_Z17vyloz_na_pozici26v>:
{
	motor[1].position(316);
	naber();
}

void vyloz_na_pozici26()
    443e:	df 93       	push	r29
    4440:	cf 93       	push	r28
    4442:	00 d0       	rcall	.+0      	; 0x4444 <_Z17vyloz_na_pozici26v+0x6>
    4444:	cd b7       	in	r28, 0x3d	; 61
    4446:	de b7       	in	r29, 0x3e	; 62
    4448:	81 e0       	ldi	r24, 0x01	; 1
    444a:	80 93 38 03 	sts	0x0338, r24
{
	motor[1].position(316);
    444e:	8c e3       	ldi	r24, 0x3C	; 60
    4450:	91 e0       	ldi	r25, 0x01	; 1
    4452:	9a 83       	std	Y+2, r25	; 0x02
    4454:	89 83       	std	Y+1, r24	; 0x01
    4456:	88 e3       	ldi	r24, 0x38	; 56
    4458:	93 e0       	ldi	r25, 0x03	; 3
    445a:	be 01       	movw	r22, r28
    445c:	6f 5f       	subi	r22, 0xFF	; 255
    445e:	7f 4f       	sbci	r23, 0xFF	; 255
    4460:	0e 94 6b 0d 	call	0x1ad6	; 0x1ad6 <_ZN7motor_t8positionERKi>
	vyloz();
    4464:	0e 94 82 1f 	call	0x3f04	; 0x3f04 <_Z5vylozv>
}
    4468:	0f 90       	pop	r0
    446a:	0f 90       	pop	r0
    446c:	cf 91       	pop	r28
    446e:	df 91       	pop	r29
    4470:	08 95       	ret

00004472 <_Z17vyloz_na_pozici25v>:
{
	motor[1].position(352);
	naber();
}

void vyloz_na_pozici25()
    4472:	df 93       	push	r29
    4474:	cf 93       	push	r28
    4476:	00 d0       	rcall	.+0      	; 0x4478 <_Z17vyloz_na_pozici25v+0x6>
    4478:	cd b7       	in	r28, 0x3d	; 61
    447a:	de b7       	in	r29, 0x3e	; 62
    447c:	81 e0       	ldi	r24, 0x01	; 1
    447e:	80 93 38 03 	sts	0x0338, r24
{
	motor[1].position(352);
    4482:	80 e6       	ldi	r24, 0x60	; 96
    4484:	91 e0       	ldi	r25, 0x01	; 1
    4486:	9a 83       	std	Y+2, r25	; 0x02
    4488:	89 83       	std	Y+1, r24	; 0x01
    448a:	88 e3       	ldi	r24, 0x38	; 56
    448c:	93 e0       	ldi	r25, 0x03	; 3
    448e:	be 01       	movw	r22, r28
    4490:	6f 5f       	subi	r22, 0xFF	; 255
    4492:	7f 4f       	sbci	r23, 0xFF	; 255
    4494:	0e 94 6b 0d 	call	0x1ad6	; 0x1ad6 <_ZN7motor_t8positionERKi>
	vyloz();
    4498:	0e 94 82 1f 	call	0x3f04	; 0x3f04 <_Z5vylozv>
}
    449c:	0f 90       	pop	r0
    449e:	0f 90       	pop	r0
    44a0:	cf 91       	pop	r28
    44a2:	df 91       	pop	r29
    44a4:	08 95       	ret

000044a6 <_Z17vyloz_na_pozici24v>:
{
	motor[1].position(392);
	naber();
}

void vyloz_na_pozici24()
    44a6:	df 93       	push	r29
    44a8:	cf 93       	push	r28
    44aa:	00 d0       	rcall	.+0      	; 0x44ac <_Z17vyloz_na_pozici24v+0x6>
    44ac:	cd b7       	in	r28, 0x3d	; 61
    44ae:	de b7       	in	r29, 0x3e	; 62
    44b0:	81 e0       	ldi	r24, 0x01	; 1
    44b2:	80 93 38 03 	sts	0x0338, r24
{
	motor[1].position(392);
    44b6:	88 e8       	ldi	r24, 0x88	; 136
    44b8:	91 e0       	ldi	r25, 0x01	; 1
    44ba:	9a 83       	std	Y+2, r25	; 0x02
    44bc:	89 83       	std	Y+1, r24	; 0x01
    44be:	88 e3       	ldi	r24, 0x38	; 56
    44c0:	93 e0       	ldi	r25, 0x03	; 3
    44c2:	be 01       	movw	r22, r28
    44c4:	6f 5f       	subi	r22, 0xFF	; 255
    44c6:	7f 4f       	sbci	r23, 0xFF	; 255
    44c8:	0e 94 6b 0d 	call	0x1ad6	; 0x1ad6 <_ZN7motor_t8positionERKi>
	vyloz();
    44cc:	0e 94 82 1f 	call	0x3f04	; 0x3f04 <_Z5vylozv>
}
    44d0:	0f 90       	pop	r0
    44d2:	0f 90       	pop	r0
    44d4:	cf 91       	pop	r28
    44d6:	df 91       	pop	r29
    44d8:	08 95       	ret

000044da <_Z17vyloz_na_pozici23v>:
{
	motor[1].position(434);
	naber();
}

void vyloz_na_pozici23()
    44da:	df 93       	push	r29
    44dc:	cf 93       	push	r28
    44de:	00 d0       	rcall	.+0      	; 0x44e0 <_Z17vyloz_na_pozici23v+0x6>
    44e0:	cd b7       	in	r28, 0x3d	; 61
    44e2:	de b7       	in	r29, 0x3e	; 62
    44e4:	81 e0       	ldi	r24, 0x01	; 1
    44e6:	80 93 38 03 	sts	0x0338, r24
{
	motor[1].position(434);
    44ea:	82 eb       	ldi	r24, 0xB2	; 178
    44ec:	91 e0       	ldi	r25, 0x01	; 1
    44ee:	9a 83       	std	Y+2, r25	; 0x02
    44f0:	89 83       	std	Y+1, r24	; 0x01
    44f2:	88 e3       	ldi	r24, 0x38	; 56
    44f4:	93 e0       	ldi	r25, 0x03	; 3
    44f6:	be 01       	movw	r22, r28
    44f8:	6f 5f       	subi	r22, 0xFF	; 255
    44fa:	7f 4f       	sbci	r23, 0xFF	; 255
    44fc:	0e 94 6b 0d 	call	0x1ad6	; 0x1ad6 <_ZN7motor_t8positionERKi>
	vyloz();
    4500:	0e 94 82 1f 	call	0x3f04	; 0x3f04 <_Z5vylozv>
}
    4504:	0f 90       	pop	r0
    4506:	0f 90       	pop	r0
    4508:	cf 91       	pop	r28
    450a:	df 91       	pop	r29
    450c:	08 95       	ret

0000450e <_Z17vyloz_na_pozici22v>:
{
	motor[1].position(470);
	naber();
}

void vyloz_na_pozici22()
    450e:	df 93       	push	r29
    4510:	cf 93       	push	r28
    4512:	00 d0       	rcall	.+0      	; 0x4514 <_Z17vyloz_na_pozici22v+0x6>
    4514:	cd b7       	in	r28, 0x3d	; 61
    4516:	de b7       	in	r29, 0x3e	; 62
    4518:	81 e0       	ldi	r24, 0x01	; 1
    451a:	80 93 38 03 	sts	0x0338, r24
{
	motor[1].position(470);
    451e:	86 ed       	ldi	r24, 0xD6	; 214
    4520:	91 e0       	ldi	r25, 0x01	; 1
    4522:	9a 83       	std	Y+2, r25	; 0x02
    4524:	89 83       	std	Y+1, r24	; 0x01
    4526:	88 e3       	ldi	r24, 0x38	; 56
    4528:	93 e0       	ldi	r25, 0x03	; 3
    452a:	be 01       	movw	r22, r28
    452c:	6f 5f       	subi	r22, 0xFF	; 255
    452e:	7f 4f       	sbci	r23, 0xFF	; 255
    4530:	0e 94 6b 0d 	call	0x1ad6	; 0x1ad6 <_ZN7motor_t8positionERKi>
	vyloz();
    4534:	0e 94 82 1f 	call	0x3f04	; 0x3f04 <_Z5vylozv>
}
    4538:	0f 90       	pop	r0
    453a:	0f 90       	pop	r0
    453c:	cf 91       	pop	r28
    453e:	df 91       	pop	r29
    4540:	08 95       	ret

00004542 <_Z17vyloz_na_pozici21v>:
{
	motor[1].position(510);
	naber();
}

void vyloz_na_pozici21()
    4542:	df 93       	push	r29
    4544:	cf 93       	push	r28
    4546:	00 d0       	rcall	.+0      	; 0x4548 <_Z17vyloz_na_pozici21v+0x6>
    4548:	cd b7       	in	r28, 0x3d	; 61
    454a:	de b7       	in	r29, 0x3e	; 62
    454c:	81 e0       	ldi	r24, 0x01	; 1
    454e:	80 93 38 03 	sts	0x0338, r24
{
	motor[1].position(510);
    4552:	8e ef       	ldi	r24, 0xFE	; 254
    4554:	91 e0       	ldi	r25, 0x01	; 1
    4556:	9a 83       	std	Y+2, r25	; 0x02
    4558:	89 83       	std	Y+1, r24	; 0x01
    455a:	88 e3       	ldi	r24, 0x38	; 56
    455c:	93 e0       	ldi	r25, 0x03	; 3
    455e:	be 01       	movw	r22, r28
    4560:	6f 5f       	subi	r22, 0xFF	; 255
    4562:	7f 4f       	sbci	r23, 0xFF	; 255
    4564:	0e 94 6b 0d 	call	0x1ad6	; 0x1ad6 <_ZN7motor_t8positionERKi>
	vyloz();
    4568:	0e 94 82 1f 	call	0x3f04	; 0x3f04 <_Z5vylozv>
}
    456c:	0f 90       	pop	r0
    456e:	0f 90       	pop	r0
    4570:	cf 91       	pop	r28
    4572:	df 91       	pop	r29
    4574:	08 95       	ret

00004576 <_Z17vyloz_na_pozici20v>:
{
	motor[1].position(548);
	naber();
}

void vyloz_na_pozici20()
    4576:	df 93       	push	r29
    4578:	cf 93       	push	r28
    457a:	00 d0       	rcall	.+0      	; 0x457c <_Z17vyloz_na_pozici20v+0x6>
    457c:	cd b7       	in	r28, 0x3d	; 61
    457e:	de b7       	in	r29, 0x3e	; 62
    4580:	81 e0       	ldi	r24, 0x01	; 1
    4582:	80 93 38 03 	sts	0x0338, r24
{
	motor[1].position(548);
    4586:	84 e2       	ldi	r24, 0x24	; 36
    4588:	92 e0       	ldi	r25, 0x02	; 2
    458a:	9a 83       	std	Y+2, r25	; 0x02
    458c:	89 83       	std	Y+1, r24	; 0x01
    458e:	88 e3       	ldi	r24, 0x38	; 56
    4590:	93 e0       	ldi	r25, 0x03	; 3
    4592:	be 01       	movw	r22, r28
    4594:	6f 5f       	subi	r22, 0xFF	; 255
    4596:	7f 4f       	sbci	r23, 0xFF	; 255
    4598:	0e 94 6b 0d 	call	0x1ad6	; 0x1ad6 <_ZN7motor_t8positionERKi>
	vyloz();
    459c:	0e 94 82 1f 	call	0x3f04	; 0x3f04 <_Z5vylozv>
}
    45a0:	0f 90       	pop	r0
    45a2:	0f 90       	pop	r0
    45a4:	cf 91       	pop	r28
    45a6:	df 91       	pop	r29
    45a8:	08 95       	ret

000045aa <_Z17vyloz_na_pozici19v>:
{
	motor[1].position(589);
	naber();
}

void vyloz_na_pozici19()
    45aa:	df 93       	push	r29
    45ac:	cf 93       	push	r28
    45ae:	00 d0       	rcall	.+0      	; 0x45b0 <_Z17vyloz_na_pozici19v+0x6>
    45b0:	cd b7       	in	r28, 0x3d	; 61
    45b2:	de b7       	in	r29, 0x3e	; 62
    45b4:	81 e0       	ldi	r24, 0x01	; 1
    45b6:	80 93 38 03 	sts	0x0338, r24
{
	motor[1].position(589);
    45ba:	8d e4       	ldi	r24, 0x4D	; 77
    45bc:	92 e0       	ldi	r25, 0x02	; 2
    45be:	9a 83       	std	Y+2, r25	; 0x02
    45c0:	89 83       	std	Y+1, r24	; 0x01
    45c2:	88 e3       	ldi	r24, 0x38	; 56
    45c4:	93 e0       	ldi	r25, 0x03	; 3
    45c6:	be 01       	movw	r22, r28
    45c8:	6f 5f       	subi	r22, 0xFF	; 255
    45ca:	7f 4f       	sbci	r23, 0xFF	; 255
    45cc:	0e 94 6b 0d 	call	0x1ad6	; 0x1ad6 <_ZN7motor_t8positionERKi>
	vyloz();
    45d0:	0e 94 82 1f 	call	0x3f04	; 0x3f04 <_Z5vylozv>
}
    45d4:	0f 90       	pop	r0
    45d6:	0f 90       	pop	r0
    45d8:	cf 91       	pop	r28
    45da:	df 91       	pop	r29
    45dc:	08 95       	ret

000045de <_Z17vyloz_na_pozici18v>:
{
	motor[1].position(626);
	naber();
}

void vyloz_na_pozici18()
    45de:	df 93       	push	r29
    45e0:	cf 93       	push	r28
    45e2:	00 d0       	rcall	.+0      	; 0x45e4 <_Z17vyloz_na_pozici18v+0x6>
    45e4:	cd b7       	in	r28, 0x3d	; 61
    45e6:	de b7       	in	r29, 0x3e	; 62
    45e8:	81 e0       	ldi	r24, 0x01	; 1
    45ea:	80 93 38 03 	sts	0x0338, r24
{
	motor[1].position(626);
    45ee:	82 e7       	ldi	r24, 0x72	; 114
    45f0:	92 e0       	ldi	r25, 0x02	; 2
    45f2:	9a 83       	std	Y+2, r25	; 0x02
    45f4:	89 83       	std	Y+1, r24	; 0x01
    45f6:	88 e3       	ldi	r24, 0x38	; 56
    45f8:	93 e0       	ldi	r25, 0x03	; 3
    45fa:	be 01       	movw	r22, r28
    45fc:	6f 5f       	subi	r22, 0xFF	; 255
    45fe:	7f 4f       	sbci	r23, 0xFF	; 255
    4600:	0e 94 6b 0d 	call	0x1ad6	; 0x1ad6 <_ZN7motor_t8positionERKi>
	vyloz();
    4604:	0e 94 82 1f 	call	0x3f04	; 0x3f04 <_Z5vylozv>
}
    4608:	0f 90       	pop	r0
    460a:	0f 90       	pop	r0
    460c:	cf 91       	pop	r28
    460e:	df 91       	pop	r29
    4610:	08 95       	ret

00004612 <_Z17vyloz_na_pozici17v>:
{
	motor[1].position(659);
	naber();
}

void vyloz_na_pozici17()
    4612:	df 93       	push	r29
    4614:	cf 93       	push	r28
    4616:	00 d0       	rcall	.+0      	; 0x4618 <_Z17vyloz_na_pozici17v+0x6>
    4618:	cd b7       	in	r28, 0x3d	; 61
    461a:	de b7       	in	r29, 0x3e	; 62
    461c:	81 e0       	ldi	r24, 0x01	; 1
    461e:	80 93 38 03 	sts	0x0338, r24
{
	motor[1].position(659);
    4622:	83 e9       	ldi	r24, 0x93	; 147
    4624:	92 e0       	ldi	r25, 0x02	; 2
    4626:	9a 83       	std	Y+2, r25	; 0x02
    4628:	89 83       	std	Y+1, r24	; 0x01
    462a:	88 e3       	ldi	r24, 0x38	; 56
    462c:	93 e0       	ldi	r25, 0x03	; 3
    462e:	be 01       	movw	r22, r28
    4630:	6f 5f       	subi	r22, 0xFF	; 255
    4632:	7f 4f       	sbci	r23, 0xFF	; 255
    4634:	0e 94 6b 0d 	call	0x1ad6	; 0x1ad6 <_ZN7motor_t8positionERKi>
	vyloz();
    4638:	0e 94 82 1f 	call	0x3f04	; 0x3f04 <_Z5vylozv>
}
    463c:	0f 90       	pop	r0
    463e:	0f 90       	pop	r0
    4640:	cf 91       	pop	r28
    4642:	df 91       	pop	r29
    4644:	08 95       	ret

00004646 <_Z17vyloz_na_pozici16v>:
{
	motor[1].position(700);
	naber();
}

void vyloz_na_pozici16()
    4646:	df 93       	push	r29
    4648:	cf 93       	push	r28
    464a:	00 d0       	rcall	.+0      	; 0x464c <_Z17vyloz_na_pozici16v+0x6>
    464c:	cd b7       	in	r28, 0x3d	; 61
    464e:	de b7       	in	r29, 0x3e	; 62
    4650:	81 e0       	ldi	r24, 0x01	; 1
    4652:	80 93 38 03 	sts	0x0338, r24
{
	motor[1].position(700);
    4656:	8c eb       	ldi	r24, 0xBC	; 188
    4658:	92 e0       	ldi	r25, 0x02	; 2
    465a:	9a 83       	std	Y+2, r25	; 0x02
    465c:	89 83       	std	Y+1, r24	; 0x01
    465e:	88 e3       	ldi	r24, 0x38	; 56
    4660:	93 e0       	ldi	r25, 0x03	; 3
    4662:	be 01       	movw	r22, r28
    4664:	6f 5f       	subi	r22, 0xFF	; 255
    4666:	7f 4f       	sbci	r23, 0xFF	; 255
    4668:	0e 94 6b 0d 	call	0x1ad6	; 0x1ad6 <_ZN7motor_t8positionERKi>
	vyloz();
    466c:	0e 94 82 1f 	call	0x3f04	; 0x3f04 <_Z5vylozv>
}
    4670:	0f 90       	pop	r0
    4672:	0f 90       	pop	r0
    4674:	cf 91       	pop	r28
    4676:	df 91       	pop	r29
    4678:	08 95       	ret

0000467a <_Z17vyloz_na_pozici15v>:
{
	motor[1].position(743);
	naber();
}

void vyloz_na_pozici15()
    467a:	df 93       	push	r29
    467c:	cf 93       	push	r28
    467e:	00 d0       	rcall	.+0      	; 0x4680 <_Z17vyloz_na_pozici15v+0x6>
    4680:	cd b7       	in	r28, 0x3d	; 61
    4682:	de b7       	in	r29, 0x3e	; 62
    4684:	81 e0       	ldi	r24, 0x01	; 1
    4686:	80 93 38 03 	sts	0x0338, r24
{
	motor[1].position(743);
    468a:	87 ee       	ldi	r24, 0xE7	; 231
    468c:	92 e0       	ldi	r25, 0x02	; 2
    468e:	9a 83       	std	Y+2, r25	; 0x02
    4690:	89 83       	std	Y+1, r24	; 0x01
    4692:	88 e3       	ldi	r24, 0x38	; 56
    4694:	93 e0       	ldi	r25, 0x03	; 3
    4696:	be 01       	movw	r22, r28
    4698:	6f 5f       	subi	r22, 0xFF	; 255
    469a:	7f 4f       	sbci	r23, 0xFF	; 255
    469c:	0e 94 6b 0d 	call	0x1ad6	; 0x1ad6 <_ZN7motor_t8positionERKi>
	vyloz();
    46a0:	0e 94 82 1f 	call	0x3f04	; 0x3f04 <_Z5vylozv>
}
    46a4:	0f 90       	pop	r0
    46a6:	0f 90       	pop	r0
    46a8:	cf 91       	pop	r28
    46aa:	df 91       	pop	r29
    46ac:	08 95       	ret

000046ae <_Z17vyloz_na_pozici14v>:
{
	motor[1].position(780);
	naber();
}

void vyloz_na_pozici14()
    46ae:	df 93       	push	r29
    46b0:	cf 93       	push	r28
    46b2:	00 d0       	rcall	.+0      	; 0x46b4 <_Z17vyloz_na_pozici14v+0x6>
    46b4:	cd b7       	in	r28, 0x3d	; 61
    46b6:	de b7       	in	r29, 0x3e	; 62
    46b8:	81 e0       	ldi	r24, 0x01	; 1
    46ba:	80 93 38 03 	sts	0x0338, r24
{
	motor[1].position(780);
    46be:	8c e0       	ldi	r24, 0x0C	; 12
    46c0:	93 e0       	ldi	r25, 0x03	; 3
    46c2:	9a 83       	std	Y+2, r25	; 0x02
    46c4:	89 83       	std	Y+1, r24	; 0x01
    46c6:	88 e3       	ldi	r24, 0x38	; 56
    46c8:	93 e0       	ldi	r25, 0x03	; 3
    46ca:	be 01       	movw	r22, r28
    46cc:	6f 5f       	subi	r22, 0xFF	; 255
    46ce:	7f 4f       	sbci	r23, 0xFF	; 255
    46d0:	0e 94 6b 0d 	call	0x1ad6	; 0x1ad6 <_ZN7motor_t8positionERKi>
	vyloz();
    46d4:	0e 94 82 1f 	call	0x3f04	; 0x3f04 <_Z5vylozv>
}
    46d8:	0f 90       	pop	r0
    46da:	0f 90       	pop	r0
    46dc:	cf 91       	pop	r28
    46de:	df 91       	pop	r29
    46e0:	08 95       	ret

000046e2 <_Z17vyloz_na_pozici13v>:
{
	motor[1].position(819);
	naber();
}

void vyloz_na_pozici13()
    46e2:	df 93       	push	r29
    46e4:	cf 93       	push	r28
    46e6:	00 d0       	rcall	.+0      	; 0x46e8 <_Z17vyloz_na_pozici13v+0x6>
    46e8:	cd b7       	in	r28, 0x3d	; 61
    46ea:	de b7       	in	r29, 0x3e	; 62
    46ec:	81 e0       	ldi	r24, 0x01	; 1
    46ee:	80 93 38 03 	sts	0x0338, r24
{
	motor[1].position(819);
    46f2:	83 e3       	ldi	r24, 0x33	; 51
    46f4:	93 e0       	ldi	r25, 0x03	; 3
    46f6:	9a 83       	std	Y+2, r25	; 0x02
    46f8:	89 83       	std	Y+1, r24	; 0x01
    46fa:	88 e3       	ldi	r24, 0x38	; 56
    46fc:	93 e0       	ldi	r25, 0x03	; 3
    46fe:	be 01       	movw	r22, r28
    4700:	6f 5f       	subi	r22, 0xFF	; 255
    4702:	7f 4f       	sbci	r23, 0xFF	; 255
    4704:	0e 94 6b 0d 	call	0x1ad6	; 0x1ad6 <_ZN7motor_t8positionERKi>
	vyloz();
    4708:	0e 94 82 1f 	call	0x3f04	; 0x3f04 <_Z5vylozv>
}
    470c:	0f 90       	pop	r0
    470e:	0f 90       	pop	r0
    4710:	cf 91       	pop	r28
    4712:	df 91       	pop	r29
    4714:	08 95       	ret

00004716 <_Z17vyloz_na_pozici12v>:
{
	motor[1].position(858);
	naber();
}

void vyloz_na_pozici12()
    4716:	df 93       	push	r29
    4718:	cf 93       	push	r28
    471a:	00 d0       	rcall	.+0      	; 0x471c <_Z17vyloz_na_pozici12v+0x6>
    471c:	cd b7       	in	r28, 0x3d	; 61
    471e:	de b7       	in	r29, 0x3e	; 62
    4720:	81 e0       	ldi	r24, 0x01	; 1
    4722:	80 93 38 03 	sts	0x0338, r24
{
	motor[1].position(858);
    4726:	8a e5       	ldi	r24, 0x5A	; 90
    4728:	93 e0       	ldi	r25, 0x03	; 3
    472a:	9a 83       	std	Y+2, r25	; 0x02
    472c:	89 83       	std	Y+1, r24	; 0x01
    472e:	88 e3       	ldi	r24, 0x38	; 56
    4730:	93 e0       	ldi	r25, 0x03	; 3
    4732:	be 01       	movw	r22, r28
    4734:	6f 5f       	subi	r22, 0xFF	; 255
    4736:	7f 4f       	sbci	r23, 0xFF	; 255
    4738:	0e 94 6b 0d 	call	0x1ad6	; 0x1ad6 <_ZN7motor_t8positionERKi>
	vyloz();
    473c:	0e 94 82 1f 	call	0x3f04	; 0x3f04 <_Z5vylozv>
}
    4740:	0f 90       	pop	r0
    4742:	0f 90       	pop	r0
    4744:	cf 91       	pop	r28
    4746:	df 91       	pop	r29
    4748:	08 95       	ret

0000474a <_Z17vyloz_na_pozici11v>:
{
	motor[1].position(892);
	naber();
}

void vyloz_na_pozici11()
    474a:	df 93       	push	r29
    474c:	cf 93       	push	r28
    474e:	00 d0       	rcall	.+0      	; 0x4750 <_Z17vyloz_na_pozici11v+0x6>
    4750:	cd b7       	in	r28, 0x3d	; 61
    4752:	de b7       	in	r29, 0x3e	; 62
    4754:	81 e0       	ldi	r24, 0x01	; 1
    4756:	80 93 38 03 	sts	0x0338, r24
{
	motor[1].position(892);
    475a:	8c e7       	ldi	r24, 0x7C	; 124
    475c:	93 e0       	ldi	r25, 0x03	; 3
    475e:	9a 83       	std	Y+2, r25	; 0x02
    4760:	89 83       	std	Y+1, r24	; 0x01
    4762:	88 e3       	ldi	r24, 0x38	; 56
    4764:	93 e0       	ldi	r25, 0x03	; 3
    4766:	be 01       	movw	r22, r28
    4768:	6f 5f       	subi	r22, 0xFF	; 255
    476a:	7f 4f       	sbci	r23, 0xFF	; 255
    476c:	0e 94 6b 0d 	call	0x1ad6	; 0x1ad6 <_ZN7motor_t8positionERKi>
	vyloz();
    4770:	0e 94 82 1f 	call	0x3f04	; 0x3f04 <_Z5vylozv>
}
    4774:	0f 90       	pop	r0
    4776:	0f 90       	pop	r0
    4778:	cf 91       	pop	r28
    477a:	df 91       	pop	r29
    477c:	08 95       	ret

0000477e <_Z17vyloz_na_pozici10v>:
{
	motor[1].position(935);
	naber();
}

void vyloz_na_pozici10()
    477e:	df 93       	push	r29
    4780:	cf 93       	push	r28
    4782:	00 d0       	rcall	.+0      	; 0x4784 <_Z17vyloz_na_pozici10v+0x6>
    4784:	cd b7       	in	r28, 0x3d	; 61
    4786:	de b7       	in	r29, 0x3e	; 62
    4788:	81 e0       	ldi	r24, 0x01	; 1
    478a:	80 93 38 03 	sts	0x0338, r24
{
	motor[1].position(935);
    478e:	87 ea       	ldi	r24, 0xA7	; 167
    4790:	93 e0       	ldi	r25, 0x03	; 3
    4792:	9a 83       	std	Y+2, r25	; 0x02
    4794:	89 83       	std	Y+1, r24	; 0x01
    4796:	88 e3       	ldi	r24, 0x38	; 56
    4798:	93 e0       	ldi	r25, 0x03	; 3
    479a:	be 01       	movw	r22, r28
    479c:	6f 5f       	subi	r22, 0xFF	; 255
    479e:	7f 4f       	sbci	r23, 0xFF	; 255
    47a0:	0e 94 6b 0d 	call	0x1ad6	; 0x1ad6 <_ZN7motor_t8positionERKi>
	vyloz();
    47a4:	0e 94 82 1f 	call	0x3f04	; 0x3f04 <_Z5vylozv>
}
    47a8:	0f 90       	pop	r0
    47aa:	0f 90       	pop	r0
    47ac:	cf 91       	pop	r28
    47ae:	df 91       	pop	r29
    47b0:	08 95       	ret

000047b2 <_Z16vyloz_na_pozici9v>:
{
	motor[1].position(972);
	naber();
}

void vyloz_na_pozici9()
    47b2:	df 93       	push	r29
    47b4:	cf 93       	push	r28
    47b6:	00 d0       	rcall	.+0      	; 0x47b8 <_Z16vyloz_na_pozici9v+0x6>
    47b8:	cd b7       	in	r28, 0x3d	; 61
    47ba:	de b7       	in	r29, 0x3e	; 62
    47bc:	81 e0       	ldi	r24, 0x01	; 1
    47be:	80 93 38 03 	sts	0x0338, r24
{
	motor[1].position(972);
    47c2:	8c ec       	ldi	r24, 0xCC	; 204
    47c4:	93 e0       	ldi	r25, 0x03	; 3
    47c6:	9a 83       	std	Y+2, r25	; 0x02
    47c8:	89 83       	std	Y+1, r24	; 0x01
    47ca:	88 e3       	ldi	r24, 0x38	; 56
    47cc:	93 e0       	ldi	r25, 0x03	; 3
    47ce:	be 01       	movw	r22, r28
    47d0:	6f 5f       	subi	r22, 0xFF	; 255
    47d2:	7f 4f       	sbci	r23, 0xFF	; 255
    47d4:	0e 94 6b 0d 	call	0x1ad6	; 0x1ad6 <_ZN7motor_t8positionERKi>
	vyloz();
    47d8:	0e 94 82 1f 	call	0x3f04	; 0x3f04 <_Z5vylozv>
}
    47dc:	0f 90       	pop	r0
    47de:	0f 90       	pop	r0
    47e0:	cf 91       	pop	r28
    47e2:	df 91       	pop	r29
    47e4:	08 95       	ret

000047e6 <_Z16vyloz_na_pozici8v>:
{
	motor[1].position(1014);
	naber();
}

void vyloz_na_pozici8()
    47e6:	df 93       	push	r29
    47e8:	cf 93       	push	r28
    47ea:	00 d0       	rcall	.+0      	; 0x47ec <_Z16vyloz_na_pozici8v+0x6>
    47ec:	cd b7       	in	r28, 0x3d	; 61
    47ee:	de b7       	in	r29, 0x3e	; 62
    47f0:	81 e0       	ldi	r24, 0x01	; 1
    47f2:	80 93 38 03 	sts	0x0338, r24
{
	motor[1].position(1014);
    47f6:	86 ef       	ldi	r24, 0xF6	; 246
    47f8:	93 e0       	ldi	r25, 0x03	; 3
    47fa:	9a 83       	std	Y+2, r25	; 0x02
    47fc:	89 83       	std	Y+1, r24	; 0x01
    47fe:	88 e3       	ldi	r24, 0x38	; 56
    4800:	93 e0       	ldi	r25, 0x03	; 3
    4802:	be 01       	movw	r22, r28
    4804:	6f 5f       	subi	r22, 0xFF	; 255
    4806:	7f 4f       	sbci	r23, 0xFF	; 255
    4808:	0e 94 6b 0d 	call	0x1ad6	; 0x1ad6 <_ZN7motor_t8positionERKi>
	vyloz();
    480c:	0e 94 82 1f 	call	0x3f04	; 0x3f04 <_Z5vylozv>
}
    4810:	0f 90       	pop	r0
    4812:	0f 90       	pop	r0
    4814:	cf 91       	pop	r28
    4816:	df 91       	pop	r29
    4818:	08 95       	ret

0000481a <_Z5naberv>:
	motor[6].position(486);
	motor[7].position(548);
	syncWait(2000000);
}

void naber()
    481a:	2f 92       	push	r2
    481c:	3f 92       	push	r3
    481e:	4f 92       	push	r4
    4820:	5f 92       	push	r5
    4822:	6f 92       	push	r6
    4824:	7f 92       	push	r7
    4826:	8f 92       	push	r8
    4828:	9f 92       	push	r9
    482a:	af 92       	push	r10
    482c:	bf 92       	push	r11
    482e:	cf 92       	push	r12
    4830:	df 92       	push	r13
    4832:	ef 92       	push	r14
    4834:	ff 92       	push	r15
    4836:	0f 93       	push	r16
    4838:	1f 93       	push	r17
    483a:	df 93       	push	r29
    483c:	cf 93       	push	r28
    483e:	cd b7       	in	r28, 0x3d	; 61
    4840:	de b7       	in	r29, 0x3e	; 62
    4842:	c8 54       	subi	r28, 0x48	; 72
    4844:	d0 40       	sbci	r29, 0x00	; 0
    4846:	0f b6       	in	r0, 0x3f	; 63
    4848:	f8 94       	cli
    484a:	de bf       	out	0x3e, r29	; 62
    484c:	0f be       	out	0x3f, r0	; 63
    484e:	cd bf       	out	0x3d, r28	; 61
    4850:	08 e3       	ldi	r16, 0x38	; 56
    4852:	13 e0       	ldi	r17, 0x03	; 3
    4854:	82 e0       	ldi	r24, 0x02	; 2
    4856:	80 93 38 03 	sts	0x0338, r24
{
	
	//otoci se nad figurku
	motor[2].position(605);
    485a:	9d e5       	ldi	r25, 0x5D	; 93
    485c:	69 2e       	mov	r6, r25
    485e:	92 e0       	ldi	r25, 0x02	; 2
    4860:	79 2e       	mov	r7, r25
    4862:	7a 82       	std	Y+2, r7	; 0x02
    4864:	69 82       	std	Y+1, r6	; 0x01
    4866:	c8 01       	movw	r24, r16
    4868:	be 01       	movw	r22, r28
    486a:	6f 5f       	subi	r22, 0xFF	; 255
    486c:	7f 4f       	sbci	r23, 0xFF	; 255
    486e:	0e 94 6b 0d 	call	0x1ad6	; 0x1ad6 <_ZN7motor_t8positionERKi>
    4872:	83 e0       	ldi	r24, 0x03	; 3
    4874:	38 2e       	mov	r3, r24
    4876:	30 92 38 03 	sts	0x0338, r3
	motor[3].position(39);
    487a:	b7 e2       	ldi	r27, 0x27	; 39
    487c:	8b 2e       	mov	r8, r27
    487e:	91 2c       	mov	r9, r1
    4880:	9c 82       	std	Y+4, r9	; 0x04
    4882:	8b 82       	std	Y+3, r8	; 0x03
    4884:	c8 01       	movw	r24, r16
    4886:	be 01       	movw	r22, r28
    4888:	6d 5f       	subi	r22, 0xFD	; 253
    488a:	7f 4f       	sbci	r23, 0xFF	; 255
    488c:	0e 94 6b 0d 	call	0x1ad6	; 0x1ad6 <_ZN7motor_t8positionERKi>
    4890:	a4 e0       	ldi	r26, 0x04	; 4
    4892:	2a 2e       	mov	r2, r26
    4894:	20 92 38 03 	sts	0x0338, r2
	motor[4].position(977);
    4898:	f1 ed       	ldi	r31, 0xD1	; 209
    489a:	af 2e       	mov	r10, r31
    489c:	f3 e0       	ldi	r31, 0x03	; 3
    489e:	bf 2e       	mov	r11, r31
    48a0:	be 82       	std	Y+6, r11	; 0x06
    48a2:	ad 82       	std	Y+5, r10	; 0x05
    48a4:	c8 01       	movw	r24, r16
    48a6:	be 01       	movw	r22, r28
    48a8:	6b 5f       	subi	r22, 0xFB	; 251
    48aa:	7f 4f       	sbci	r23, 0xFF	; 255
    48ac:	0e 94 6b 0d 	call	0x1ad6	; 0x1ad6 <_ZN7motor_t8positionERKi>
    48b0:	85 e0       	ldi	r24, 0x05	; 5
    48b2:	80 93 38 03 	sts	0x0338, r24
	motor[5].position(688);
    48b6:	e0 eb       	ldi	r30, 0xB0	; 176
    48b8:	ce 2e       	mov	r12, r30
    48ba:	e2 e0       	ldi	r30, 0x02	; 2
    48bc:	de 2e       	mov	r13, r30
    48be:	d8 86       	std	Y+8, r13	; 0x08
    48c0:	cf 82       	std	Y+7, r12	; 0x07
    48c2:	c8 01       	movw	r24, r16
    48c4:	be 01       	movw	r22, r28
    48c6:	69 5f       	subi	r22, 0xF9	; 249
    48c8:	7f 4f       	sbci	r23, 0xFF	; 255
    48ca:	0e 94 6b 0d 	call	0x1ad6	; 0x1ad6 <_ZN7motor_t8positionERKi>
    48ce:	76 e0       	ldi	r23, 0x06	; 6
    48d0:	47 2e       	mov	r4, r23
    48d2:	40 92 38 03 	sts	0x0338, r4
	motor[6].position(512);
    48d6:	e1 2c       	mov	r14, r1
    48d8:	62 e0       	ldi	r22, 0x02	; 2
    48da:	f6 2e       	mov	r15, r22
    48dc:	fa 86       	std	Y+10, r15	; 0x0a
    48de:	e9 86       	std	Y+9, r14	; 0x09
    48e0:	c8 01       	movw	r24, r16
    48e2:	be 01       	movw	r22, r28
    48e4:	67 5f       	subi	r22, 0xF7	; 247
    48e6:	7f 4f       	sbci	r23, 0xFF	; 255
    48e8:	0e 94 6b 0d 	call	0x1ad6	; 0x1ad6 <_ZN7motor_t8positionERKi>
    48ec:	57 e0       	ldi	r21, 0x07	; 7
    48ee:	55 2e       	mov	r5, r21
    48f0:	50 92 38 03 	sts	0x0338, r5
	motor[7].position(512);
    48f4:	fc 86       	std	Y+12, r15	; 0x0c
    48f6:	eb 86       	std	Y+11, r14	; 0x0b
    48f8:	c8 01       	movw	r24, r16
    48fa:	be 01       	movw	r22, r28
    48fc:	65 5f       	subi	r22, 0xF5	; 245
    48fe:	7f 4f       	sbci	r23, 0xFF	; 255
    4900:	0e 94 6b 0d 	call	0x1ad6	; 0x1ad6 <_ZN7motor_t8positionERKi>
	syncWait(3500000);
    4904:	60 ee       	ldi	r22, 0xE0	; 224
    4906:	77 e6       	ldi	r23, 0x67	; 103
    4908:	85 e3       	ldi	r24, 0x35	; 53
    490a:	90 e0       	ldi	r25, 0x00	; 0
    490c:	0e 94 e1 00 	call	0x1c2	; 0x1c2 <_Z8syncWaitm>
    4910:	82 e0       	ldi	r24, 0x02	; 2
    4912:	80 93 38 03 	sts	0x0338, r24
	//nad chlivkem  otevre celisti
	motor[2].position(605);
    4916:	7e 86       	std	Y+14, r7	; 0x0e
    4918:	6d 86       	std	Y+13, r6	; 0x0d
    491a:	c8 01       	movw	r24, r16
    491c:	be 01       	movw	r22, r28
    491e:	63 5f       	subi	r22, 0xF3	; 243
    4920:	7f 4f       	sbci	r23, 0xFF	; 255
    4922:	0e 94 6b 0d 	call	0x1ad6	; 0x1ad6 <_ZN7motor_t8positionERKi>
    4926:	30 92 38 03 	sts	0x0338, r3
	motor[3].position(39);
    492a:	98 8a       	std	Y+16, r9	; 0x10
    492c:	8f 86       	std	Y+15, r8	; 0x0f
    492e:	c8 01       	movw	r24, r16
    4930:	be 01       	movw	r22, r28
    4932:	61 5f       	subi	r22, 0xF1	; 241
    4934:	7f 4f       	sbci	r23, 0xFF	; 255
    4936:	0e 94 6b 0d 	call	0x1ad6	; 0x1ad6 <_ZN7motor_t8positionERKi>
    493a:	20 92 38 03 	sts	0x0338, r2
	motor[4].position(977);
    493e:	ba 8a       	std	Y+18, r11	; 0x12
    4940:	a9 8a       	std	Y+17, r10	; 0x11
    4942:	c8 01       	movw	r24, r16
    4944:	be 01       	movw	r22, r28
    4946:	6f 5e       	subi	r22, 0xEF	; 239
    4948:	7f 4f       	sbci	r23, 0xFF	; 255
    494a:	0e 94 6b 0d 	call	0x1ad6	; 0x1ad6 <_ZN7motor_t8positionERKi>
    494e:	85 e0       	ldi	r24, 0x05	; 5
    4950:	80 93 38 03 	sts	0x0338, r24
	motor[5].position(688);
    4954:	dc 8a       	std	Y+20, r13	; 0x14
    4956:	cb 8a       	std	Y+19, r12	; 0x13
    4958:	c8 01       	movw	r24, r16
    495a:	be 01       	movw	r22, r28
    495c:	6d 5e       	subi	r22, 0xED	; 237
    495e:	7f 4f       	sbci	r23, 0xFF	; 255
    4960:	0e 94 6b 0d 	call	0x1ad6	; 0x1ad6 <_ZN7motor_t8positionERKi>
    4964:	40 92 38 03 	sts	0x0338, r4
	motor[6].position(486);
    4968:	46 ee       	ldi	r20, 0xE6	; 230
    496a:	a4 2e       	mov	r10, r20
    496c:	41 e0       	ldi	r20, 0x01	; 1
    496e:	b4 2e       	mov	r11, r20
    4970:	be 8a       	std	Y+22, r11	; 0x16
    4972:	ad 8a       	std	Y+21, r10	; 0x15
    4974:	c8 01       	movw	r24, r16
    4976:	be 01       	movw	r22, r28
    4978:	6b 5e       	subi	r22, 0xEB	; 235
    497a:	7f 4f       	sbci	r23, 0xFF	; 255
    497c:	0e 94 6b 0d 	call	0x1ad6	; 0x1ad6 <_ZN7motor_t8positionERKi>
    4980:	50 92 38 03 	sts	0x0338, r5
	motor[7].position(548);
    4984:	34 e2       	ldi	r19, 0x24	; 36
    4986:	c3 2e       	mov	r12, r19
    4988:	32 e0       	ldi	r19, 0x02	; 2
    498a:	d3 2e       	mov	r13, r19
    498c:	d8 8e       	std	Y+24, r13	; 0x18
    498e:	cf 8a       	std	Y+23, r12	; 0x17
    4990:	c8 01       	movw	r24, r16
    4992:	be 01       	movw	r22, r28
    4994:	69 5e       	subi	r22, 0xE9	; 233
    4996:	7f 4f       	sbci	r23, 0xFF	; 255
    4998:	0e 94 6b 0d 	call	0x1ad6	; 0x1ad6 <_ZN7motor_t8positionERKi>
	syncWait(1000000);
    499c:	60 e4       	ldi	r22, 0x40	; 64
    499e:	72 e4       	ldi	r23, 0x42	; 66
    49a0:	8f e0       	ldi	r24, 0x0F	; 15
    49a2:	90 e0       	ldi	r25, 0x00	; 0
    49a4:	0e 94 e1 00 	call	0x1c2	; 0x1c2 <_Z8syncWaitm>
    49a8:	82 e0       	ldi	r24, 0x02	; 2
    49aa:	80 93 38 03 	sts	0x0338, r24
	//zacne se naklanet
	motor[2].position(460);
    49ae:	2c ec       	ldi	r18, 0xCC	; 204
    49b0:	e2 2e       	mov	r14, r18
    49b2:	21 e0       	ldi	r18, 0x01	; 1
    49b4:	f2 2e       	mov	r15, r18
    49b6:	fa 8e       	std	Y+26, r15	; 0x1a
    49b8:	e9 8e       	std	Y+25, r14	; 0x19
    49ba:	c8 01       	movw	r24, r16
    49bc:	be 01       	movw	r22, r28
    49be:	67 5e       	subi	r22, 0xE7	; 231
    49c0:	7f 4f       	sbci	r23, 0xFF	; 255
    49c2:	0e 94 6b 0d 	call	0x1ad6	; 0x1ad6 <_ZN7motor_t8positionERKi>
    49c6:	30 92 38 03 	sts	0x0338, r3
	motor[3].position(448);
    49ca:	90 ec       	ldi	r25, 0xC0	; 192
    49cc:	89 2e       	mov	r8, r25
    49ce:	91 e0       	ldi	r25, 0x01	; 1
    49d0:	99 2e       	mov	r9, r25
    49d2:	9c 8e       	std	Y+28, r9	; 0x1c
    49d4:	8b 8e       	std	Y+27, r8	; 0x1b
    49d6:	c8 01       	movw	r24, r16
    49d8:	be 01       	movw	r22, r28
    49da:	65 5e       	subi	r22, 0xE5	; 229
    49dc:	7f 4f       	sbci	r23, 0xFF	; 255
    49de:	0e 94 6b 0d 	call	0x1ad6	; 0x1ad6 <_ZN7motor_t8positionERKi>
    49e2:	20 92 38 03 	sts	0x0338, r2
	motor[4].position(372);
    49e6:	84 e7       	ldi	r24, 0x74	; 116
    49e8:	91 e0       	ldi	r25, 0x01	; 1
    49ea:	9e 8f       	std	Y+30, r25	; 0x1e
    49ec:	8d 8f       	std	Y+29, r24	; 0x1d
    49ee:	c8 01       	movw	r24, r16
    49f0:	be 01       	movw	r22, r28
    49f2:	63 5e       	subi	r22, 0xE3	; 227
    49f4:	7f 4f       	sbci	r23, 0xFF	; 255
    49f6:	0e 94 6b 0d 	call	0x1ad6	; 0x1ad6 <_ZN7motor_t8positionERKi>
    49fa:	85 e0       	ldi	r24, 0x05	; 5
    49fc:	80 93 38 03 	sts	0x0338, r24
	motor[5].position(170);
    4a00:	8a ea       	ldi	r24, 0xAA	; 170
    4a02:	90 e0       	ldi	r25, 0x00	; 0
    4a04:	98 a3       	std	Y+32, r25	; 0x20
    4a06:	8f 8f       	std	Y+31, r24	; 0x1f
    4a08:	c8 01       	movw	r24, r16
    4a0a:	be 01       	movw	r22, r28
    4a0c:	61 5e       	subi	r22, 0xE1	; 225
    4a0e:	7f 4f       	sbci	r23, 0xFF	; 255
    4a10:	0e 94 6b 0d 	call	0x1ad6	; 0x1ad6 <_ZN7motor_t8positionERKi>
    4a14:	40 92 38 03 	sts	0x0338, r4
	motor[6].position(486);
    4a18:	ba a2       	std	Y+34, r11	; 0x22
    4a1a:	a9 a2       	std	Y+33, r10	; 0x21
    4a1c:	c8 01       	movw	r24, r16
    4a1e:	be 01       	movw	r22, r28
    4a20:	6f 5d       	subi	r22, 0xDF	; 223
    4a22:	7f 4f       	sbci	r23, 0xFF	; 255
    4a24:	0e 94 6b 0d 	call	0x1ad6	; 0x1ad6 <_ZN7motor_t8positionERKi>
    4a28:	50 92 38 03 	sts	0x0338, r5
	motor[7].position(548);
    4a2c:	dc a2       	std	Y+36, r13	; 0x24
    4a2e:	cb a2       	std	Y+35, r12	; 0x23
    4a30:	c8 01       	movw	r24, r16
    4a32:	be 01       	movw	r22, r28
    4a34:	6d 5d       	subi	r22, 0xDD	; 221
    4a36:	7f 4f       	sbci	r23, 0xFF	; 255
    4a38:	0e 94 6b 0d 	call	0x1ad6	; 0x1ad6 <_ZN7motor_t8positionERKi>
	syncWait(3000000);
    4a3c:	60 ec       	ldi	r22, 0xC0	; 192
    4a3e:	76 ec       	ldi	r23, 0xC6	; 198
    4a40:	8d e2       	ldi	r24, 0x2D	; 45
    4a42:	90 e0       	ldi	r25, 0x00	; 0
    4a44:	0e 94 e1 00 	call	0x1c2	; 0x1c2 <_Z8syncWaitm>
    4a48:	82 e0       	ldi	r24, 0x02	; 2
    4a4a:	80 93 38 03 	sts	0x0338, r24
	//nakloni se nad figurku
	motor[2].position(460);
    4a4e:	fe a2       	std	Y+38, r15	; 0x26
    4a50:	ed a2       	std	Y+37, r14	; 0x25
    4a52:	c8 01       	movw	r24, r16
    4a54:	be 01       	movw	r22, r28
    4a56:	6b 5d       	subi	r22, 0xDB	; 219
    4a58:	7f 4f       	sbci	r23, 0xFF	; 255
    4a5a:	0e 94 6b 0d 	call	0x1ad6	; 0x1ad6 <_ZN7motor_t8positionERKi>
    4a5e:	30 92 38 03 	sts	0x0338, r3
	motor[3].position(448);
    4a62:	98 a6       	std	Y+40, r9	; 0x28
    4a64:	8f a2       	std	Y+39, r8	; 0x27
    4a66:	c8 01       	movw	r24, r16
    4a68:	be 01       	movw	r22, r28
    4a6a:	69 5d       	subi	r22, 0xD9	; 217
    4a6c:	7f 4f       	sbci	r23, 0xFF	; 255
    4a6e:	0e 94 6b 0d 	call	0x1ad6	; 0x1ad6 <_ZN7motor_t8positionERKi>
    4a72:	20 92 38 03 	sts	0x0338, r2
	motor[4].position(320);
    4a76:	80 e4       	ldi	r24, 0x40	; 64
    4a78:	68 2e       	mov	r6, r24
    4a7a:	81 e0       	ldi	r24, 0x01	; 1
    4a7c:	78 2e       	mov	r7, r24
    4a7e:	7a a6       	std	Y+42, r7	; 0x2a
    4a80:	69 a6       	std	Y+41, r6	; 0x29
    4a82:	c8 01       	movw	r24, r16
    4a84:	be 01       	movw	r22, r28
    4a86:	67 5d       	subi	r22, 0xD7	; 215
    4a88:	7f 4f       	sbci	r23, 0xFF	; 255
    4a8a:	0e 94 6b 0d 	call	0x1ad6	; 0x1ad6 <_ZN7motor_t8positionERKi>
    4a8e:	85 e0       	ldi	r24, 0x05	; 5
    4a90:	80 93 38 03 	sts	0x0338, r24
	motor[5].position(248);
    4a94:	b8 ef       	ldi	r27, 0xF8	; 248
    4a96:	8b 2e       	mov	r8, r27
    4a98:	91 2c       	mov	r9, r1
    4a9a:	9c a6       	std	Y+44, r9	; 0x2c
    4a9c:	8b a6       	std	Y+43, r8	; 0x2b
    4a9e:	c8 01       	movw	r24, r16
    4aa0:	be 01       	movw	r22, r28
    4aa2:	65 5d       	subi	r22, 0xD5	; 213
    4aa4:	7f 4f       	sbci	r23, 0xFF	; 255
    4aa6:	0e 94 6b 0d 	call	0x1ad6	; 0x1ad6 <_ZN7motor_t8positionERKi>
    4aaa:	40 92 38 03 	sts	0x0338, r4
	motor[6].position(486);
    4aae:	be a6       	std	Y+46, r11	; 0x2e
    4ab0:	ad a6       	std	Y+45, r10	; 0x2d
    4ab2:	c8 01       	movw	r24, r16
    4ab4:	be 01       	movw	r22, r28
    4ab6:	63 5d       	subi	r22, 0xD3	; 211
    4ab8:	7f 4f       	sbci	r23, 0xFF	; 255
    4aba:	0e 94 6b 0d 	call	0x1ad6	; 0x1ad6 <_ZN7motor_t8positionERKi>
    4abe:	50 92 38 03 	sts	0x0338, r5
	motor[7].position(548);
    4ac2:	d8 aa       	std	Y+48, r13	; 0x30
    4ac4:	cf a6       	std	Y+47, r12	; 0x2f
    4ac6:	c8 01       	movw	r24, r16
    4ac8:	be 01       	movw	r22, r28
    4aca:	61 5d       	subi	r22, 0xD1	; 209
    4acc:	7f 4f       	sbci	r23, 0xFF	; 255
    4ace:	0e 94 6b 0d 	call	0x1ad6	; 0x1ad6 <_ZN7motor_t8positionERKi>
	syncWait(3000000);
    4ad2:	60 ec       	ldi	r22, 0xC0	; 192
    4ad4:	76 ec       	ldi	r23, 0xC6	; 198
    4ad6:	8d e2       	ldi	r24, 0x2D	; 45
    4ad8:	90 e0       	ldi	r25, 0x00	; 0
    4ada:	0e 94 e1 00 	call	0x1c2	; 0x1c2 <_Z8syncWaitm>
    4ade:	82 e0       	ldi	r24, 0x02	; 2
    4ae0:	80 93 38 03 	sts	0x0338, r24
	//nad figurkou zavre celisti
	motor[2].position(460);
    4ae4:	fa aa       	std	Y+50, r15	; 0x32
    4ae6:	e9 aa       	std	Y+49, r14	; 0x31
    4ae8:	c8 01       	movw	r24, r16
    4aea:	be 01       	movw	r22, r28
    4aec:	6f 5c       	subi	r22, 0xCF	; 207
    4aee:	7f 4f       	sbci	r23, 0xFF	; 255
    4af0:	0e 94 6b 0d 	call	0x1ad6	; 0x1ad6 <_ZN7motor_t8positionERKi>
    4af4:	30 92 38 03 	sts	0x0338, r3
	motor[3].position(453);
    4af8:	85 ec       	ldi	r24, 0xC5	; 197
    4afa:	91 e0       	ldi	r25, 0x01	; 1
    4afc:	9c ab       	std	Y+52, r25	; 0x34
    4afe:	8b ab       	std	Y+51, r24	; 0x33
    4b00:	c8 01       	movw	r24, r16
    4b02:	be 01       	movw	r22, r28
    4b04:	6d 5c       	subi	r22, 0xCD	; 205
    4b06:	7f 4f       	sbci	r23, 0xFF	; 255
    4b08:	0e 94 6b 0d 	call	0x1ad6	; 0x1ad6 <_ZN7motor_t8positionERKi>
    4b0c:	20 92 38 03 	sts	0x0338, r2
	motor[4].position(320);
    4b10:	7e aa       	std	Y+54, r7	; 0x36
    4b12:	6d aa       	std	Y+53, r6	; 0x35
    4b14:	c8 01       	movw	r24, r16
    4b16:	be 01       	movw	r22, r28
    4b18:	6b 5c       	subi	r22, 0xCB	; 203
    4b1a:	7f 4f       	sbci	r23, 0xFF	; 255
    4b1c:	0e 94 6b 0d 	call	0x1ad6	; 0x1ad6 <_ZN7motor_t8positionERKi>
    4b20:	85 e0       	ldi	r24, 0x05	; 5
    4b22:	80 93 38 03 	sts	0x0338, r24
	motor[5].position(248);
    4b26:	98 ae       	std	Y+56, r9	; 0x38
    4b28:	8f aa       	std	Y+55, r8	; 0x37
    4b2a:	c8 01       	movw	r24, r16
    4b2c:	be 01       	movw	r22, r28
    4b2e:	69 5c       	subi	r22, 0xC9	; 201
    4b30:	7f 4f       	sbci	r23, 0xFF	; 255
    4b32:	0e 94 6b 0d 	call	0x1ad6	; 0x1ad6 <_ZN7motor_t8positionERKi>
    4b36:	40 92 38 03 	sts	0x0338, r4
	motor[6].position(530);
    4b3a:	a2 e1       	ldi	r26, 0x12	; 18
    4b3c:	ea 2e       	mov	r14, r26
    4b3e:	a2 e0       	ldi	r26, 0x02	; 2
    4b40:	fa 2e       	mov	r15, r26
    4b42:	fa ae       	std	Y+58, r15	; 0x3a
    4b44:	e9 ae       	std	Y+57, r14	; 0x39
    4b46:	c8 01       	movw	r24, r16
    4b48:	be 01       	movw	r22, r28
    4b4a:	67 5c       	subi	r22, 0xC7	; 199
    4b4c:	7f 4f       	sbci	r23, 0xFF	; 255
    4b4e:	0e 94 6b 0d 	call	0x1ad6	; 0x1ad6 <_ZN7motor_t8positionERKi>
    4b52:	50 92 38 03 	sts	0x0338, r5
	motor[7].position(494);
    4b56:	fe ee       	ldi	r31, 0xEE	; 238
    4b58:	cf 2e       	mov	r12, r31
    4b5a:	f1 e0       	ldi	r31, 0x01	; 1
    4b5c:	df 2e       	mov	r13, r31
    4b5e:	dc ae       	std	Y+60, r13	; 0x3c
    4b60:	cb ae       	std	Y+59, r12	; 0x3b
    4b62:	c8 01       	movw	r24, r16
    4b64:	be 01       	movw	r22, r28
    4b66:	65 5c       	subi	r22, 0xC5	; 197
    4b68:	7f 4f       	sbci	r23, 0xFF	; 255
    4b6a:	0e 94 6b 0d 	call	0x1ad6	; 0x1ad6 <_ZN7motor_t8positionERKi>
	syncWait(1000000);
    4b6e:	60 e4       	ldi	r22, 0x40	; 64
    4b70:	72 e4       	ldi	r23, 0x42	; 66
    4b72:	8f e0       	ldi	r24, 0x0F	; 15
    4b74:	90 e0       	ldi	r25, 0x00	; 0
    4b76:	0e 94 e1 00 	call	0x1c2	; 0x1c2 <_Z8syncWaitm>
    4b7a:	82 e0       	ldi	r24, 0x02	; 2
    4b7c:	80 93 38 03 	sts	0x0338, r24
	//narovna rameno
	motor[2].position(500);
    4b80:	84 ef       	ldi	r24, 0xF4	; 244
    4b82:	91 e0       	ldi	r25, 0x01	; 1
    4b84:	9e af       	std	Y+62, r25	; 0x3e
    4b86:	8d af       	std	Y+61, r24	; 0x3d
    4b88:	c8 01       	movw	r24, r16
    4b8a:	be 01       	movw	r22, r28
    4b8c:	63 5c       	subi	r22, 0xC3	; 195
    4b8e:	7f 4f       	sbci	r23, 0xFF	; 255
    4b90:	0e 94 6b 0d 	call	0x1ad6	; 0x1ad6 <_ZN7motor_t8positionERKi>
    4b94:	30 92 38 03 	sts	0x0338, r3
	motor[3].position(700);
    4b98:	fe 01       	movw	r30, r28
    4b9a:	ff 96       	adiw	r30, 0x3f	; 63
    4b9c:	8c eb       	ldi	r24, 0xBC	; 188
    4b9e:	92 e0       	ldi	r25, 0x02	; 2
    4ba0:	91 83       	std	Z+1, r25	; 0x01
    4ba2:	80 83       	st	Z, r24
    4ba4:	c8 01       	movw	r24, r16
    4ba6:	bf 01       	movw	r22, r30
    4ba8:	0e 94 6b 0d 	call	0x1ad6	; 0x1ad6 <_ZN7motor_t8positionERKi>
    4bac:	20 92 38 03 	sts	0x0338, r2
	motor[4].position(314);
    4bb0:	fe 01       	movw	r30, r28
    4bb2:	ef 5b       	subi	r30, 0xBF	; 191
    4bb4:	ff 4f       	sbci	r31, 0xFF	; 255
    4bb6:	8a e3       	ldi	r24, 0x3A	; 58
    4bb8:	91 e0       	ldi	r25, 0x01	; 1
    4bba:	91 83       	std	Z+1, r25	; 0x01
    4bbc:	80 83       	st	Z, r24
    4bbe:	c8 01       	movw	r24, r16
    4bc0:	bf 01       	movw	r22, r30
    4bc2:	0e 94 6b 0d 	call	0x1ad6	; 0x1ad6 <_ZN7motor_t8positionERKi>
    4bc6:	85 e0       	ldi	r24, 0x05	; 5
    4bc8:	80 93 38 03 	sts	0x0338, r24
	motor[5].position(248);
    4bcc:	fe 01       	movw	r30, r28
    4bce:	ed 5b       	subi	r30, 0xBD	; 189
    4bd0:	ff 4f       	sbci	r31, 0xFF	; 255
    4bd2:	91 82       	std	Z+1, r9	; 0x01
    4bd4:	80 82       	st	Z, r8
    4bd6:	c8 01       	movw	r24, r16
    4bd8:	bf 01       	movw	r22, r30
    4bda:	0e 94 6b 0d 	call	0x1ad6	; 0x1ad6 <_ZN7motor_t8positionERKi>
    4bde:	40 92 38 03 	sts	0x0338, r4
	motor[6].position(530);
    4be2:	fe 01       	movw	r30, r28
    4be4:	eb 5b       	subi	r30, 0xBB	; 187
    4be6:	ff 4f       	sbci	r31, 0xFF	; 255
    4be8:	f1 82       	std	Z+1, r15	; 0x01
    4bea:	e0 82       	st	Z, r14
    4bec:	c8 01       	movw	r24, r16
    4bee:	bf 01       	movw	r22, r30
    4bf0:	0e 94 6b 0d 	call	0x1ad6	; 0x1ad6 <_ZN7motor_t8positionERKi>
    4bf4:	50 92 38 03 	sts	0x0338, r5
	motor[7].position(494);
    4bf8:	fe 01       	movw	r30, r28
    4bfa:	e9 5b       	subi	r30, 0xB9	; 185
    4bfc:	ff 4f       	sbci	r31, 0xFF	; 255
    4bfe:	d1 82       	std	Z+1, r13	; 0x01
    4c00:	c0 82       	st	Z, r12
    4c02:	c8 01       	movw	r24, r16
    4c04:	bf 01       	movw	r22, r30
    4c06:	0e 94 6b 0d 	call	0x1ad6	; 0x1ad6 <_ZN7motor_t8positionERKi>
	syncWait(3000000);
    4c0a:	60 ec       	ldi	r22, 0xC0	; 192
    4c0c:	76 ec       	ldi	r23, 0xC6	; 198
    4c0e:	8d e2       	ldi	r24, 0x2D	; 45
    4c10:	90 e0       	ldi	r25, 0x00	; 0
    4c12:	0e 94 e1 00 	call	0x1c2	; 0x1c2 <_Z8syncWaitm>
}
    4c16:	c8 5b       	subi	r28, 0xB8	; 184
    4c18:	df 4f       	sbci	r29, 0xFF	; 255
    4c1a:	0f b6       	in	r0, 0x3f	; 63
    4c1c:	f8 94       	cli
    4c1e:	de bf       	out	0x3e, r29	; 62
    4c20:	0f be       	out	0x3f, r0	; 63
    4c22:	cd bf       	out	0x3d, r28	; 61
    4c24:	cf 91       	pop	r28
    4c26:	df 91       	pop	r29
    4c28:	1f 91       	pop	r17
    4c2a:	0f 91       	pop	r16
    4c2c:	ff 90       	pop	r15
    4c2e:	ef 90       	pop	r14
    4c30:	df 90       	pop	r13
    4c32:	cf 90       	pop	r12
    4c34:	bf 90       	pop	r11
    4c36:	af 90       	pop	r10
    4c38:	9f 90       	pop	r9
    4c3a:	8f 90       	pop	r8
    4c3c:	7f 90       	pop	r7
    4c3e:	6f 90       	pop	r6
    4c40:	5f 90       	pop	r5
    4c42:	4f 90       	pop	r4
    4c44:	3f 90       	pop	r3
    4c46:	2f 90       	pop	r2
    4c48:	08 95       	ret

00004c4a <_Z16naber_na_pozici2v>:
{
	motor[1].position(50);
	vyloz();
}

void naber_na_pozici2()
    4c4a:	df 93       	push	r29
    4c4c:	cf 93       	push	r28
    4c4e:	00 d0       	rcall	.+0      	; 0x4c50 <_Z16naber_na_pozici2v+0x6>
    4c50:	cd b7       	in	r28, 0x3d	; 61
    4c52:	de b7       	in	r29, 0x3e	; 62
    4c54:	81 e0       	ldi	r24, 0x01	; 1
    4c56:	80 93 38 03 	sts	0x0338, r24
{
	motor[1].position(14);
    4c5a:	8e e0       	ldi	r24, 0x0E	; 14
    4c5c:	90 e0       	ldi	r25, 0x00	; 0
    4c5e:	9a 83       	std	Y+2, r25	; 0x02
    4c60:	89 83       	std	Y+1, r24	; 0x01
    4c62:	88 e3       	ldi	r24, 0x38	; 56
    4c64:	93 e0       	ldi	r25, 0x03	; 3
    4c66:	be 01       	movw	r22, r28
    4c68:	6f 5f       	subi	r22, 0xFF	; 255
    4c6a:	7f 4f       	sbci	r23, 0xFF	; 255
    4c6c:	0e 94 6b 0d 	call	0x1ad6	; 0x1ad6 <_ZN7motor_t8positionERKi>
	naber();
    4c70:	0e 94 0d 24 	call	0x481a	; 0x481a <_Z5naberv>
}
    4c74:	0f 90       	pop	r0
    4c76:	0f 90       	pop	r0
    4c78:	cf 91       	pop	r28
    4c7a:	df 91       	pop	r29
    4c7c:	08 95       	ret

00004c7e <_Z16naber_na_pozici1v>:
{
	motor[1].position(88);
	vyloz();
}

void naber_na_pozici1()
    4c7e:	df 93       	push	r29
    4c80:	cf 93       	push	r28
    4c82:	00 d0       	rcall	.+0      	; 0x4c84 <_Z16naber_na_pozici1v+0x6>
    4c84:	cd b7       	in	r28, 0x3d	; 61
    4c86:	de b7       	in	r29, 0x3e	; 62
    4c88:	81 e0       	ldi	r24, 0x01	; 1
    4c8a:	80 93 38 03 	sts	0x0338, r24
{
	motor[1].position(50);
    4c8e:	82 e3       	ldi	r24, 0x32	; 50
    4c90:	90 e0       	ldi	r25, 0x00	; 0
    4c92:	9a 83       	std	Y+2, r25	; 0x02
    4c94:	89 83       	std	Y+1, r24	; 0x01
    4c96:	88 e3       	ldi	r24, 0x38	; 56
    4c98:	93 e0       	ldi	r25, 0x03	; 3
    4c9a:	be 01       	movw	r22, r28
    4c9c:	6f 5f       	subi	r22, 0xFF	; 255
    4c9e:	7f 4f       	sbci	r23, 0xFF	; 255
    4ca0:	0e 94 6b 0d 	call	0x1ad6	; 0x1ad6 <_ZN7motor_t8positionERKi>
	naber();
    4ca4:	0e 94 0d 24 	call	0x481a	; 0x481a <_Z5naberv>
}
    4ca8:	0f 90       	pop	r0
    4caa:	0f 90       	pop	r0
    4cac:	cf 91       	pop	r28
    4cae:	df 91       	pop	r29
    4cb0:	08 95       	ret

00004cb2 <_Z17naber_na_pozici32v>:
{
	motor[1].position(126);
	vyloz();
}

void naber_na_pozici32()
    4cb2:	df 93       	push	r29
    4cb4:	cf 93       	push	r28
    4cb6:	00 d0       	rcall	.+0      	; 0x4cb8 <_Z17naber_na_pozici32v+0x6>
    4cb8:	cd b7       	in	r28, 0x3d	; 61
    4cba:	de b7       	in	r29, 0x3e	; 62
    4cbc:	81 e0       	ldi	r24, 0x01	; 1
    4cbe:	80 93 38 03 	sts	0x0338, r24
{
	motor[1].position(88);
    4cc2:	88 e5       	ldi	r24, 0x58	; 88
    4cc4:	90 e0       	ldi	r25, 0x00	; 0
    4cc6:	9a 83       	std	Y+2, r25	; 0x02
    4cc8:	89 83       	std	Y+1, r24	; 0x01
    4cca:	88 e3       	ldi	r24, 0x38	; 56
    4ccc:	93 e0       	ldi	r25, 0x03	; 3
    4cce:	be 01       	movw	r22, r28
    4cd0:	6f 5f       	subi	r22, 0xFF	; 255
    4cd2:	7f 4f       	sbci	r23, 0xFF	; 255
    4cd4:	0e 94 6b 0d 	call	0x1ad6	; 0x1ad6 <_ZN7motor_t8positionERKi>
	naber();
    4cd8:	0e 94 0d 24 	call	0x481a	; 0x481a <_Z5naberv>
}
    4cdc:	0f 90       	pop	r0
    4cde:	0f 90       	pop	r0
    4ce0:	cf 91       	pop	r28
    4ce2:	df 91       	pop	r29
    4ce4:	08 95       	ret

00004ce6 <_Z17naber_na_pozici31v>:
{
	motor[1].position(168);
	vyloz();
}

void naber_na_pozici31()
    4ce6:	df 93       	push	r29
    4ce8:	cf 93       	push	r28
    4cea:	00 d0       	rcall	.+0      	; 0x4cec <_Z17naber_na_pozici31v+0x6>
    4cec:	cd b7       	in	r28, 0x3d	; 61
    4cee:	de b7       	in	r29, 0x3e	; 62
    4cf0:	81 e0       	ldi	r24, 0x01	; 1
    4cf2:	80 93 38 03 	sts	0x0338, r24
{
	motor[1].position(126);
    4cf6:	8e e7       	ldi	r24, 0x7E	; 126
    4cf8:	90 e0       	ldi	r25, 0x00	; 0
    4cfa:	9a 83       	std	Y+2, r25	; 0x02
    4cfc:	89 83       	std	Y+1, r24	; 0x01
    4cfe:	88 e3       	ldi	r24, 0x38	; 56
    4d00:	93 e0       	ldi	r25, 0x03	; 3
    4d02:	be 01       	movw	r22, r28
    4d04:	6f 5f       	subi	r22, 0xFF	; 255
    4d06:	7f 4f       	sbci	r23, 0xFF	; 255
    4d08:	0e 94 6b 0d 	call	0x1ad6	; 0x1ad6 <_ZN7motor_t8positionERKi>
	naber();
    4d0c:	0e 94 0d 24 	call	0x481a	; 0x481a <_Z5naberv>
}
    4d10:	0f 90       	pop	r0
    4d12:	0f 90       	pop	r0
    4d14:	cf 91       	pop	r28
    4d16:	df 91       	pop	r29
    4d18:	08 95       	ret

00004d1a <_Z17naber_na_pozici30v>:
{
	motor[1].position(202);
	vyloz();
}

void naber_na_pozici30()
    4d1a:	df 93       	push	r29
    4d1c:	cf 93       	push	r28
    4d1e:	00 d0       	rcall	.+0      	; 0x4d20 <_Z17naber_na_pozici30v+0x6>
    4d20:	cd b7       	in	r28, 0x3d	; 61
    4d22:	de b7       	in	r29, 0x3e	; 62
    4d24:	81 e0       	ldi	r24, 0x01	; 1
    4d26:	80 93 38 03 	sts	0x0338, r24
{
	motor[1].position(168);
    4d2a:	88 ea       	ldi	r24, 0xA8	; 168
    4d2c:	90 e0       	ldi	r25, 0x00	; 0
    4d2e:	9a 83       	std	Y+2, r25	; 0x02
    4d30:	89 83       	std	Y+1, r24	; 0x01
    4d32:	88 e3       	ldi	r24, 0x38	; 56
    4d34:	93 e0       	ldi	r25, 0x03	; 3
    4d36:	be 01       	movw	r22, r28
    4d38:	6f 5f       	subi	r22, 0xFF	; 255
    4d3a:	7f 4f       	sbci	r23, 0xFF	; 255
    4d3c:	0e 94 6b 0d 	call	0x1ad6	; 0x1ad6 <_ZN7motor_t8positionERKi>
	naber();
    4d40:	0e 94 0d 24 	call	0x481a	; 0x481a <_Z5naberv>
}
    4d44:	0f 90       	pop	r0
    4d46:	0f 90       	pop	r0
    4d48:	cf 91       	pop	r28
    4d4a:	df 91       	pop	r29
    4d4c:	08 95       	ret

00004d4e <_Z17naber_na_pozici29v>:
{
	motor[1].position(239);
	vyloz();
}

void naber_na_pozici29()
    4d4e:	df 93       	push	r29
    4d50:	cf 93       	push	r28
    4d52:	00 d0       	rcall	.+0      	; 0x4d54 <_Z17naber_na_pozici29v+0x6>
    4d54:	cd b7       	in	r28, 0x3d	; 61
    4d56:	de b7       	in	r29, 0x3e	; 62
    4d58:	81 e0       	ldi	r24, 0x01	; 1
    4d5a:	80 93 38 03 	sts	0x0338, r24
{
	motor[1].position(202);
    4d5e:	8a ec       	ldi	r24, 0xCA	; 202
    4d60:	90 e0       	ldi	r25, 0x00	; 0
    4d62:	9a 83       	std	Y+2, r25	; 0x02
    4d64:	89 83       	std	Y+1, r24	; 0x01
    4d66:	88 e3       	ldi	r24, 0x38	; 56
    4d68:	93 e0       	ldi	r25, 0x03	; 3
    4d6a:	be 01       	movw	r22, r28
    4d6c:	6f 5f       	subi	r22, 0xFF	; 255
    4d6e:	7f 4f       	sbci	r23, 0xFF	; 255
    4d70:	0e 94 6b 0d 	call	0x1ad6	; 0x1ad6 <_ZN7motor_t8positionERKi>
	naber();
    4d74:	0e 94 0d 24 	call	0x481a	; 0x481a <_Z5naberv>
}
    4d78:	0f 90       	pop	r0
    4d7a:	0f 90       	pop	r0
    4d7c:	cf 91       	pop	r28
    4d7e:	df 91       	pop	r29
    4d80:	08 95       	ret

00004d82 <_Z17naber_na_pozici28v>:
{
	motor[1].position(283);
	vyloz();
}

void naber_na_pozici28()
    4d82:	df 93       	push	r29
    4d84:	cf 93       	push	r28
    4d86:	00 d0       	rcall	.+0      	; 0x4d88 <_Z17naber_na_pozici28v+0x6>
    4d88:	cd b7       	in	r28, 0x3d	; 61
    4d8a:	de b7       	in	r29, 0x3e	; 62
    4d8c:	81 e0       	ldi	r24, 0x01	; 1
    4d8e:	80 93 38 03 	sts	0x0338, r24
{
	motor[1].position(239);
    4d92:	8f ee       	ldi	r24, 0xEF	; 239
    4d94:	90 e0       	ldi	r25, 0x00	; 0
    4d96:	9a 83       	std	Y+2, r25	; 0x02
    4d98:	89 83       	std	Y+1, r24	; 0x01
    4d9a:	88 e3       	ldi	r24, 0x38	; 56
    4d9c:	93 e0       	ldi	r25, 0x03	; 3
    4d9e:	be 01       	movw	r22, r28
    4da0:	6f 5f       	subi	r22, 0xFF	; 255
    4da2:	7f 4f       	sbci	r23, 0xFF	; 255
    4da4:	0e 94 6b 0d 	call	0x1ad6	; 0x1ad6 <_ZN7motor_t8positionERKi>
	naber();
    4da8:	0e 94 0d 24 	call	0x481a	; 0x481a <_Z5naberv>
}
    4dac:	0f 90       	pop	r0
    4dae:	0f 90       	pop	r0
    4db0:	cf 91       	pop	r28
    4db2:	df 91       	pop	r29
    4db4:	08 95       	ret

00004db6 <_Z17naber_na_pozici27v>:
{
	motor[1].position(316);
	vyloz();
}

void naber_na_pozici27()
    4db6:	df 93       	push	r29
    4db8:	cf 93       	push	r28
    4dba:	00 d0       	rcall	.+0      	; 0x4dbc <_Z17naber_na_pozici27v+0x6>
    4dbc:	cd b7       	in	r28, 0x3d	; 61
    4dbe:	de b7       	in	r29, 0x3e	; 62
    4dc0:	81 e0       	ldi	r24, 0x01	; 1
    4dc2:	80 93 38 03 	sts	0x0338, r24
{
	motor[1].position(283);
    4dc6:	8b e1       	ldi	r24, 0x1B	; 27
    4dc8:	91 e0       	ldi	r25, 0x01	; 1
    4dca:	9a 83       	std	Y+2, r25	; 0x02
    4dcc:	89 83       	std	Y+1, r24	; 0x01
    4dce:	88 e3       	ldi	r24, 0x38	; 56
    4dd0:	93 e0       	ldi	r25, 0x03	; 3
    4dd2:	be 01       	movw	r22, r28
    4dd4:	6f 5f       	subi	r22, 0xFF	; 255
    4dd6:	7f 4f       	sbci	r23, 0xFF	; 255
    4dd8:	0e 94 6b 0d 	call	0x1ad6	; 0x1ad6 <_ZN7motor_t8positionERKi>
	naber();
    4ddc:	0e 94 0d 24 	call	0x481a	; 0x481a <_Z5naberv>
}
    4de0:	0f 90       	pop	r0
    4de2:	0f 90       	pop	r0
    4de4:	cf 91       	pop	r28
    4de6:	df 91       	pop	r29
    4de8:	08 95       	ret

00004dea <_Z17naber_na_pozici26v>:
{
	motor[1].position(352);
	vyloz();
}

void naber_na_pozici26()
    4dea:	df 93       	push	r29
    4dec:	cf 93       	push	r28
    4dee:	00 d0       	rcall	.+0      	; 0x4df0 <_Z17naber_na_pozici26v+0x6>
    4df0:	cd b7       	in	r28, 0x3d	; 61
    4df2:	de b7       	in	r29, 0x3e	; 62
    4df4:	81 e0       	ldi	r24, 0x01	; 1
    4df6:	80 93 38 03 	sts	0x0338, r24
{
	motor[1].position(316);
    4dfa:	8c e3       	ldi	r24, 0x3C	; 60
    4dfc:	91 e0       	ldi	r25, 0x01	; 1
    4dfe:	9a 83       	std	Y+2, r25	; 0x02
    4e00:	89 83       	std	Y+1, r24	; 0x01
    4e02:	88 e3       	ldi	r24, 0x38	; 56
    4e04:	93 e0       	ldi	r25, 0x03	; 3
    4e06:	be 01       	movw	r22, r28
    4e08:	6f 5f       	subi	r22, 0xFF	; 255
    4e0a:	7f 4f       	sbci	r23, 0xFF	; 255
    4e0c:	0e 94 6b 0d 	call	0x1ad6	; 0x1ad6 <_ZN7motor_t8positionERKi>
	naber();
    4e10:	0e 94 0d 24 	call	0x481a	; 0x481a <_Z5naberv>
}
    4e14:	0f 90       	pop	r0
    4e16:	0f 90       	pop	r0
    4e18:	cf 91       	pop	r28
    4e1a:	df 91       	pop	r29
    4e1c:	08 95       	ret

00004e1e <_Z17naber_na_pozici25v>:
{
	motor[1].position(392);
	vyloz();
}

void naber_na_pozici25()
    4e1e:	df 93       	push	r29
    4e20:	cf 93       	push	r28
    4e22:	00 d0       	rcall	.+0      	; 0x4e24 <_Z17naber_na_pozici25v+0x6>
    4e24:	cd b7       	in	r28, 0x3d	; 61
    4e26:	de b7       	in	r29, 0x3e	; 62
    4e28:	81 e0       	ldi	r24, 0x01	; 1
    4e2a:	80 93 38 03 	sts	0x0338, r24
{
	motor[1].position(352);
    4e2e:	80 e6       	ldi	r24, 0x60	; 96
    4e30:	91 e0       	ldi	r25, 0x01	; 1
    4e32:	9a 83       	std	Y+2, r25	; 0x02
    4e34:	89 83       	std	Y+1, r24	; 0x01
    4e36:	88 e3       	ldi	r24, 0x38	; 56
    4e38:	93 e0       	ldi	r25, 0x03	; 3
    4e3a:	be 01       	movw	r22, r28
    4e3c:	6f 5f       	subi	r22, 0xFF	; 255
    4e3e:	7f 4f       	sbci	r23, 0xFF	; 255
    4e40:	0e 94 6b 0d 	call	0x1ad6	; 0x1ad6 <_ZN7motor_t8positionERKi>
	naber();
    4e44:	0e 94 0d 24 	call	0x481a	; 0x481a <_Z5naberv>
}
    4e48:	0f 90       	pop	r0
    4e4a:	0f 90       	pop	r0
    4e4c:	cf 91       	pop	r28
    4e4e:	df 91       	pop	r29
    4e50:	08 95       	ret

00004e52 <_Z17naber_na_pozici24v>:
{
	motor[1].position(434);
	vyloz();
}

void naber_na_pozici24()
    4e52:	df 93       	push	r29
    4e54:	cf 93       	push	r28
    4e56:	00 d0       	rcall	.+0      	; 0x4e58 <_Z17naber_na_pozici24v+0x6>
    4e58:	cd b7       	in	r28, 0x3d	; 61
    4e5a:	de b7       	in	r29, 0x3e	; 62
    4e5c:	81 e0       	ldi	r24, 0x01	; 1
    4e5e:	80 93 38 03 	sts	0x0338, r24
{
	motor[1].position(392);
    4e62:	88 e8       	ldi	r24, 0x88	; 136
    4e64:	91 e0       	ldi	r25, 0x01	; 1
    4e66:	9a 83       	std	Y+2, r25	; 0x02
    4e68:	89 83       	std	Y+1, r24	; 0x01
    4e6a:	88 e3       	ldi	r24, 0x38	; 56
    4e6c:	93 e0       	ldi	r25, 0x03	; 3
    4e6e:	be 01       	movw	r22, r28
    4e70:	6f 5f       	subi	r22, 0xFF	; 255
    4e72:	7f 4f       	sbci	r23, 0xFF	; 255
    4e74:	0e 94 6b 0d 	call	0x1ad6	; 0x1ad6 <_ZN7motor_t8positionERKi>
	naber();
    4e78:	0e 94 0d 24 	call	0x481a	; 0x481a <_Z5naberv>
}
    4e7c:	0f 90       	pop	r0
    4e7e:	0f 90       	pop	r0
    4e80:	cf 91       	pop	r28
    4e82:	df 91       	pop	r29
    4e84:	08 95       	ret

00004e86 <_Z17naber_na_pozici23v>:
{
	motor[1].position(470);
	vyloz();
}

void naber_na_pozici23()
    4e86:	df 93       	push	r29
    4e88:	cf 93       	push	r28
    4e8a:	00 d0       	rcall	.+0      	; 0x4e8c <_Z17naber_na_pozici23v+0x6>
    4e8c:	cd b7       	in	r28, 0x3d	; 61
    4e8e:	de b7       	in	r29, 0x3e	; 62
    4e90:	81 e0       	ldi	r24, 0x01	; 1
    4e92:	80 93 38 03 	sts	0x0338, r24
{
	motor[1].position(434);
    4e96:	82 eb       	ldi	r24, 0xB2	; 178
    4e98:	91 e0       	ldi	r25, 0x01	; 1
    4e9a:	9a 83       	std	Y+2, r25	; 0x02
    4e9c:	89 83       	std	Y+1, r24	; 0x01
    4e9e:	88 e3       	ldi	r24, 0x38	; 56
    4ea0:	93 e0       	ldi	r25, 0x03	; 3
    4ea2:	be 01       	movw	r22, r28
    4ea4:	6f 5f       	subi	r22, 0xFF	; 255
    4ea6:	7f 4f       	sbci	r23, 0xFF	; 255
    4ea8:	0e 94 6b 0d 	call	0x1ad6	; 0x1ad6 <_ZN7motor_t8positionERKi>
	naber();
    4eac:	0e 94 0d 24 	call	0x481a	; 0x481a <_Z5naberv>
}
    4eb0:	0f 90       	pop	r0
    4eb2:	0f 90       	pop	r0
    4eb4:	cf 91       	pop	r28
    4eb6:	df 91       	pop	r29
    4eb8:	08 95       	ret

00004eba <_Z17naber_na_pozici22v>:
{
	motor[1].position(510);
	vyloz();
}

void naber_na_pozici22()
    4eba:	df 93       	push	r29
    4ebc:	cf 93       	push	r28
    4ebe:	00 d0       	rcall	.+0      	; 0x4ec0 <_Z17naber_na_pozici22v+0x6>
    4ec0:	cd b7       	in	r28, 0x3d	; 61
    4ec2:	de b7       	in	r29, 0x3e	; 62
    4ec4:	81 e0       	ldi	r24, 0x01	; 1
    4ec6:	80 93 38 03 	sts	0x0338, r24
{
	motor[1].position(470);
    4eca:	86 ed       	ldi	r24, 0xD6	; 214
    4ecc:	91 e0       	ldi	r25, 0x01	; 1
    4ece:	9a 83       	std	Y+2, r25	; 0x02
    4ed0:	89 83       	std	Y+1, r24	; 0x01
    4ed2:	88 e3       	ldi	r24, 0x38	; 56
    4ed4:	93 e0       	ldi	r25, 0x03	; 3
    4ed6:	be 01       	movw	r22, r28
    4ed8:	6f 5f       	subi	r22, 0xFF	; 255
    4eda:	7f 4f       	sbci	r23, 0xFF	; 255
    4edc:	0e 94 6b 0d 	call	0x1ad6	; 0x1ad6 <_ZN7motor_t8positionERKi>
	naber();
    4ee0:	0e 94 0d 24 	call	0x481a	; 0x481a <_Z5naberv>
}
    4ee4:	0f 90       	pop	r0
    4ee6:	0f 90       	pop	r0
    4ee8:	cf 91       	pop	r28
    4eea:	df 91       	pop	r29
    4eec:	08 95       	ret

00004eee <_Z20vyhod_preddefinovanov>:
	motor[7].position(512);

}
void vyhod_preddefinovano()
{
	naber_na_pozici25();
    4eee:	0e 94 0f 27 	call	0x4e1e	; 0x4e1e <_Z17naber_na_pozici25v>
	syncWait(2000000);
    4ef2:	60 e8       	ldi	r22, 0x80	; 128
    4ef4:	74 e8       	ldi	r23, 0x84	; 132
    4ef6:	8e e1       	ldi	r24, 0x1E	; 30
    4ef8:	90 e0       	ldi	r25, 0x00	; 0
    4efa:	0e 94 e1 00 	call	0x1c2	; 0x1c2 <_Z8syncWaitm>
	chlivek_clovek_pozice39();
    4efe:	0e 94 4b 1b 	call	0x3696	; 0x3696 <_Z23chlivek_clovek_pozice39v>
	syncWait(2000000);
    4f02:	60 e8       	ldi	r22, 0x80	; 128
    4f04:	74 e8       	ldi	r23, 0x84	; 132
    4f06:	8e e1       	ldi	r24, 0x1E	; 30
    4f08:	90 e0       	ldi	r25, 0x00	; 0
    4f0a:	0e 94 e1 00 	call	0x1c2	; 0x1c2 <_Z8syncWaitm>
	naber_na_pozici22();
    4f0e:	0e 94 5d 27 	call	0x4eba	; 0x4eba <_Z17naber_na_pozici22v>
	syncWait(2000000);
    4f12:	60 e8       	ldi	r22, 0x80	; 128
    4f14:	74 e8       	ldi	r23, 0x84	; 132
    4f16:	8e e1       	ldi	r24, 0x1E	; 30
    4f18:	90 e0       	ldi	r25, 0x00	; 0
    4f1a:	0e 94 e1 00 	call	0x1c2	; 0x1c2 <_Z8syncWaitm>
	vyloz_na_pozici25();
    4f1e:	0e 94 39 22 	call	0x4472	; 0x4472 <_Z17vyloz_na_pozici25v>
}
    4f22:	08 95       	ret

00004f24 <_Z17naber_na_pozici21v>:
{
	motor[1].position(548);
	vyloz();
}

void naber_na_pozici21()
    4f24:	df 93       	push	r29
    4f26:	cf 93       	push	r28
    4f28:	00 d0       	rcall	.+0      	; 0x4f2a <_Z17naber_na_pozici21v+0x6>
    4f2a:	cd b7       	in	r28, 0x3d	; 61
    4f2c:	de b7       	in	r29, 0x3e	; 62
    4f2e:	81 e0       	ldi	r24, 0x01	; 1
    4f30:	80 93 38 03 	sts	0x0338, r24
{
	motor[1].position(510);
    4f34:	8e ef       	ldi	r24, 0xFE	; 254
    4f36:	91 e0       	ldi	r25, 0x01	; 1
    4f38:	9a 83       	std	Y+2, r25	; 0x02
    4f3a:	89 83       	std	Y+1, r24	; 0x01
    4f3c:	88 e3       	ldi	r24, 0x38	; 56
    4f3e:	93 e0       	ldi	r25, 0x03	; 3
    4f40:	be 01       	movw	r22, r28
    4f42:	6f 5f       	subi	r22, 0xFF	; 255
    4f44:	7f 4f       	sbci	r23, 0xFF	; 255
    4f46:	0e 94 6b 0d 	call	0x1ad6	; 0x1ad6 <_ZN7motor_t8positionERKi>
	naber();
    4f4a:	0e 94 0d 24 	call	0x481a	; 0x481a <_Z5naberv>
}
    4f4e:	0f 90       	pop	r0
    4f50:	0f 90       	pop	r0
    4f52:	cf 91       	pop	r28
    4f54:	df 91       	pop	r29
    4f56:	08 95       	ret

00004f58 <_Z17naber_na_pozici20v>:
{
	motor[1].position(589);
	vyloz();
}

void naber_na_pozici20()
    4f58:	df 93       	push	r29
    4f5a:	cf 93       	push	r28
    4f5c:	00 d0       	rcall	.+0      	; 0x4f5e <_Z17naber_na_pozici20v+0x6>
    4f5e:	cd b7       	in	r28, 0x3d	; 61
    4f60:	de b7       	in	r29, 0x3e	; 62
    4f62:	81 e0       	ldi	r24, 0x01	; 1
    4f64:	80 93 38 03 	sts	0x0338, r24
{
	motor[1].position(548);
    4f68:	84 e2       	ldi	r24, 0x24	; 36
    4f6a:	92 e0       	ldi	r25, 0x02	; 2
    4f6c:	9a 83       	std	Y+2, r25	; 0x02
    4f6e:	89 83       	std	Y+1, r24	; 0x01
    4f70:	88 e3       	ldi	r24, 0x38	; 56
    4f72:	93 e0       	ldi	r25, 0x03	; 3
    4f74:	be 01       	movw	r22, r28
    4f76:	6f 5f       	subi	r22, 0xFF	; 255
    4f78:	7f 4f       	sbci	r23, 0xFF	; 255
    4f7a:	0e 94 6b 0d 	call	0x1ad6	; 0x1ad6 <_ZN7motor_t8positionERKi>
	naber();
    4f7e:	0e 94 0d 24 	call	0x481a	; 0x481a <_Z5naberv>
}
    4f82:	0f 90       	pop	r0
    4f84:	0f 90       	pop	r0
    4f86:	cf 91       	pop	r28
    4f88:	df 91       	pop	r29
    4f8a:	08 95       	ret

00004f8c <_Z17naber_na_pozici19v>:
{
	motor[1].position(626);
	vyloz();
}

void naber_na_pozici19()
    4f8c:	df 93       	push	r29
    4f8e:	cf 93       	push	r28
    4f90:	00 d0       	rcall	.+0      	; 0x4f92 <_Z17naber_na_pozici19v+0x6>
    4f92:	cd b7       	in	r28, 0x3d	; 61
    4f94:	de b7       	in	r29, 0x3e	; 62
    4f96:	81 e0       	ldi	r24, 0x01	; 1
    4f98:	80 93 38 03 	sts	0x0338, r24
{
	motor[1].position(589);
    4f9c:	8d e4       	ldi	r24, 0x4D	; 77
    4f9e:	92 e0       	ldi	r25, 0x02	; 2
    4fa0:	9a 83       	std	Y+2, r25	; 0x02
    4fa2:	89 83       	std	Y+1, r24	; 0x01
    4fa4:	88 e3       	ldi	r24, 0x38	; 56
    4fa6:	93 e0       	ldi	r25, 0x03	; 3
    4fa8:	be 01       	movw	r22, r28
    4faa:	6f 5f       	subi	r22, 0xFF	; 255
    4fac:	7f 4f       	sbci	r23, 0xFF	; 255
    4fae:	0e 94 6b 0d 	call	0x1ad6	; 0x1ad6 <_ZN7motor_t8positionERKi>
	naber();
    4fb2:	0e 94 0d 24 	call	0x481a	; 0x481a <_Z5naberv>
}
    4fb6:	0f 90       	pop	r0
    4fb8:	0f 90       	pop	r0
    4fba:	cf 91       	pop	r28
    4fbc:	df 91       	pop	r29
    4fbe:	08 95       	ret

00004fc0 <_Z17naber_na_pozici18v>:
{
	motor[1].position(659);
	vyloz();
}

void naber_na_pozici18()
    4fc0:	df 93       	push	r29
    4fc2:	cf 93       	push	r28
    4fc4:	00 d0       	rcall	.+0      	; 0x4fc6 <_Z17naber_na_pozici18v+0x6>
    4fc6:	cd b7       	in	r28, 0x3d	; 61
    4fc8:	de b7       	in	r29, 0x3e	; 62
    4fca:	81 e0       	ldi	r24, 0x01	; 1
    4fcc:	80 93 38 03 	sts	0x0338, r24
{
	motor[1].position(626);
    4fd0:	82 e7       	ldi	r24, 0x72	; 114
    4fd2:	92 e0       	ldi	r25, 0x02	; 2
    4fd4:	9a 83       	std	Y+2, r25	; 0x02
    4fd6:	89 83       	std	Y+1, r24	; 0x01
    4fd8:	88 e3       	ldi	r24, 0x38	; 56
    4fda:	93 e0       	ldi	r25, 0x03	; 3
    4fdc:	be 01       	movw	r22, r28
    4fde:	6f 5f       	subi	r22, 0xFF	; 255
    4fe0:	7f 4f       	sbci	r23, 0xFF	; 255
    4fe2:	0e 94 6b 0d 	call	0x1ad6	; 0x1ad6 <_ZN7motor_t8positionERKi>
	naber();
    4fe6:	0e 94 0d 24 	call	0x481a	; 0x481a <_Z5naberv>
}
    4fea:	0f 90       	pop	r0
    4fec:	0f 90       	pop	r0
    4fee:	cf 91       	pop	r28
    4ff0:	df 91       	pop	r29
    4ff2:	08 95       	ret

00004ff4 <_Z17naber_na_pozici17v>:
{
	motor[1].position(700);
	vyloz();
}

void naber_na_pozici17()
    4ff4:	df 93       	push	r29
    4ff6:	cf 93       	push	r28
    4ff8:	00 d0       	rcall	.+0      	; 0x4ffa <_Z17naber_na_pozici17v+0x6>
    4ffa:	cd b7       	in	r28, 0x3d	; 61
    4ffc:	de b7       	in	r29, 0x3e	; 62
    4ffe:	81 e0       	ldi	r24, 0x01	; 1
    5000:	80 93 38 03 	sts	0x0338, r24
{
	motor[1].position(659);
    5004:	83 e9       	ldi	r24, 0x93	; 147
    5006:	92 e0       	ldi	r25, 0x02	; 2
    5008:	9a 83       	std	Y+2, r25	; 0x02
    500a:	89 83       	std	Y+1, r24	; 0x01
    500c:	88 e3       	ldi	r24, 0x38	; 56
    500e:	93 e0       	ldi	r25, 0x03	; 3
    5010:	be 01       	movw	r22, r28
    5012:	6f 5f       	subi	r22, 0xFF	; 255
    5014:	7f 4f       	sbci	r23, 0xFF	; 255
    5016:	0e 94 6b 0d 	call	0x1ad6	; 0x1ad6 <_ZN7motor_t8positionERKi>
	naber();
    501a:	0e 94 0d 24 	call	0x481a	; 0x481a <_Z5naberv>
}
    501e:	0f 90       	pop	r0
    5020:	0f 90       	pop	r0
    5022:	cf 91       	pop	r28
    5024:	df 91       	pop	r29
    5026:	08 95       	ret

00005028 <_Z17naber_na_pozici16v>:
{
	motor[1].position(743);
	vyloz();
}

void naber_na_pozici16()
    5028:	df 93       	push	r29
    502a:	cf 93       	push	r28
    502c:	00 d0       	rcall	.+0      	; 0x502e <_Z17naber_na_pozici16v+0x6>
    502e:	cd b7       	in	r28, 0x3d	; 61
    5030:	de b7       	in	r29, 0x3e	; 62
    5032:	81 e0       	ldi	r24, 0x01	; 1
    5034:	80 93 38 03 	sts	0x0338, r24
{
	motor[1].position(700);
    5038:	8c eb       	ldi	r24, 0xBC	; 188
    503a:	92 e0       	ldi	r25, 0x02	; 2
    503c:	9a 83       	std	Y+2, r25	; 0x02
    503e:	89 83       	std	Y+1, r24	; 0x01
    5040:	88 e3       	ldi	r24, 0x38	; 56
    5042:	93 e0       	ldi	r25, 0x03	; 3
    5044:	be 01       	movw	r22, r28
    5046:	6f 5f       	subi	r22, 0xFF	; 255
    5048:	7f 4f       	sbci	r23, 0xFF	; 255
    504a:	0e 94 6b 0d 	call	0x1ad6	; 0x1ad6 <_ZN7motor_t8positionERKi>
	naber();
    504e:	0e 94 0d 24 	call	0x481a	; 0x481a <_Z5naberv>
}
    5052:	0f 90       	pop	r0
    5054:	0f 90       	pop	r0
    5056:	cf 91       	pop	r28
    5058:	df 91       	pop	r29
    505a:	08 95       	ret

0000505c <_Z17naber_na_pozici15v>:
{
	motor[1].position(780);
	vyloz();
}

void naber_na_pozici15()
    505c:	df 93       	push	r29
    505e:	cf 93       	push	r28
    5060:	00 d0       	rcall	.+0      	; 0x5062 <_Z17naber_na_pozici15v+0x6>
    5062:	cd b7       	in	r28, 0x3d	; 61
    5064:	de b7       	in	r29, 0x3e	; 62
    5066:	81 e0       	ldi	r24, 0x01	; 1
    5068:	80 93 38 03 	sts	0x0338, r24
{
	motor[1].position(743);
    506c:	87 ee       	ldi	r24, 0xE7	; 231
    506e:	92 e0       	ldi	r25, 0x02	; 2
    5070:	9a 83       	std	Y+2, r25	; 0x02
    5072:	89 83       	std	Y+1, r24	; 0x01
    5074:	88 e3       	ldi	r24, 0x38	; 56
    5076:	93 e0       	ldi	r25, 0x03	; 3
    5078:	be 01       	movw	r22, r28
    507a:	6f 5f       	subi	r22, 0xFF	; 255
    507c:	7f 4f       	sbci	r23, 0xFF	; 255
    507e:	0e 94 6b 0d 	call	0x1ad6	; 0x1ad6 <_ZN7motor_t8positionERKi>
	naber();
    5082:	0e 94 0d 24 	call	0x481a	; 0x481a <_Z5naberv>
}
    5086:	0f 90       	pop	r0
    5088:	0f 90       	pop	r0
    508a:	cf 91       	pop	r28
    508c:	df 91       	pop	r29
    508e:	08 95       	ret

00005090 <_Z17naber_na_pozici14v>:
{
	motor[1].position(819);
	vyloz();
}

void naber_na_pozici14()
    5090:	df 93       	push	r29
    5092:	cf 93       	push	r28
    5094:	00 d0       	rcall	.+0      	; 0x5096 <_Z17naber_na_pozici14v+0x6>
    5096:	cd b7       	in	r28, 0x3d	; 61
    5098:	de b7       	in	r29, 0x3e	; 62
    509a:	81 e0       	ldi	r24, 0x01	; 1
    509c:	80 93 38 03 	sts	0x0338, r24
{
	motor[1].position(780);
    50a0:	8c e0       	ldi	r24, 0x0C	; 12
    50a2:	93 e0       	ldi	r25, 0x03	; 3
    50a4:	9a 83       	std	Y+2, r25	; 0x02
    50a6:	89 83       	std	Y+1, r24	; 0x01
    50a8:	88 e3       	ldi	r24, 0x38	; 56
    50aa:	93 e0       	ldi	r25, 0x03	; 3
    50ac:	be 01       	movw	r22, r28
    50ae:	6f 5f       	subi	r22, 0xFF	; 255
    50b0:	7f 4f       	sbci	r23, 0xFF	; 255
    50b2:	0e 94 6b 0d 	call	0x1ad6	; 0x1ad6 <_ZN7motor_t8positionERKi>
	naber();
    50b6:	0e 94 0d 24 	call	0x481a	; 0x481a <_Z5naberv>
}
    50ba:	0f 90       	pop	r0
    50bc:	0f 90       	pop	r0
    50be:	cf 91       	pop	r28
    50c0:	df 91       	pop	r29
    50c2:	08 95       	ret

000050c4 <_Z17naber_na_pozici13v>:
{
	motor[1].position(858);
	vyloz();
}

void naber_na_pozici13()
    50c4:	df 93       	push	r29
    50c6:	cf 93       	push	r28
    50c8:	00 d0       	rcall	.+0      	; 0x50ca <_Z17naber_na_pozici13v+0x6>
    50ca:	cd b7       	in	r28, 0x3d	; 61
    50cc:	de b7       	in	r29, 0x3e	; 62
    50ce:	81 e0       	ldi	r24, 0x01	; 1
    50d0:	80 93 38 03 	sts	0x0338, r24
{
	motor[1].position(819);
    50d4:	83 e3       	ldi	r24, 0x33	; 51
    50d6:	93 e0       	ldi	r25, 0x03	; 3
    50d8:	9a 83       	std	Y+2, r25	; 0x02
    50da:	89 83       	std	Y+1, r24	; 0x01
    50dc:	88 e3       	ldi	r24, 0x38	; 56
    50de:	93 e0       	ldi	r25, 0x03	; 3
    50e0:	be 01       	movw	r22, r28
    50e2:	6f 5f       	subi	r22, 0xFF	; 255
    50e4:	7f 4f       	sbci	r23, 0xFF	; 255
    50e6:	0e 94 6b 0d 	call	0x1ad6	; 0x1ad6 <_ZN7motor_t8positionERKi>
	naber();
    50ea:	0e 94 0d 24 	call	0x481a	; 0x481a <_Z5naberv>
}
    50ee:	0f 90       	pop	r0
    50f0:	0f 90       	pop	r0
    50f2:	cf 91       	pop	r28
    50f4:	df 91       	pop	r29
    50f6:	08 95       	ret

000050f8 <_Z17naber_na_pozici12v>:
{
	motor[1].position(892);
	vyloz();
}

void naber_na_pozici12()
    50f8:	df 93       	push	r29
    50fa:	cf 93       	push	r28
    50fc:	00 d0       	rcall	.+0      	; 0x50fe <_Z17naber_na_pozici12v+0x6>
    50fe:	cd b7       	in	r28, 0x3d	; 61
    5100:	de b7       	in	r29, 0x3e	; 62
    5102:	81 e0       	ldi	r24, 0x01	; 1
    5104:	80 93 38 03 	sts	0x0338, r24
{
	motor[1].position(858);
    5108:	8a e5       	ldi	r24, 0x5A	; 90
    510a:	93 e0       	ldi	r25, 0x03	; 3
    510c:	9a 83       	std	Y+2, r25	; 0x02
    510e:	89 83       	std	Y+1, r24	; 0x01
    5110:	88 e3       	ldi	r24, 0x38	; 56
    5112:	93 e0       	ldi	r25, 0x03	; 3
    5114:	be 01       	movw	r22, r28
    5116:	6f 5f       	subi	r22, 0xFF	; 255
    5118:	7f 4f       	sbci	r23, 0xFF	; 255
    511a:	0e 94 6b 0d 	call	0x1ad6	; 0x1ad6 <_ZN7motor_t8positionERKi>
	naber();
    511e:	0e 94 0d 24 	call	0x481a	; 0x481a <_Z5naberv>
}
    5122:	0f 90       	pop	r0
    5124:	0f 90       	pop	r0
    5126:	cf 91       	pop	r28
    5128:	df 91       	pop	r29
    512a:	08 95       	ret

0000512c <_Z17naber_na_pozici11v>:
{
	motor[1].position(935);
	vyloz();
}

void naber_na_pozici11()
    512c:	df 93       	push	r29
    512e:	cf 93       	push	r28
    5130:	00 d0       	rcall	.+0      	; 0x5132 <_Z17naber_na_pozici11v+0x6>
    5132:	cd b7       	in	r28, 0x3d	; 61
    5134:	de b7       	in	r29, 0x3e	; 62
    5136:	81 e0       	ldi	r24, 0x01	; 1
    5138:	80 93 38 03 	sts	0x0338, r24
{
	motor[1].position(892);
    513c:	8c e7       	ldi	r24, 0x7C	; 124
    513e:	93 e0       	ldi	r25, 0x03	; 3
    5140:	9a 83       	std	Y+2, r25	; 0x02
    5142:	89 83       	std	Y+1, r24	; 0x01
    5144:	88 e3       	ldi	r24, 0x38	; 56
    5146:	93 e0       	ldi	r25, 0x03	; 3
    5148:	be 01       	movw	r22, r28
    514a:	6f 5f       	subi	r22, 0xFF	; 255
    514c:	7f 4f       	sbci	r23, 0xFF	; 255
    514e:	0e 94 6b 0d 	call	0x1ad6	; 0x1ad6 <_ZN7motor_t8positionERKi>
	naber();
    5152:	0e 94 0d 24 	call	0x481a	; 0x481a <_Z5naberv>
}
    5156:	0f 90       	pop	r0
    5158:	0f 90       	pop	r0
    515a:	cf 91       	pop	r28
    515c:	df 91       	pop	r29
    515e:	08 95       	ret

00005160 <_Z17naber_na_pozici10v>:
{
	motor[1].position(972);
	vyloz();
}

void naber_na_pozici10()
    5160:	df 93       	push	r29
    5162:	cf 93       	push	r28
    5164:	00 d0       	rcall	.+0      	; 0x5166 <_Z17naber_na_pozici10v+0x6>
    5166:	cd b7       	in	r28, 0x3d	; 61
    5168:	de b7       	in	r29, 0x3e	; 62
    516a:	81 e0       	ldi	r24, 0x01	; 1
    516c:	80 93 38 03 	sts	0x0338, r24
{
	motor[1].position(935);
    5170:	87 ea       	ldi	r24, 0xA7	; 167
    5172:	93 e0       	ldi	r25, 0x03	; 3
    5174:	9a 83       	std	Y+2, r25	; 0x02
    5176:	89 83       	std	Y+1, r24	; 0x01
    5178:	88 e3       	ldi	r24, 0x38	; 56
    517a:	93 e0       	ldi	r25, 0x03	; 3
    517c:	be 01       	movw	r22, r28
    517e:	6f 5f       	subi	r22, 0xFF	; 255
    5180:	7f 4f       	sbci	r23, 0xFF	; 255
    5182:	0e 94 6b 0d 	call	0x1ad6	; 0x1ad6 <_ZN7motor_t8positionERKi>
	naber();
    5186:	0e 94 0d 24 	call	0x481a	; 0x481a <_Z5naberv>
}
    518a:	0f 90       	pop	r0
    518c:	0f 90       	pop	r0
    518e:	cf 91       	pop	r28
    5190:	df 91       	pop	r29
    5192:	08 95       	ret

00005194 <_Z16naber_na_pozici9v>:
{
	motor[1].position(1014);
	vyloz();
}

void naber_na_pozici9()
    5194:	df 93       	push	r29
    5196:	cf 93       	push	r28
    5198:	00 d0       	rcall	.+0      	; 0x519a <_Z16naber_na_pozici9v+0x6>
    519a:	cd b7       	in	r28, 0x3d	; 61
    519c:	de b7       	in	r29, 0x3e	; 62
    519e:	81 e0       	ldi	r24, 0x01	; 1
    51a0:	80 93 38 03 	sts	0x0338, r24
{
	motor[1].position(972);
    51a4:	8c ec       	ldi	r24, 0xCC	; 204
    51a6:	93 e0       	ldi	r25, 0x03	; 3
    51a8:	9a 83       	std	Y+2, r25	; 0x02
    51aa:	89 83       	std	Y+1, r24	; 0x01
    51ac:	88 e3       	ldi	r24, 0x38	; 56
    51ae:	93 e0       	ldi	r25, 0x03	; 3
    51b0:	be 01       	movw	r22, r28
    51b2:	6f 5f       	subi	r22, 0xFF	; 255
    51b4:	7f 4f       	sbci	r23, 0xFF	; 255
    51b6:	0e 94 6b 0d 	call	0x1ad6	; 0x1ad6 <_ZN7motor_t8positionERKi>
	naber();
    51ba:	0e 94 0d 24 	call	0x481a	; 0x481a <_Z5naberv>
}
    51be:	0f 90       	pop	r0
    51c0:	0f 90       	pop	r0
    51c2:	cf 91       	pop	r28
    51c4:	df 91       	pop	r29
    51c6:	08 95       	ret

000051c8 <_Z16naber_na_pozici8v>:
{
	motor[1].position(428);
	vyloz_nezasahnute_pozice();
}

void naber_na_pozici8()
    51c8:	df 93       	push	r29
    51ca:	cf 93       	push	r28
    51cc:	00 d0       	rcall	.+0      	; 0x51ce <_Z16naber_na_pozici8v+0x6>
    51ce:	cd b7       	in	r28, 0x3d	; 61
    51d0:	de b7       	in	r29, 0x3e	; 62
    51d2:	81 e0       	ldi	r24, 0x01	; 1
    51d4:	80 93 38 03 	sts	0x0338, r24
{
	motor[1].position(1014);
    51d8:	86 ef       	ldi	r24, 0xF6	; 246
    51da:	93 e0       	ldi	r25, 0x03	; 3
    51dc:	9a 83       	std	Y+2, r25	; 0x02
    51de:	89 83       	std	Y+1, r24	; 0x01
    51e0:	88 e3       	ldi	r24, 0x38	; 56
    51e2:	93 e0       	ldi	r25, 0x03	; 3
    51e4:	be 01       	movw	r22, r28
    51e6:	6f 5f       	subi	r22, 0xFF	; 255
    51e8:	7f 4f       	sbci	r23, 0xFF	; 255
    51ea:	0e 94 6b 0d 	call	0x1ad6	; 0x1ad6 <_ZN7motor_t8positionERKi>
	naber();
    51ee:	0e 94 0d 24 	call	0x481a	; 0x481a <_Z5naberv>
}
    51f2:	0f 90       	pop	r0
    51f4:	0f 90       	pop	r0
    51f6:	cf 91       	pop	r28
    51f8:	df 91       	pop	r29
    51fa:	08 95       	ret

000051fc <_Z24vyloz_nezasahnute_pozicev>:
	motor[5].position(782);
	motor[6].position(520);
	motor[7].position(504);
	syncWait(3000000);
}
void vyloz_nezasahnute_pozice()
    51fc:	2f 92       	push	r2
    51fe:	3f 92       	push	r3
    5200:	4f 92       	push	r4
    5202:	5f 92       	push	r5
    5204:	6f 92       	push	r6
    5206:	7f 92       	push	r7
    5208:	8f 92       	push	r8
    520a:	9f 92       	push	r9
    520c:	af 92       	push	r10
    520e:	bf 92       	push	r11
    5210:	cf 92       	push	r12
    5212:	df 92       	push	r13
    5214:	ef 92       	push	r14
    5216:	ff 92       	push	r15
    5218:	0f 93       	push	r16
    521a:	1f 93       	push	r17
    521c:	df 93       	push	r29
    521e:	cf 93       	push	r28
    5220:	cd b7       	in	r28, 0x3d	; 61
    5222:	de b7       	in	r29, 0x3e	; 62
    5224:	e0 97       	sbiw	r28, 0x30	; 48
    5226:	0f b6       	in	r0, 0x3f	; 63
    5228:	f8 94       	cli
    522a:	de bf       	out	0x3e, r29	; 62
    522c:	0f be       	out	0x3f, r0	; 63
    522e:	cd bf       	out	0x3d, r28	; 61
    5230:	08 e3       	ldi	r16, 0x38	; 56
    5232:	13 e0       	ldi	r17, 0x03	; 3
    5234:	82 e0       	ldi	r24, 0x02	; 2
    5236:	80 93 38 03 	sts	0x0338, r24
{
	//zacne se naklanet
	motor[2].position(632);
    523a:	88 e7       	ldi	r24, 0x78	; 120
    523c:	92 e0       	ldi	r25, 0x02	; 2
    523e:	9a 83       	std	Y+2, r25	; 0x02
    5240:	89 83       	std	Y+1, r24	; 0x01
    5242:	c8 01       	movw	r24, r16
    5244:	be 01       	movw	r22, r28
    5246:	6f 5f       	subi	r22, 0xFF	; 255
    5248:	7f 4f       	sbci	r23, 0xFF	; 255
    524a:	0e 94 6b 0d 	call	0x1ad6	; 0x1ad6 <_ZN7motor_t8positionERKi>
    524e:	83 e0       	ldi	r24, 0x03	; 3
    5250:	80 93 38 03 	sts	0x0338, r24
	motor[3].position(370);
    5254:	82 e7       	ldi	r24, 0x72	; 114
    5256:	91 e0       	ldi	r25, 0x01	; 1
    5258:	9c 83       	std	Y+4, r25	; 0x04
    525a:	8b 83       	std	Y+3, r24	; 0x03
    525c:	c8 01       	movw	r24, r16
    525e:	be 01       	movw	r22, r28
    5260:	6d 5f       	subi	r22, 0xFD	; 253
    5262:	7f 4f       	sbci	r23, 0xFF	; 255
    5264:	0e 94 6b 0d 	call	0x1ad6	; 0x1ad6 <_ZN7motor_t8positionERKi>
    5268:	84 e0       	ldi	r24, 0x04	; 4
    526a:	80 93 38 03 	sts	0x0338, r24
	motor[4].position(766);
    526e:	8e ef       	ldi	r24, 0xFE	; 254
    5270:	92 e0       	ldi	r25, 0x02	; 2
    5272:	9e 83       	std	Y+6, r25	; 0x06
    5274:	8d 83       	std	Y+5, r24	; 0x05
    5276:	c8 01       	movw	r24, r16
    5278:	be 01       	movw	r22, r28
    527a:	6b 5f       	subi	r22, 0xFB	; 251
    527c:	7f 4f       	sbci	r23, 0xFF	; 255
    527e:	0e 94 6b 0d 	call	0x1ad6	; 0x1ad6 <_ZN7motor_t8positionERKi>
    5282:	85 e0       	ldi	r24, 0x05	; 5
    5284:	80 93 38 03 	sts	0x0338, r24
	motor[5].position(779);
    5288:	8b e0       	ldi	r24, 0x0B	; 11
    528a:	93 e0       	ldi	r25, 0x03	; 3
    528c:	98 87       	std	Y+8, r25	; 0x08
    528e:	8f 83       	std	Y+7, r24	; 0x07
    5290:	c8 01       	movw	r24, r16
    5292:	be 01       	movw	r22, r28
    5294:	69 5f       	subi	r22, 0xF9	; 249
    5296:	7f 4f       	sbci	r23, 0xFF	; 255
    5298:	0e 94 6b 0d 	call	0x1ad6	; 0x1ad6 <_ZN7motor_t8positionERKi>
    529c:	b6 e0       	ldi	r27, 0x06	; 6
    529e:	2b 2e       	mov	r2, r27
    52a0:	20 92 38 03 	sts	0x0338, r2
	motor[6].position(520);
    52a4:	a8 e0       	ldi	r26, 0x08	; 8
    52a6:	4a 2e       	mov	r4, r26
    52a8:	a2 e0       	ldi	r26, 0x02	; 2
    52aa:	5a 2e       	mov	r5, r26
    52ac:	5a 86       	std	Y+10, r5	; 0x0a
    52ae:	49 86       	std	Y+9, r4	; 0x09
    52b0:	c8 01       	movw	r24, r16
    52b2:	be 01       	movw	r22, r28
    52b4:	67 5f       	subi	r22, 0xF7	; 247
    52b6:	7f 4f       	sbci	r23, 0xFF	; 255
    52b8:	0e 94 6b 0d 	call	0x1ad6	; 0x1ad6 <_ZN7motor_t8positionERKi>
    52bc:	f7 e0       	ldi	r31, 0x07	; 7
    52be:	3f 2e       	mov	r3, r31
    52c0:	30 92 38 03 	sts	0x0338, r3
	motor[7].position(504);
    52c4:	e8 ef       	ldi	r30, 0xF8	; 248
    52c6:	6e 2e       	mov	r6, r30
    52c8:	e1 e0       	ldi	r30, 0x01	; 1
    52ca:	7e 2e       	mov	r7, r30
    52cc:	7c 86       	std	Y+12, r7	; 0x0c
    52ce:	6b 86       	std	Y+11, r6	; 0x0b
    52d0:	c8 01       	movw	r24, r16
    52d2:	be 01       	movw	r22, r28
    52d4:	65 5f       	subi	r22, 0xF5	; 245
    52d6:	7f 4f       	sbci	r23, 0xFF	; 255
    52d8:	0e 94 6b 0d 	call	0x1ad6	; 0x1ad6 <_ZN7motor_t8positionERKi>
	syncWait(3000000);
    52dc:	60 ec       	ldi	r22, 0xC0	; 192
    52de:	76 ec       	ldi	r23, 0xC6	; 198
    52e0:	8d e2       	ldi	r24, 0x2D	; 45
    52e2:	90 e0       	ldi	r25, 0x00	; 0
    52e4:	0e 94 e1 00 	call	0x1c2	; 0x1c2 <_Z8syncWaitm>
    52e8:	82 e0       	ldi	r24, 0x02	; 2
    52ea:	80 93 38 03 	sts	0x0338, r24
	//polozi figurku
	motor[2].position(569);
    52ee:	79 e3       	ldi	r23, 0x39	; 57
    52f0:	87 2e       	mov	r8, r23
    52f2:	72 e0       	ldi	r23, 0x02	; 2
    52f4:	97 2e       	mov	r9, r23
    52f6:	9e 86       	std	Y+14, r9	; 0x0e
    52f8:	8d 86       	std	Y+13, r8	; 0x0d
    52fa:	c8 01       	movw	r24, r16
    52fc:	be 01       	movw	r22, r28
    52fe:	63 5f       	subi	r22, 0xF3	; 243
    5300:	7f 4f       	sbci	r23, 0xFF	; 255
    5302:	0e 94 6b 0d 	call	0x1ad6	; 0x1ad6 <_ZN7motor_t8positionERKi>
    5306:	83 e0       	ldi	r24, 0x03	; 3
    5308:	80 93 38 03 	sts	0x0338, r24
	motor[3].position(570);//570
    530c:	6a e3       	ldi	r22, 0x3A	; 58
    530e:	a6 2e       	mov	r10, r22
    5310:	62 e0       	ldi	r22, 0x02	; 2
    5312:	b6 2e       	mov	r11, r22
    5314:	b8 8a       	std	Y+16, r11	; 0x10
    5316:	af 86       	std	Y+15, r10	; 0x0f
    5318:	c8 01       	movw	r24, r16
    531a:	be 01       	movw	r22, r28
    531c:	61 5f       	subi	r22, 0xF1	; 241
    531e:	7f 4f       	sbci	r23, 0xFF	; 255
    5320:	0e 94 6b 0d 	call	0x1ad6	; 0x1ad6 <_ZN7motor_t8positionERKi>
    5324:	84 e0       	ldi	r24, 0x04	; 4
    5326:	80 93 38 03 	sts	0x0338, r24
	motor[4].position(636);
    532a:	5c e7       	ldi	r21, 0x7C	; 124
    532c:	c5 2e       	mov	r12, r21
    532e:	52 e0       	ldi	r21, 0x02	; 2
    5330:	d5 2e       	mov	r13, r21
    5332:	da 8a       	std	Y+18, r13	; 0x12
    5334:	c9 8a       	std	Y+17, r12	; 0x11
    5336:	c8 01       	movw	r24, r16
    5338:	be 01       	movw	r22, r28
    533a:	6f 5e       	subi	r22, 0xEF	; 239
    533c:	7f 4f       	sbci	r23, 0xFF	; 255
    533e:	0e 94 6b 0d 	call	0x1ad6	; 0x1ad6 <_ZN7motor_t8positionERKi>
    5342:	85 e0       	ldi	r24, 0x05	; 5
    5344:	80 93 38 03 	sts	0x0338, r24
	motor[5].position(815);
    5348:	4f e2       	ldi	r20, 0x2F	; 47
    534a:	e4 2e       	mov	r14, r20
    534c:	43 e0       	ldi	r20, 0x03	; 3
    534e:	f4 2e       	mov	r15, r20
    5350:	fc 8a       	std	Y+20, r15	; 0x14
    5352:	eb 8a       	std	Y+19, r14	; 0x13
    5354:	c8 01       	movw	r24, r16
    5356:	be 01       	movw	r22, r28
    5358:	6d 5e       	subi	r22, 0xED	; 237
    535a:	7f 4f       	sbci	r23, 0xFF	; 255
    535c:	0e 94 6b 0d 	call	0x1ad6	; 0x1ad6 <_ZN7motor_t8positionERKi>
    5360:	20 92 38 03 	sts	0x0338, r2
	motor[6].position(520);
    5364:	5e 8a       	std	Y+22, r5	; 0x16
    5366:	4d 8a       	std	Y+21, r4	; 0x15
    5368:	c8 01       	movw	r24, r16
    536a:	be 01       	movw	r22, r28
    536c:	6b 5e       	subi	r22, 0xEB	; 235
    536e:	7f 4f       	sbci	r23, 0xFF	; 255
    5370:	0e 94 6b 0d 	call	0x1ad6	; 0x1ad6 <_ZN7motor_t8positionERKi>
    5374:	30 92 38 03 	sts	0x0338, r3
	motor[7].position(504);
    5378:	78 8e       	std	Y+24, r7	; 0x18
    537a:	6f 8a       	std	Y+23, r6	; 0x17
    537c:	c8 01       	movw	r24, r16
    537e:	be 01       	movw	r22, r28
    5380:	69 5e       	subi	r22, 0xE9	; 233
    5382:	7f 4f       	sbci	r23, 0xFF	; 255
    5384:	0e 94 6b 0d 	call	0x1ad6	; 0x1ad6 <_ZN7motor_t8positionERKi>
	syncWait(3000000);
    5388:	60 ec       	ldi	r22, 0xC0	; 192
    538a:	76 ec       	ldi	r23, 0xC6	; 198
    538c:	8d e2       	ldi	r24, 0x2D	; 45
    538e:	90 e0       	ldi	r25, 0x00	; 0
    5390:	0e 94 e1 00 	call	0x1c2	; 0x1c2 <_Z8syncWaitm>
    5394:	82 e0       	ldi	r24, 0x02	; 2
    5396:	80 93 38 03 	sts	0x0338, r24
	//otevre celisti
	motor[2].position(569);
    539a:	9a 8e       	std	Y+26, r9	; 0x1a
    539c:	89 8e       	std	Y+25, r8	; 0x19
    539e:	c8 01       	movw	r24, r16
    53a0:	be 01       	movw	r22, r28
    53a2:	67 5e       	subi	r22, 0xE7	; 231
    53a4:	7f 4f       	sbci	r23, 0xFF	; 255
    53a6:	0e 94 6b 0d 	call	0x1ad6	; 0x1ad6 <_ZN7motor_t8positionERKi>
    53aa:	83 e0       	ldi	r24, 0x03	; 3
    53ac:	80 93 38 03 	sts	0x0338, r24
	motor[3].position(570);//560
    53b0:	bc 8e       	std	Y+28, r11	; 0x1c
    53b2:	ab 8e       	std	Y+27, r10	; 0x1b
    53b4:	c8 01       	movw	r24, r16
    53b6:	be 01       	movw	r22, r28
    53b8:	65 5e       	subi	r22, 0xE5	; 229
    53ba:	7f 4f       	sbci	r23, 0xFF	; 255
    53bc:	0e 94 6b 0d 	call	0x1ad6	; 0x1ad6 <_ZN7motor_t8positionERKi>
    53c0:	84 e0       	ldi	r24, 0x04	; 4
    53c2:	80 93 38 03 	sts	0x0338, r24
	motor[4].position(636);
    53c6:	de 8e       	std	Y+30, r13	; 0x1e
    53c8:	cd 8e       	std	Y+29, r12	; 0x1d
    53ca:	c8 01       	movw	r24, r16
    53cc:	be 01       	movw	r22, r28
    53ce:	63 5e       	subi	r22, 0xE3	; 227
    53d0:	7f 4f       	sbci	r23, 0xFF	; 255
    53d2:	0e 94 6b 0d 	call	0x1ad6	; 0x1ad6 <_ZN7motor_t8positionERKi>
    53d6:	85 e0       	ldi	r24, 0x05	; 5
    53d8:	80 93 38 03 	sts	0x0338, r24
	motor[5].position(815);
    53dc:	f8 a2       	std	Y+32, r15	; 0x20
    53de:	ef 8e       	std	Y+31, r14	; 0x1f
    53e0:	c8 01       	movw	r24, r16
    53e2:	be 01       	movw	r22, r28
    53e4:	61 5e       	subi	r22, 0xE1	; 225
    53e6:	7f 4f       	sbci	r23, 0xFF	; 255
    53e8:	0e 94 6b 0d 	call	0x1ad6	; 0x1ad6 <_ZN7motor_t8positionERKi>
    53ec:	20 92 38 03 	sts	0x0338, r2
	motor[6].position(486);
    53f0:	36 ee       	ldi	r19, 0xE6	; 230
    53f2:	c3 2e       	mov	r12, r19
    53f4:	31 e0       	ldi	r19, 0x01	; 1
    53f6:	d3 2e       	mov	r13, r19
    53f8:	da a2       	std	Y+34, r13	; 0x22
    53fa:	c9 a2       	std	Y+33, r12	; 0x21
    53fc:	c8 01       	movw	r24, r16
    53fe:	be 01       	movw	r22, r28
    5400:	6f 5d       	subi	r22, 0xDF	; 223
    5402:	7f 4f       	sbci	r23, 0xFF	; 255
    5404:	0e 94 6b 0d 	call	0x1ad6	; 0x1ad6 <_ZN7motor_t8positionERKi>
    5408:	30 92 38 03 	sts	0x0338, r3
	motor[7].position(548);
    540c:	24 e2       	ldi	r18, 0x24	; 36
    540e:	e2 2e       	mov	r14, r18
    5410:	22 e0       	ldi	r18, 0x02	; 2
    5412:	f2 2e       	mov	r15, r18
    5414:	fc a2       	std	Y+36, r15	; 0x24
    5416:	eb a2       	std	Y+35, r14	; 0x23
    5418:	c8 01       	movw	r24, r16
    541a:	be 01       	movw	r22, r28
    541c:	6d 5d       	subi	r22, 0xDD	; 221
    541e:	7f 4f       	sbci	r23, 0xFF	; 255
    5420:	0e 94 6b 0d 	call	0x1ad6	; 0x1ad6 <_ZN7motor_t8positionERKi>
	syncWait(1000000);
    5424:	60 e4       	ldi	r22, 0x40	; 64
    5426:	72 e4       	ldi	r23, 0x42	; 66
    5428:	8f e0       	ldi	r24, 0x0F	; 15
    542a:	90 e0       	ldi	r25, 0x00	; 0
    542c:	0e 94 e1 00 	call	0x1c2	; 0x1c2 <_Z8syncWaitm>
    5430:	82 e0       	ldi	r24, 0x02	; 2
    5432:	80 93 38 03 	sts	0x0338, r24
	//zvedne rameno
	motor[2].position(528);
    5436:	80 e1       	ldi	r24, 0x10	; 16
    5438:	92 e0       	ldi	r25, 0x02	; 2
    543a:	9e a3       	std	Y+38, r25	; 0x26
    543c:	8d a3       	std	Y+37, r24	; 0x25
    543e:	c8 01       	movw	r24, r16
    5440:	be 01       	movw	r22, r28
    5442:	6b 5d       	subi	r22, 0xDB	; 219
    5444:	7f 4f       	sbci	r23, 0xFF	; 255
    5446:	0e 94 6b 0d 	call	0x1ad6	; 0x1ad6 <_ZN7motor_t8positionERKi>
    544a:	83 e0       	ldi	r24, 0x03	; 3
    544c:	80 93 38 03 	sts	0x0338, r24
	motor[3].position(512);
    5450:	80 e0       	ldi	r24, 0x00	; 0
    5452:	92 e0       	ldi	r25, 0x02	; 2
    5454:	98 a7       	std	Y+40, r25	; 0x28
    5456:	8f a3       	std	Y+39, r24	; 0x27
    5458:	c8 01       	movw	r24, r16
    545a:	be 01       	movw	r22, r28
    545c:	69 5d       	subi	r22, 0xD9	; 217
    545e:	7f 4f       	sbci	r23, 0xFF	; 255
    5460:	0e 94 6b 0d 	call	0x1ad6	; 0x1ad6 <_ZN7motor_t8positionERKi>
    5464:	84 e0       	ldi	r24, 0x04	; 4
    5466:	80 93 38 03 	sts	0x0338, r24
	motor[4].position(793);
    546a:	89 e1       	ldi	r24, 0x19	; 25
    546c:	93 e0       	ldi	r25, 0x03	; 3
    546e:	9a a7       	std	Y+42, r25	; 0x2a
    5470:	89 a7       	std	Y+41, r24	; 0x29
    5472:	c8 01       	movw	r24, r16
    5474:	be 01       	movw	r22, r28
    5476:	67 5d       	subi	r22, 0xD7	; 215
    5478:	7f 4f       	sbci	r23, 0xFF	; 255
    547a:	0e 94 6b 0d 	call	0x1ad6	; 0x1ad6 <_ZN7motor_t8positionERKi>
    547e:	85 e0       	ldi	r24, 0x05	; 5
    5480:	80 93 38 03 	sts	0x0338, r24
	motor[5].position(740);
    5484:	84 ee       	ldi	r24, 0xE4	; 228
    5486:	92 e0       	ldi	r25, 0x02	; 2
    5488:	9c a7       	std	Y+44, r25	; 0x2c
    548a:	8b a7       	std	Y+43, r24	; 0x2b
    548c:	c8 01       	movw	r24, r16
    548e:	be 01       	movw	r22, r28
    5490:	65 5d       	subi	r22, 0xD5	; 213
    5492:	7f 4f       	sbci	r23, 0xFF	; 255
    5494:	0e 94 6b 0d 	call	0x1ad6	; 0x1ad6 <_ZN7motor_t8positionERKi>
    5498:	20 92 38 03 	sts	0x0338, r2
	motor[6].position(486);
    549c:	de a6       	std	Y+46, r13	; 0x2e
    549e:	cd a6       	std	Y+45, r12	; 0x2d
    54a0:	c8 01       	movw	r24, r16
    54a2:	be 01       	movw	r22, r28
    54a4:	63 5d       	subi	r22, 0xD3	; 211
    54a6:	7f 4f       	sbci	r23, 0xFF	; 255
    54a8:	0e 94 6b 0d 	call	0x1ad6	; 0x1ad6 <_ZN7motor_t8positionERKi>
    54ac:	30 92 38 03 	sts	0x0338, r3
	motor[7].position(548);
    54b0:	f8 aa       	std	Y+48, r15	; 0x30
    54b2:	ef a6       	std	Y+47, r14	; 0x2f
    54b4:	c8 01       	movw	r24, r16
    54b6:	be 01       	movw	r22, r28
    54b8:	61 5d       	subi	r22, 0xD1	; 209
    54ba:	7f 4f       	sbci	r23, 0xFF	; 255
    54bc:	0e 94 6b 0d 	call	0x1ad6	; 0x1ad6 <_ZN7motor_t8positionERKi>
	syncWait(2000000);
    54c0:	60 e8       	ldi	r22, 0x80	; 128
    54c2:	74 e8       	ldi	r23, 0x84	; 132
    54c4:	8e e1       	ldi	r24, 0x1E	; 30
    54c6:	90 e0       	ldi	r25, 0x00	; 0
    54c8:	0e 94 e1 00 	call	0x1c2	; 0x1c2 <_Z8syncWaitm>
}
    54cc:	e0 96       	adiw	r28, 0x30	; 48
    54ce:	0f b6       	in	r0, 0x3f	; 63
    54d0:	f8 94       	cli
    54d2:	de bf       	out	0x3e, r29	; 62
    54d4:	0f be       	out	0x3f, r0	; 63
    54d6:	cd bf       	out	0x3d, r28	; 61
    54d8:	cf 91       	pop	r28
    54da:	df 91       	pop	r29
    54dc:	1f 91       	pop	r17
    54de:	0f 91       	pop	r16
    54e0:	ff 90       	pop	r15
    54e2:	ef 90       	pop	r14
    54e4:	df 90       	pop	r13
    54e6:	cf 90       	pop	r12
    54e8:	bf 90       	pop	r11
    54ea:	af 90       	pop	r10
    54ec:	9f 90       	pop	r9
    54ee:	8f 90       	pop	r8
    54f0:	7f 90       	pop	r7
    54f2:	6f 90       	pop	r6
    54f4:	5f 90       	pop	r5
    54f6:	4f 90       	pop	r4
    54f8:	3f 90       	pop	r3
    54fa:	2f 90       	pop	r2
    54fc:	08 95       	ret

000054fe <_Z16vyloz_na_pozici7v>:
{
	motor[1].position(428);
	naber_nezasahnute_pozice();
}

void vyloz_na_pozici7()
    54fe:	df 93       	push	r29
    5500:	cf 93       	push	r28
    5502:	00 d0       	rcall	.+0      	; 0x5504 <_Z16vyloz_na_pozici7v+0x6>
    5504:	cd b7       	in	r28, 0x3d	; 61
    5506:	de b7       	in	r29, 0x3e	; 62
    5508:	81 e0       	ldi	r24, 0x01	; 1
    550a:	80 93 38 03 	sts	0x0338, r24
{
	motor[1].position(428);
    550e:	8c ea       	ldi	r24, 0xAC	; 172
    5510:	91 e0       	ldi	r25, 0x01	; 1
    5512:	9a 83       	std	Y+2, r25	; 0x02
    5514:	89 83       	std	Y+1, r24	; 0x01
    5516:	88 e3       	ldi	r24, 0x38	; 56
    5518:	93 e0       	ldi	r25, 0x03	; 3
    551a:	be 01       	movw	r22, r28
    551c:	6f 5f       	subi	r22, 0xFF	; 255
    551e:	7f 4f       	sbci	r23, 0xFF	; 255
    5520:	0e 94 6b 0d 	call	0x1ad6	; 0x1ad6 <_ZN7motor_t8positionERKi>
	vyloz_nezasahnute_pozice();
    5524:	0e 94 fe 28 	call	0x51fc	; 0x51fc <_Z24vyloz_nezasahnute_pozicev>
}
    5528:	0f 90       	pop	r0
    552a:	0f 90       	pop	r0
    552c:	cf 91       	pop	r28
    552e:	df 91       	pop	r29
    5530:	08 95       	ret

00005532 <_Z16vyloz_na_pozici6v>:
{
	motor[1].position(468);
	naber_nezasahnute_pozice();
}

void vyloz_na_pozici6()
    5532:	df 93       	push	r29
    5534:	cf 93       	push	r28
    5536:	00 d0       	rcall	.+0      	; 0x5538 <_Z16vyloz_na_pozici6v+0x6>
    5538:	cd b7       	in	r28, 0x3d	; 61
    553a:	de b7       	in	r29, 0x3e	; 62
    553c:	81 e0       	ldi	r24, 0x01	; 1
    553e:	80 93 38 03 	sts	0x0338, r24
{
	motor[1].position(468);
    5542:	84 ed       	ldi	r24, 0xD4	; 212
    5544:	91 e0       	ldi	r25, 0x01	; 1
    5546:	9a 83       	std	Y+2, r25	; 0x02
    5548:	89 83       	std	Y+1, r24	; 0x01
    554a:	88 e3       	ldi	r24, 0x38	; 56
    554c:	93 e0       	ldi	r25, 0x03	; 3
    554e:	be 01       	movw	r22, r28
    5550:	6f 5f       	subi	r22, 0xFF	; 255
    5552:	7f 4f       	sbci	r23, 0xFF	; 255
    5554:	0e 94 6b 0d 	call	0x1ad6	; 0x1ad6 <_ZN7motor_t8positionERKi>
	vyloz_nezasahnute_pozice();
    5558:	0e 94 fe 28 	call	0x51fc	; 0x51fc <_Z24vyloz_nezasahnute_pozicev>
}
    555c:	0f 90       	pop	r0
    555e:	0f 90       	pop	r0
    5560:	cf 91       	pop	r28
    5562:	df 91       	pop	r29
    5564:	08 95       	ret

00005566 <_Z16vyloz_na_pozici5v>:
{
	motor[1].position(510);
	naber_nezasahnute_pozice();
}

void vyloz_na_pozici5()
    5566:	df 93       	push	r29
    5568:	cf 93       	push	r28
    556a:	00 d0       	rcall	.+0      	; 0x556c <_Z16vyloz_na_pozici5v+0x6>
    556c:	cd b7       	in	r28, 0x3d	; 61
    556e:	de b7       	in	r29, 0x3e	; 62
    5570:	81 e0       	ldi	r24, 0x01	; 1
    5572:	80 93 38 03 	sts	0x0338, r24
{
	motor[1].position(510);
    5576:	8e ef       	ldi	r24, 0xFE	; 254
    5578:	91 e0       	ldi	r25, 0x01	; 1
    557a:	9a 83       	std	Y+2, r25	; 0x02
    557c:	89 83       	std	Y+1, r24	; 0x01
    557e:	88 e3       	ldi	r24, 0x38	; 56
    5580:	93 e0       	ldi	r25, 0x03	; 3
    5582:	be 01       	movw	r22, r28
    5584:	6f 5f       	subi	r22, 0xFF	; 255
    5586:	7f 4f       	sbci	r23, 0xFF	; 255
    5588:	0e 94 6b 0d 	call	0x1ad6	; 0x1ad6 <_ZN7motor_t8positionERKi>
	vyloz_nezasahnute_pozice();
    558c:	0e 94 fe 28 	call	0x51fc	; 0x51fc <_Z24vyloz_nezasahnute_pozicev>
}
    5590:	0f 90       	pop	r0
    5592:	0f 90       	pop	r0
    5594:	cf 91       	pop	r28
    5596:	df 91       	pop	r29
    5598:	08 95       	ret

0000559a <_Z16vyloz_na_pozici4v>:
{
	motor[1].position(554);
	naber_nezasahnute_pozice();
}

void vyloz_na_pozici4()
    559a:	df 93       	push	r29
    559c:	cf 93       	push	r28
    559e:	00 d0       	rcall	.+0      	; 0x55a0 <_Z16vyloz_na_pozici4v+0x6>
    55a0:	cd b7       	in	r28, 0x3d	; 61
    55a2:	de b7       	in	r29, 0x3e	; 62
    55a4:	81 e0       	ldi	r24, 0x01	; 1
    55a6:	80 93 38 03 	sts	0x0338, r24
{
	motor[1].position(554);
    55aa:	8a e2       	ldi	r24, 0x2A	; 42
    55ac:	92 e0       	ldi	r25, 0x02	; 2
    55ae:	9a 83       	std	Y+2, r25	; 0x02
    55b0:	89 83       	std	Y+1, r24	; 0x01
    55b2:	88 e3       	ldi	r24, 0x38	; 56
    55b4:	93 e0       	ldi	r25, 0x03	; 3
    55b6:	be 01       	movw	r22, r28
    55b8:	6f 5f       	subi	r22, 0xFF	; 255
    55ba:	7f 4f       	sbci	r23, 0xFF	; 255
    55bc:	0e 94 6b 0d 	call	0x1ad6	; 0x1ad6 <_ZN7motor_t8positionERKi>
	vyloz_nezasahnute_pozice();
    55c0:	0e 94 fe 28 	call	0x51fc	; 0x51fc <_Z24vyloz_nezasahnute_pozicev>
}
    55c4:	0f 90       	pop	r0
    55c6:	0f 90       	pop	r0
    55c8:	cf 91       	pop	r28
    55ca:	df 91       	pop	r29
    55cc:	08 95       	ret

000055ce <_Z16vyloz_na_pozici3v>:
{
	motor[1].position(587);
	naber_nezasahnute_pozice();
}

void vyloz_na_pozici3()
    55ce:	df 93       	push	r29
    55d0:	cf 93       	push	r28
    55d2:	00 d0       	rcall	.+0      	; 0x55d4 <_Z16vyloz_na_pozici3v+0x6>
    55d4:	cd b7       	in	r28, 0x3d	; 61
    55d6:	de b7       	in	r29, 0x3e	; 62
    55d8:	81 e0       	ldi	r24, 0x01	; 1
    55da:	80 93 38 03 	sts	0x0338, r24
{
	motor[1].position(587);
    55de:	8b e4       	ldi	r24, 0x4B	; 75
    55e0:	92 e0       	ldi	r25, 0x02	; 2
    55e2:	9a 83       	std	Y+2, r25	; 0x02
    55e4:	89 83       	std	Y+1, r24	; 0x01
    55e6:	88 e3       	ldi	r24, 0x38	; 56
    55e8:	93 e0       	ldi	r25, 0x03	; 3
    55ea:	be 01       	movw	r22, r28
    55ec:	6f 5f       	subi	r22, 0xFF	; 255
    55ee:	7f 4f       	sbci	r23, 0xFF	; 255
    55f0:	0e 94 6b 0d 	call	0x1ad6	; 0x1ad6 <_ZN7motor_t8positionERKi>
	vyloz_nezasahnute_pozice();
    55f4:	0e 94 fe 28 	call	0x51fc	; 0x51fc <_Z24vyloz_nezasahnute_pozicev>
}
    55f8:	0f 90       	pop	r0
    55fa:	0f 90       	pop	r0
    55fc:	cf 91       	pop	r28
    55fe:	df 91       	pop	r29
    5600:	08 95       	ret

00005602 <_Z24naber_nezasahnute_pozicev>:
	TL29_1 = 29;
	TL30_1 = 30;
	TL31_1 = 31;
	TL32_1 = 32;
}
void naber_nezasahnute_pozice()
    5602:	2f 92       	push	r2
    5604:	3f 92       	push	r3
    5606:	4f 92       	push	r4
    5608:	5f 92       	push	r5
    560a:	6f 92       	push	r6
    560c:	7f 92       	push	r7
    560e:	8f 92       	push	r8
    5610:	9f 92       	push	r9
    5612:	af 92       	push	r10
    5614:	bf 92       	push	r11
    5616:	cf 92       	push	r12
    5618:	df 92       	push	r13
    561a:	ef 92       	push	r14
    561c:	ff 92       	push	r15
    561e:	0f 93       	push	r16
    5620:	1f 93       	push	r17
    5622:	df 93       	push	r29
    5624:	cf 93       	push	r28
    5626:	cd b7       	in	r28, 0x3d	; 61
    5628:	de b7       	in	r29, 0x3e	; 62
    562a:	ec 97       	sbiw	r28, 0x3c	; 60
    562c:	0f b6       	in	r0, 0x3f	; 63
    562e:	f8 94       	cli
    5630:	de bf       	out	0x3e, r29	; 62
    5632:	0f be       	out	0x3f, r0	; 63
    5634:	cd bf       	out	0x3d, r28	; 61
    5636:	08 e3       	ldi	r16, 0x38	; 56
    5638:	13 e0       	ldi	r17, 0x03	; 3
    563a:	82 e0       	ldi	r24, 0x02	; 2
    563c:	80 93 38 03 	sts	0x0338, r24
{
	//otevre celisti
	motor[2].position(605);
    5640:	8d e5       	ldi	r24, 0x5D	; 93
    5642:	92 e0       	ldi	r25, 0x02	; 2
    5644:	9a 83       	std	Y+2, r25	; 0x02
    5646:	89 83       	std	Y+1, r24	; 0x01
    5648:	c8 01       	movw	r24, r16
    564a:	be 01       	movw	r22, r28
    564c:	6f 5f       	subi	r22, 0xFF	; 255
    564e:	7f 4f       	sbci	r23, 0xFF	; 255
    5650:	0e 94 6b 0d 	call	0x1ad6	; 0x1ad6 <_ZN7motor_t8positionERKi>
    5654:	93 e0       	ldi	r25, 0x03	; 3
    5656:	90 93 38 03 	sts	0x0338, r25
	motor[3].position(39);
    565a:	87 e2       	ldi	r24, 0x27	; 39
    565c:	90 e0       	ldi	r25, 0x00	; 0
    565e:	9c 83       	std	Y+4, r25	; 0x04
    5660:	8b 83       	std	Y+3, r24	; 0x03
    5662:	c8 01       	movw	r24, r16
    5664:	be 01       	movw	r22, r28
    5666:	6d 5f       	subi	r22, 0xFD	; 253
    5668:	7f 4f       	sbci	r23, 0xFF	; 255
    566a:	0e 94 6b 0d 	call	0x1ad6	; 0x1ad6 <_ZN7motor_t8positionERKi>
    566e:	84 e0       	ldi	r24, 0x04	; 4
    5670:	80 93 38 03 	sts	0x0338, r24
	motor[4].position(977);
    5674:	81 ed       	ldi	r24, 0xD1	; 209
    5676:	93 e0       	ldi	r25, 0x03	; 3
    5678:	9e 83       	std	Y+6, r25	; 0x06
    567a:	8d 83       	std	Y+5, r24	; 0x05
    567c:	c8 01       	movw	r24, r16
    567e:	be 01       	movw	r22, r28
    5680:	6b 5f       	subi	r22, 0xFB	; 251
    5682:	7f 4f       	sbci	r23, 0xFF	; 255
    5684:	0e 94 6b 0d 	call	0x1ad6	; 0x1ad6 <_ZN7motor_t8positionERKi>
    5688:	95 e0       	ldi	r25, 0x05	; 5
    568a:	90 93 38 03 	sts	0x0338, r25
	motor[5].position(688);
    568e:	80 eb       	ldi	r24, 0xB0	; 176
    5690:	92 e0       	ldi	r25, 0x02	; 2
    5692:	98 87       	std	Y+8, r25	; 0x08
    5694:	8f 83       	std	Y+7, r24	; 0x07
    5696:	c8 01       	movw	r24, r16
    5698:	be 01       	movw	r22, r28
    569a:	69 5f       	subi	r22, 0xF9	; 249
    569c:	7f 4f       	sbci	r23, 0xFF	; 255
    569e:	0e 94 6b 0d 	call	0x1ad6	; 0x1ad6 <_ZN7motor_t8positionERKi>
    56a2:	f6 e0       	ldi	r31, 0x06	; 6
    56a4:	2f 2e       	mov	r2, r31
    56a6:	20 92 38 03 	sts	0x0338, r2
	motor[6].position(486);
    56aa:	e6 ee       	ldi	r30, 0xE6	; 230
    56ac:	ce 2e       	mov	r12, r30
    56ae:	e1 e0       	ldi	r30, 0x01	; 1
    56b0:	de 2e       	mov	r13, r30
    56b2:	da 86       	std	Y+10, r13	; 0x0a
    56b4:	c9 86       	std	Y+9, r12	; 0x09
    56b6:	c8 01       	movw	r24, r16
    56b8:	be 01       	movw	r22, r28
    56ba:	67 5f       	subi	r22, 0xF7	; 247
    56bc:	7f 4f       	sbci	r23, 0xFF	; 255
    56be:	0e 94 6b 0d 	call	0x1ad6	; 0x1ad6 <_ZN7motor_t8positionERKi>
    56c2:	77 e0       	ldi	r23, 0x07	; 7
    56c4:	37 2e       	mov	r3, r23
    56c6:	30 92 38 03 	sts	0x0338, r3
	motor[7].position(548);
    56ca:	64 e2       	ldi	r22, 0x24	; 36
    56cc:	e6 2e       	mov	r14, r22
    56ce:	62 e0       	ldi	r22, 0x02	; 2
    56d0:	f6 2e       	mov	r15, r22
    56d2:	fc 86       	std	Y+12, r15	; 0x0c
    56d4:	eb 86       	std	Y+11, r14	; 0x0b
    56d6:	c8 01       	movw	r24, r16
    56d8:	be 01       	movw	r22, r28
    56da:	65 5f       	subi	r22, 0xF5	; 245
    56dc:	7f 4f       	sbci	r23, 0xFF	; 255
    56de:	0e 94 6b 0d 	call	0x1ad6	; 0x1ad6 <_ZN7motor_t8positionERKi>
	syncWait(1000000);
    56e2:	60 e4       	ldi	r22, 0x40	; 64
    56e4:	72 e4       	ldi	r23, 0x42	; 66
    56e6:	8f e0       	ldi	r24, 0x0F	; 15
    56e8:	90 e0       	ldi	r25, 0x00	; 0
    56ea:	0e 94 e1 00 	call	0x1c2	; 0x1c2 <_Z8syncWaitm>
    56ee:	82 e0       	ldi	r24, 0x02	; 2
    56f0:	80 93 38 03 	sts	0x0338, r24
	//zacne naklanet ruku nad figurku
	motor[2].position(610);
    56f4:	82 e6       	ldi	r24, 0x62	; 98
    56f6:	92 e0       	ldi	r25, 0x02	; 2
    56f8:	9e 87       	std	Y+14, r25	; 0x0e
    56fa:	8d 87       	std	Y+13, r24	; 0x0d
    56fc:	c8 01       	movw	r24, r16
    56fe:	be 01       	movw	r22, r28
    5700:	63 5f       	subi	r22, 0xF3	; 243
    5702:	7f 4f       	sbci	r23, 0xFF	; 255
    5704:	0e 94 6b 0d 	call	0x1ad6	; 0x1ad6 <_ZN7motor_t8positionERKi>
    5708:	93 e0       	ldi	r25, 0x03	; 3
    570a:	90 93 38 03 	sts	0x0338, r25
	motor[3].position(530);
    570e:	82 e1       	ldi	r24, 0x12	; 18
    5710:	92 e0       	ldi	r25, 0x02	; 2
    5712:	98 8b       	std	Y+16, r25	; 0x10
    5714:	8f 87       	std	Y+15, r24	; 0x0f
    5716:	c8 01       	movw	r24, r16
    5718:	be 01       	movw	r22, r28
    571a:	61 5f       	subi	r22, 0xF1	; 241
    571c:	7f 4f       	sbci	r23, 0xFF	; 255
    571e:	0e 94 6b 0d 	call	0x1ad6	; 0x1ad6 <_ZN7motor_t8positionERKi>
    5722:	84 e0       	ldi	r24, 0x04	; 4
    5724:	80 93 38 03 	sts	0x0338, r24
	motor[4].position(689);
    5728:	81 eb       	ldi	r24, 0xB1	; 177
    572a:	92 e0       	ldi	r25, 0x02	; 2
    572c:	9a 8b       	std	Y+18, r25	; 0x12
    572e:	89 8b       	std	Y+17, r24	; 0x11
    5730:	c8 01       	movw	r24, r16
    5732:	be 01       	movw	r22, r28
    5734:	6f 5e       	subi	r22, 0xEF	; 239
    5736:	7f 4f       	sbci	r23, 0xFF	; 255
    5738:	0e 94 6b 0d 	call	0x1ad6	; 0x1ad6 <_ZN7motor_t8positionERKi>
    573c:	95 e0       	ldi	r25, 0x05	; 5
    573e:	90 93 38 03 	sts	0x0338, r25
	motor[5].position(792);
    5742:	88 e1       	ldi	r24, 0x18	; 24
    5744:	93 e0       	ldi	r25, 0x03	; 3
    5746:	9c 8b       	std	Y+20, r25	; 0x14
    5748:	8b 8b       	std	Y+19, r24	; 0x13
    574a:	c8 01       	movw	r24, r16
    574c:	be 01       	movw	r22, r28
    574e:	6d 5e       	subi	r22, 0xED	; 237
    5750:	7f 4f       	sbci	r23, 0xFF	; 255
    5752:	0e 94 6b 0d 	call	0x1ad6	; 0x1ad6 <_ZN7motor_t8positionERKi>
    5756:	20 92 38 03 	sts	0x0338, r2
	motor[6].position(486);
    575a:	de 8a       	std	Y+22, r13	; 0x16
    575c:	cd 8a       	std	Y+21, r12	; 0x15
    575e:	c8 01       	movw	r24, r16
    5760:	be 01       	movw	r22, r28
    5762:	6b 5e       	subi	r22, 0xEB	; 235
    5764:	7f 4f       	sbci	r23, 0xFF	; 255
    5766:	0e 94 6b 0d 	call	0x1ad6	; 0x1ad6 <_ZN7motor_t8positionERKi>
    576a:	30 92 38 03 	sts	0x0338, r3
	motor[7].position(548);
    576e:	f8 8e       	std	Y+24, r15	; 0x18
    5770:	ef 8a       	std	Y+23, r14	; 0x17
    5772:	c8 01       	movw	r24, r16
    5774:	be 01       	movw	r22, r28
    5776:	69 5e       	subi	r22, 0xE9	; 233
    5778:	7f 4f       	sbci	r23, 0xFF	; 255
    577a:	0e 94 6b 0d 	call	0x1ad6	; 0x1ad6 <_ZN7motor_t8positionERKi>
	syncWait(3000000);
    577e:	60 ec       	ldi	r22, 0xC0	; 192
    5780:	76 ec       	ldi	r23, 0xC6	; 198
    5782:	8d e2       	ldi	r24, 0x2D	; 45
    5784:	90 e0       	ldi	r25, 0x00	; 0
    5786:	0e 94 e1 00 	call	0x1c2	; 0x1c2 <_Z8syncWaitm>
    578a:	82 e0       	ldi	r24, 0x02	; 2
    578c:	80 93 38 03 	sts	0x0338, r24
	//nakloni se uplne nad figurku
	motor[2].position(540);
    5790:	5c e1       	ldi	r21, 0x1C	; 28
    5792:	45 2e       	mov	r4, r21
    5794:	52 e0       	ldi	r21, 0x02	; 2
    5796:	55 2e       	mov	r5, r21
    5798:	5a 8e       	std	Y+26, r5	; 0x1a
    579a:	49 8e       	std	Y+25, r4	; 0x19
    579c:	c8 01       	movw	r24, r16
    579e:	be 01       	movw	r22, r28
    57a0:	67 5e       	subi	r22, 0xE7	; 231
    57a2:	7f 4f       	sbci	r23, 0xFF	; 255
    57a4:	0e 94 6b 0d 	call	0x1ad6	; 0x1ad6 <_ZN7motor_t8positionERKi>
    57a8:	93 e0       	ldi	r25, 0x03	; 3
    57aa:	90 93 38 03 	sts	0x0338, r25
	motor[3].position(621);
    57ae:	4d e6       	ldi	r20, 0x6D	; 109
    57b0:	64 2e       	mov	r6, r20
    57b2:	42 e0       	ldi	r20, 0x02	; 2
    57b4:	74 2e       	mov	r7, r20
    57b6:	7c 8e       	std	Y+28, r7	; 0x1c
    57b8:	6b 8e       	std	Y+27, r6	; 0x1b
    57ba:	c8 01       	movw	r24, r16
    57bc:	be 01       	movw	r22, r28
    57be:	65 5e       	subi	r22, 0xE5	; 229
    57c0:	7f 4f       	sbci	r23, 0xFF	; 255
    57c2:	0e 94 6b 0d 	call	0x1ad6	; 0x1ad6 <_ZN7motor_t8positionERKi>
    57c6:	84 e0       	ldi	r24, 0x04	; 4
    57c8:	80 93 38 03 	sts	0x0338, r24
	motor[4].position(687);
    57cc:	3f ea       	ldi	r19, 0xAF	; 175
    57ce:	83 2e       	mov	r8, r19
    57d0:	32 e0       	ldi	r19, 0x02	; 2
    57d2:	93 2e       	mov	r9, r19
    57d4:	9e 8e       	std	Y+30, r9	; 0x1e
    57d6:	8d 8e       	std	Y+29, r8	; 0x1d
    57d8:	c8 01       	movw	r24, r16
    57da:	be 01       	movw	r22, r28
    57dc:	63 5e       	subi	r22, 0xE3	; 227
    57de:	7f 4f       	sbci	r23, 0xFF	; 255
    57e0:	0e 94 6b 0d 	call	0x1ad6	; 0x1ad6 <_ZN7motor_t8positionERKi>
    57e4:	95 e0       	ldi	r25, 0x05	; 5
    57e6:	90 93 38 03 	sts	0x0338, r25
	motor[5].position(715);
    57ea:	2b ec       	ldi	r18, 0xCB	; 203
    57ec:	a2 2e       	mov	r10, r18
    57ee:	22 e0       	ldi	r18, 0x02	; 2
    57f0:	b2 2e       	mov	r11, r18
    57f2:	b8 a2       	std	Y+32, r11	; 0x20
    57f4:	af 8e       	std	Y+31, r10	; 0x1f
    57f6:	c8 01       	movw	r24, r16
    57f8:	be 01       	movw	r22, r28
    57fa:	61 5e       	subi	r22, 0xE1	; 225
    57fc:	7f 4f       	sbci	r23, 0xFF	; 255
    57fe:	0e 94 6b 0d 	call	0x1ad6	; 0x1ad6 <_ZN7motor_t8positionERKi>
    5802:	20 92 38 03 	sts	0x0338, r2
	motor[6].position(486);
    5806:	da a2       	std	Y+34, r13	; 0x22
    5808:	c9 a2       	std	Y+33, r12	; 0x21
    580a:	c8 01       	movw	r24, r16
    580c:	be 01       	movw	r22, r28
    580e:	6f 5d       	subi	r22, 0xDF	; 223
    5810:	7f 4f       	sbci	r23, 0xFF	; 255
    5812:	0e 94 6b 0d 	call	0x1ad6	; 0x1ad6 <_ZN7motor_t8positionERKi>
    5816:	30 92 38 03 	sts	0x0338, r3
	motor[7].position(548);
    581a:	fc a2       	std	Y+36, r15	; 0x24
    581c:	eb a2       	std	Y+35, r14	; 0x23
    581e:	c8 01       	movw	r24, r16
    5820:	be 01       	movw	r22, r28
    5822:	6d 5d       	subi	r22, 0xDD	; 221
    5824:	7f 4f       	sbci	r23, 0xFF	; 255
    5826:	0e 94 6b 0d 	call	0x1ad6	; 0x1ad6 <_ZN7motor_t8positionERKi>
	syncWait(3000000);
    582a:	60 ec       	ldi	r22, 0xC0	; 192
    582c:	76 ec       	ldi	r23, 0xC6	; 198
    582e:	8d e2       	ldi	r24, 0x2D	; 45
    5830:	90 e0       	ldi	r25, 0x00	; 0
    5832:	0e 94 e1 00 	call	0x1c2	; 0x1c2 <_Z8syncWaitm>
    5836:	82 e0       	ldi	r24, 0x02	; 2
    5838:	80 93 38 03 	sts	0x0338, r24
	//zavre celisti
	motor[2].position(540);
    583c:	5e a2       	std	Y+38, r5	; 0x26
    583e:	4d a2       	std	Y+37, r4	; 0x25
    5840:	c8 01       	movw	r24, r16
    5842:	be 01       	movw	r22, r28
    5844:	6b 5d       	subi	r22, 0xDB	; 219
    5846:	7f 4f       	sbci	r23, 0xFF	; 255
    5848:	0e 94 6b 0d 	call	0x1ad6	; 0x1ad6 <_ZN7motor_t8positionERKi>
    584c:	93 e0       	ldi	r25, 0x03	; 3
    584e:	90 93 38 03 	sts	0x0338, r25
	motor[3].position(621);
    5852:	78 a6       	std	Y+40, r7	; 0x28
    5854:	6f a2       	std	Y+39, r6	; 0x27
    5856:	c8 01       	movw	r24, r16
    5858:	be 01       	movw	r22, r28
    585a:	69 5d       	subi	r22, 0xD9	; 217
    585c:	7f 4f       	sbci	r23, 0xFF	; 255
    585e:	0e 94 6b 0d 	call	0x1ad6	; 0x1ad6 <_ZN7motor_t8positionERKi>
    5862:	84 e0       	ldi	r24, 0x04	; 4
    5864:	80 93 38 03 	sts	0x0338, r24
	motor[4].position(687);
    5868:	9a a6       	std	Y+42, r9	; 0x2a
    586a:	89 a6       	std	Y+41, r8	; 0x29
    586c:	c8 01       	movw	r24, r16
    586e:	be 01       	movw	r22, r28
    5870:	67 5d       	subi	r22, 0xD7	; 215
    5872:	7f 4f       	sbci	r23, 0xFF	; 255
    5874:	0e 94 6b 0d 	call	0x1ad6	; 0x1ad6 <_ZN7motor_t8positionERKi>
    5878:	95 e0       	ldi	r25, 0x05	; 5
    587a:	90 93 38 03 	sts	0x0338, r25
	motor[5].position(715);
    587e:	bc a6       	std	Y+44, r11	; 0x2c
    5880:	ab a6       	std	Y+43, r10	; 0x2b
    5882:	c8 01       	movw	r24, r16
    5884:	be 01       	movw	r22, r28
    5886:	65 5d       	subi	r22, 0xD5	; 213
    5888:	7f 4f       	sbci	r23, 0xFF	; 255
    588a:	0e 94 6b 0d 	call	0x1ad6	; 0x1ad6 <_ZN7motor_t8positionERKi>
    588e:	20 92 38 03 	sts	0x0338, r2
	motor[6].position(520);
    5892:	98 e0       	ldi	r25, 0x08	; 8
    5894:	c9 2e       	mov	r12, r25
    5896:	92 e0       	ldi	r25, 0x02	; 2
    5898:	d9 2e       	mov	r13, r25
    589a:	de a6       	std	Y+46, r13	; 0x2e
    589c:	cd a6       	std	Y+45, r12	; 0x2d
    589e:	c8 01       	movw	r24, r16
    58a0:	be 01       	movw	r22, r28
    58a2:	63 5d       	subi	r22, 0xD3	; 211
    58a4:	7f 4f       	sbci	r23, 0xFF	; 255
    58a6:	0e 94 6b 0d 	call	0x1ad6	; 0x1ad6 <_ZN7motor_t8positionERKi>
    58aa:	30 92 38 03 	sts	0x0338, r3
	motor[7].position(504);
    58ae:	88 ef       	ldi	r24, 0xF8	; 248
    58b0:	e8 2e       	mov	r14, r24
    58b2:	81 e0       	ldi	r24, 0x01	; 1
    58b4:	f8 2e       	mov	r15, r24
    58b6:	f8 aa       	std	Y+48, r15	; 0x30
    58b8:	ef a6       	std	Y+47, r14	; 0x2f
    58ba:	c8 01       	movw	r24, r16
    58bc:	be 01       	movw	r22, r28
    58be:	61 5d       	subi	r22, 0xD1	; 209
    58c0:	7f 4f       	sbci	r23, 0xFF	; 255
    58c2:	0e 94 6b 0d 	call	0x1ad6	; 0x1ad6 <_ZN7motor_t8positionERKi>
	syncWait(1000000);
    58c6:	60 e4       	ldi	r22, 0x40	; 64
    58c8:	72 e4       	ldi	r23, 0x42	; 66
    58ca:	8f e0       	ldi	r24, 0x0F	; 15
    58cc:	90 e0       	ldi	r25, 0x00	; 0
    58ce:	0e 94 e1 00 	call	0x1c2	; 0x1c2 <_Z8syncWaitm>
    58d2:	82 e0       	ldi	r24, 0x02	; 2
    58d4:	80 93 38 03 	sts	0x0338, r24
	//zvedne ruku nahoru
	motor[2].position(610);
    58d8:	82 e6       	ldi	r24, 0x62	; 98
    58da:	92 e0       	ldi	r25, 0x02	; 2
    58dc:	9a ab       	std	Y+50, r25	; 0x32
    58de:	89 ab       	std	Y+49, r24	; 0x31
    58e0:	c8 01       	movw	r24, r16
    58e2:	be 01       	movw	r22, r28
    58e4:	6f 5c       	subi	r22, 0xCF	; 207
    58e6:	7f 4f       	sbci	r23, 0xFF	; 255
    58e8:	0e 94 6b 0d 	call	0x1ad6	; 0x1ad6 <_ZN7motor_t8positionERKi>
    58ec:	93 e0       	ldi	r25, 0x03	; 3
    58ee:	90 93 38 03 	sts	0x0338, r25
	motor[3].position(276);
    58f2:	84 e1       	ldi	r24, 0x14	; 20
    58f4:	91 e0       	ldi	r25, 0x01	; 1
    58f6:	9c ab       	std	Y+52, r25	; 0x34
    58f8:	8b ab       	std	Y+51, r24	; 0x33
    58fa:	c8 01       	movw	r24, r16
    58fc:	be 01       	movw	r22, r28
    58fe:	6d 5c       	subi	r22, 0xCD	; 205
    5900:	7f 4f       	sbci	r23, 0xFF	; 255
    5902:	0e 94 6b 0d 	call	0x1ad6	; 0x1ad6 <_ZN7motor_t8positionERKi>
    5906:	84 e0       	ldi	r24, 0x04	; 4
    5908:	80 93 38 03 	sts	0x0338, r24
	motor[4].position(671);
    590c:	8f e9       	ldi	r24, 0x9F	; 159
    590e:	92 e0       	ldi	r25, 0x02	; 2
    5910:	9e ab       	std	Y+54, r25	; 0x36
    5912:	8d ab       	std	Y+53, r24	; 0x35
    5914:	c8 01       	movw	r24, r16
    5916:	be 01       	movw	r22, r28
    5918:	6b 5c       	subi	r22, 0xCB	; 203
    591a:	7f 4f       	sbci	r23, 0xFF	; 255
    591c:	0e 94 6b 0d 	call	0x1ad6	; 0x1ad6 <_ZN7motor_t8positionERKi>
    5920:	95 e0       	ldi	r25, 0x05	; 5
    5922:	90 93 38 03 	sts	0x0338, r25
	motor[5].position(782);
    5926:	8e e0       	ldi	r24, 0x0E	; 14
    5928:	93 e0       	ldi	r25, 0x03	; 3
    592a:	98 af       	std	Y+56, r25	; 0x38
    592c:	8f ab       	std	Y+55, r24	; 0x37
    592e:	c8 01       	movw	r24, r16
    5930:	be 01       	movw	r22, r28
    5932:	69 5c       	subi	r22, 0xC9	; 201
    5934:	7f 4f       	sbci	r23, 0xFF	; 255
    5936:	0e 94 6b 0d 	call	0x1ad6	; 0x1ad6 <_ZN7motor_t8positionERKi>
    593a:	20 92 38 03 	sts	0x0338, r2
	motor[6].position(520);
    593e:	da ae       	std	Y+58, r13	; 0x3a
    5940:	c9 ae       	std	Y+57, r12	; 0x39
    5942:	c8 01       	movw	r24, r16
    5944:	be 01       	movw	r22, r28
    5946:	67 5c       	subi	r22, 0xC7	; 199
    5948:	7f 4f       	sbci	r23, 0xFF	; 255
    594a:	0e 94 6b 0d 	call	0x1ad6	; 0x1ad6 <_ZN7motor_t8positionERKi>
    594e:	30 92 38 03 	sts	0x0338, r3
	motor[7].position(504);
    5952:	fc ae       	std	Y+60, r15	; 0x3c
    5954:	eb ae       	std	Y+59, r14	; 0x3b
    5956:	c8 01       	movw	r24, r16
    5958:	be 01       	movw	r22, r28
    595a:	65 5c       	subi	r22, 0xC5	; 197
    595c:	7f 4f       	sbci	r23, 0xFF	; 255
    595e:	0e 94 6b 0d 	call	0x1ad6	; 0x1ad6 <_ZN7motor_t8positionERKi>
	syncWait(3000000);
    5962:	60 ec       	ldi	r22, 0xC0	; 192
    5964:	76 ec       	ldi	r23, 0xC6	; 198
    5966:	8d e2       	ldi	r24, 0x2D	; 45
    5968:	90 e0       	ldi	r25, 0x00	; 0
    596a:	0e 94 e1 00 	call	0x1c2	; 0x1c2 <_Z8syncWaitm>
}
    596e:	ec 96       	adiw	r28, 0x3c	; 60
    5970:	0f b6       	in	r0, 0x3f	; 63
    5972:	f8 94       	cli
    5974:	de bf       	out	0x3e, r29	; 62
    5976:	0f be       	out	0x3f, r0	; 63
    5978:	cd bf       	out	0x3d, r28	; 61
    597a:	cf 91       	pop	r28
    597c:	df 91       	pop	r29
    597e:	1f 91       	pop	r17
    5980:	0f 91       	pop	r16
    5982:	ff 90       	pop	r15
    5984:	ef 90       	pop	r14
    5986:	df 90       	pop	r13
    5988:	cf 90       	pop	r12
    598a:	bf 90       	pop	r11
    598c:	af 90       	pop	r10
    598e:	9f 90       	pop	r9
    5990:	8f 90       	pop	r8
    5992:	7f 90       	pop	r7
    5994:	6f 90       	pop	r6
    5996:	5f 90       	pop	r5
    5998:	4f 90       	pop	r4
    599a:	3f 90       	pop	r3
    599c:	2f 90       	pop	r2
    599e:	08 95       	ret

000059a0 <_Z16naber_na_pozici7v>:
{
	motor[1].position(468);
	vyloz_nezasahnute_pozice();
}

void naber_na_pozici7()
    59a0:	df 93       	push	r29
    59a2:	cf 93       	push	r28
    59a4:	00 d0       	rcall	.+0      	; 0x59a6 <_Z16naber_na_pozici7v+0x6>
    59a6:	cd b7       	in	r28, 0x3d	; 61
    59a8:	de b7       	in	r29, 0x3e	; 62
    59aa:	81 e0       	ldi	r24, 0x01	; 1
    59ac:	80 93 38 03 	sts	0x0338, r24
{
	motor[1].position(428);
    59b0:	8c ea       	ldi	r24, 0xAC	; 172
    59b2:	91 e0       	ldi	r25, 0x01	; 1
    59b4:	9a 83       	std	Y+2, r25	; 0x02
    59b6:	89 83       	std	Y+1, r24	; 0x01
    59b8:	88 e3       	ldi	r24, 0x38	; 56
    59ba:	93 e0       	ldi	r25, 0x03	; 3
    59bc:	be 01       	movw	r22, r28
    59be:	6f 5f       	subi	r22, 0xFF	; 255
    59c0:	7f 4f       	sbci	r23, 0xFF	; 255
    59c2:	0e 94 6b 0d 	call	0x1ad6	; 0x1ad6 <_ZN7motor_t8positionERKi>
	naber_nezasahnute_pozice();
    59c6:	0e 94 01 2b 	call	0x5602	; 0x5602 <_Z24naber_nezasahnute_pozicev>
}
    59ca:	0f 90       	pop	r0
    59cc:	0f 90       	pop	r0
    59ce:	cf 91       	pop	r28
    59d0:	df 91       	pop	r29
    59d2:	08 95       	ret

000059d4 <_Z16naber_na_pozici6v>:
{
	motor[1].position(510);
	vyloz_nezasahnute_pozice();
}

void naber_na_pozici6()
    59d4:	df 93       	push	r29
    59d6:	cf 93       	push	r28
    59d8:	00 d0       	rcall	.+0      	; 0x59da <_Z16naber_na_pozici6v+0x6>
    59da:	cd b7       	in	r28, 0x3d	; 61
    59dc:	de b7       	in	r29, 0x3e	; 62
    59de:	81 e0       	ldi	r24, 0x01	; 1
    59e0:	80 93 38 03 	sts	0x0338, r24
{
	motor[1].position(468);
    59e4:	84 ed       	ldi	r24, 0xD4	; 212
    59e6:	91 e0       	ldi	r25, 0x01	; 1
    59e8:	9a 83       	std	Y+2, r25	; 0x02
    59ea:	89 83       	std	Y+1, r24	; 0x01
    59ec:	88 e3       	ldi	r24, 0x38	; 56
    59ee:	93 e0       	ldi	r25, 0x03	; 3
    59f0:	be 01       	movw	r22, r28
    59f2:	6f 5f       	subi	r22, 0xFF	; 255
    59f4:	7f 4f       	sbci	r23, 0xFF	; 255
    59f6:	0e 94 6b 0d 	call	0x1ad6	; 0x1ad6 <_ZN7motor_t8positionERKi>
	naber_nezasahnute_pozice();
    59fa:	0e 94 01 2b 	call	0x5602	; 0x5602 <_Z24naber_nezasahnute_pozicev>
}
    59fe:	0f 90       	pop	r0
    5a00:	0f 90       	pop	r0
    5a02:	cf 91       	pop	r28
    5a04:	df 91       	pop	r29
    5a06:	08 95       	ret

00005a08 <_Z16naber_na_pozici5v>:
{
	motor[1].position(554);
	vyloz_nezasahnute_pozice();
}

void naber_na_pozici5()
    5a08:	df 93       	push	r29
    5a0a:	cf 93       	push	r28
    5a0c:	00 d0       	rcall	.+0      	; 0x5a0e <_Z16naber_na_pozici5v+0x6>
    5a0e:	cd b7       	in	r28, 0x3d	; 61
    5a10:	de b7       	in	r29, 0x3e	; 62
    5a12:	81 e0       	ldi	r24, 0x01	; 1
    5a14:	80 93 38 03 	sts	0x0338, r24
{
	motor[1].position(510);
    5a18:	8e ef       	ldi	r24, 0xFE	; 254
    5a1a:	91 e0       	ldi	r25, 0x01	; 1
    5a1c:	9a 83       	std	Y+2, r25	; 0x02
    5a1e:	89 83       	std	Y+1, r24	; 0x01
    5a20:	88 e3       	ldi	r24, 0x38	; 56
    5a22:	93 e0       	ldi	r25, 0x03	; 3
    5a24:	be 01       	movw	r22, r28
    5a26:	6f 5f       	subi	r22, 0xFF	; 255
    5a28:	7f 4f       	sbci	r23, 0xFF	; 255
    5a2a:	0e 94 6b 0d 	call	0x1ad6	; 0x1ad6 <_ZN7motor_t8positionERKi>
	naber_nezasahnute_pozice();
    5a2e:	0e 94 01 2b 	call	0x5602	; 0x5602 <_Z24naber_nezasahnute_pozicev>
}
    5a32:	0f 90       	pop	r0
    5a34:	0f 90       	pop	r0
    5a36:	cf 91       	pop	r28
    5a38:	df 91       	pop	r29
    5a3a:	08 95       	ret

00005a3c <_Z16naber_na_pozici4v>:
{
	motor[1].position(587);
	vyloz_nezasahnute_pozice();
}

void naber_na_pozici4()
    5a3c:	df 93       	push	r29
    5a3e:	cf 93       	push	r28
    5a40:	00 d0       	rcall	.+0      	; 0x5a42 <_Z16naber_na_pozici4v+0x6>
    5a42:	cd b7       	in	r28, 0x3d	; 61
    5a44:	de b7       	in	r29, 0x3e	; 62
    5a46:	81 e0       	ldi	r24, 0x01	; 1
    5a48:	80 93 38 03 	sts	0x0338, r24
{
	motor[1].position(554);
    5a4c:	8a e2       	ldi	r24, 0x2A	; 42
    5a4e:	92 e0       	ldi	r25, 0x02	; 2
    5a50:	9a 83       	std	Y+2, r25	; 0x02
    5a52:	89 83       	std	Y+1, r24	; 0x01
    5a54:	88 e3       	ldi	r24, 0x38	; 56
    5a56:	93 e0       	ldi	r25, 0x03	; 3
    5a58:	be 01       	movw	r22, r28
    5a5a:	6f 5f       	subi	r22, 0xFF	; 255
    5a5c:	7f 4f       	sbci	r23, 0xFF	; 255
    5a5e:	0e 94 6b 0d 	call	0x1ad6	; 0x1ad6 <_ZN7motor_t8positionERKi>
	naber_nezasahnute_pozice();
    5a62:	0e 94 01 2b 	call	0x5602	; 0x5602 <_Z24naber_nezasahnute_pozicev>
}
    5a66:	0f 90       	pop	r0
    5a68:	0f 90       	pop	r0
    5a6a:	cf 91       	pop	r28
    5a6c:	df 91       	pop	r29
    5a6e:	08 95       	ret

00005a70 <_Z16naber_na_pozici3v>:
	motor[7].position(524);
	syncWait(2000000);

}

void naber_na_pozici3()
    5a70:	df 93       	push	r29
    5a72:	cf 93       	push	r28
    5a74:	00 d0       	rcall	.+0      	; 0x5a76 <_Z16naber_na_pozici3v+0x6>
    5a76:	cd b7       	in	r28, 0x3d	; 61
    5a78:	de b7       	in	r29, 0x3e	; 62
    5a7a:	81 e0       	ldi	r24, 0x01	; 1
    5a7c:	80 93 38 03 	sts	0x0338, r24
{
	motor[1].position(587);
    5a80:	8b e4       	ldi	r24, 0x4B	; 75
    5a82:	92 e0       	ldi	r25, 0x02	; 2
    5a84:	9a 83       	std	Y+2, r25	; 0x02
    5a86:	89 83       	std	Y+1, r24	; 0x01
    5a88:	88 e3       	ldi	r24, 0x38	; 56
    5a8a:	93 e0       	ldi	r25, 0x03	; 3
    5a8c:	be 01       	movw	r22, r28
    5a8e:	6f 5f       	subi	r22, 0xFF	; 255
    5a90:	7f 4f       	sbci	r23, 0xFF	; 255
    5a92:	0e 94 6b 0d 	call	0x1ad6	; 0x1ad6 <_ZN7motor_t8positionERKi>
	naber_nezasahnute_pozice();
    5a96:	0e 94 01 2b 	call	0x5602	; 0x5602 <_Z24naber_nezasahnute_pozicev>
}
    5a9a:	0f 90       	pop	r0
    5a9c:	0f 90       	pop	r0
    5a9e:	cf 91       	pop	r28
    5aa0:	df 91       	pop	r29
    5aa2:	08 95       	ret

00005aa4 <_Z15zjisteni_pozicev>:
	chlivek_robot_pozice33();
}

void zjisteni_pozice()
{
	if (A == 0)
    5aa4:	80 91 07 04 	lds	r24, 0x0407
    5aa8:	90 91 08 04 	lds	r25, 0x0408
    5aac:	89 2b       	or	r24, r25
    5aae:	21 f4       	brne	.+8      	; 0x5ab8 <_Z15zjisteni_pozicev+0x14>
	{
		naber_na_pozici30();
    5ab0:	0e 94 8d 26 	call	0x4d1a	; 0x4d1a <_Z17naber_na_pozici30v>
		chlivek_clovek_pozice39();
    5ab4:	0e 94 4b 1b 	call	0x3696	; 0x3696 <_Z23chlivek_clovek_pozice39v>
	}
	if (A == 1)
    5ab8:	80 91 07 04 	lds	r24, 0x0407
    5abc:	90 91 08 04 	lds	r25, 0x0408
    5ac0:	01 97       	sbiw	r24, 0x01	; 1
    5ac2:	21 f4       	brne	.+8      	; 0x5acc <_Z15zjisteni_pozicev+0x28>
	{
		naber_na_pozici31();
    5ac4:	0e 94 73 26 	call	0x4ce6	; 0x4ce6 <_Z17naber_na_pozici31v>
		chlivek_clovek_pozice39();
    5ac8:	0e 94 4b 1b 	call	0x3696	; 0x3696 <_Z23chlivek_clovek_pozice39v>
	}
	
	if (A == 2)
    5acc:	80 91 07 04 	lds	r24, 0x0407
    5ad0:	90 91 08 04 	lds	r25, 0x0408
    5ad4:	02 97       	sbiw	r24, 0x02	; 2
    5ad6:	21 f4       	brne	.+8      	; 0x5ae0 <_Z15zjisteni_pozicev+0x3c>
	{
		naber_na_pozici32();
    5ad8:	0e 94 59 26 	call	0x4cb2	; 0x4cb2 <_Z17naber_na_pozici32v>
		chlivek_clovek_pozice39();
    5adc:	0e 94 4b 1b 	call	0x3696	; 0x3696 <_Z23chlivek_clovek_pozice39v>
	}

	if (A == 3)
    5ae0:	80 91 07 04 	lds	r24, 0x0407
    5ae4:	90 91 08 04 	lds	r25, 0x0408
    5ae8:	03 97       	sbiw	r24, 0x03	; 3
    5aea:	21 f4       	brne	.+8      	; 0x5af4 <_Z15zjisteni_pozicev+0x50>
	{
		naber_na_pozici1();
    5aec:	0e 94 3f 26 	call	0x4c7e	; 0x4c7e <_Z16naber_na_pozici1v>
		chlivek_clovek_pozice39();
    5af0:	0e 94 4b 1b 	call	0x3696	; 0x3696 <_Z23chlivek_clovek_pozice39v>
	}
	
	if (A == 4)
    5af4:	80 91 07 04 	lds	r24, 0x0407
    5af8:	90 91 08 04 	lds	r25, 0x0408
    5afc:	04 97       	sbiw	r24, 0x04	; 4
    5afe:	21 f4       	brne	.+8      	; 0x5b08 <_Z15zjisteni_pozicev+0x64>
	{
		naber_na_pozici2();
    5b00:	0e 94 25 26 	call	0x4c4a	; 0x4c4a <_Z16naber_na_pozici2v>
		chlivek_clovek_pozice39();
    5b04:	0e 94 4b 1b 	call	0x3696	; 0x3696 <_Z23chlivek_clovek_pozice39v>
	}
	
	if (A == 5)
    5b08:	80 91 07 04 	lds	r24, 0x0407
    5b0c:	90 91 08 04 	lds	r25, 0x0408
    5b10:	05 97       	sbiw	r24, 0x05	; 5
    5b12:	21 f4       	brne	.+8      	; 0x5b1c <_Z15zjisteni_pozicev+0x78>
	{
		naber_na_pozici3();
    5b14:	0e 94 38 2d 	call	0x5a70	; 0x5a70 <_Z16naber_na_pozici3v>
		chlivek_clovek_pozice39();
    5b18:	0e 94 4b 1b 	call	0x3696	; 0x3696 <_Z23chlivek_clovek_pozice39v>
	}
	
	if (A == 6)
    5b1c:	80 91 07 04 	lds	r24, 0x0407
    5b20:	90 91 08 04 	lds	r25, 0x0408
    5b24:	06 97       	sbiw	r24, 0x06	; 6
    5b26:	21 f4       	brne	.+8      	; 0x5b30 <_Z15zjisteni_pozicev+0x8c>
	{
		naber_na_pozici4();
    5b28:	0e 94 1e 2d 	call	0x5a3c	; 0x5a3c <_Z16naber_na_pozici4v>
		chlivek_clovek_pozice39();
    5b2c:	0e 94 4b 1b 	call	0x3696	; 0x3696 <_Z23chlivek_clovek_pozice39v>
	}
	
	if (A == 7)
    5b30:	80 91 07 04 	lds	r24, 0x0407
    5b34:	90 91 08 04 	lds	r25, 0x0408
    5b38:	07 97       	sbiw	r24, 0x07	; 7
    5b3a:	21 f4       	brne	.+8      	; 0x5b44 <_Z15zjisteni_pozicev+0xa0>
	{
		naber_na_pozici5();
    5b3c:	0e 94 04 2d 	call	0x5a08	; 0x5a08 <_Z16naber_na_pozici5v>
		chlivek_clovek_pozice39();
    5b40:	0e 94 4b 1b 	call	0x3696	; 0x3696 <_Z23chlivek_clovek_pozice39v>
	}
	
	if (A == 8)
    5b44:	80 91 07 04 	lds	r24, 0x0407
    5b48:	90 91 08 04 	lds	r25, 0x0408
    5b4c:	08 97       	sbiw	r24, 0x08	; 8
    5b4e:	21 f4       	brne	.+8      	; 0x5b58 <_Z15zjisteni_pozicev+0xb4>
	{
		naber_na_pozici6();
    5b50:	0e 94 ea 2c 	call	0x59d4	; 0x59d4 <_Z16naber_na_pozici6v>
		chlivek_clovek_pozice39();
    5b54:	0e 94 4b 1b 	call	0x3696	; 0x3696 <_Z23chlivek_clovek_pozice39v>
	}
	
	if (A == 9)
    5b58:	80 91 07 04 	lds	r24, 0x0407
    5b5c:	90 91 08 04 	lds	r25, 0x0408
    5b60:	09 97       	sbiw	r24, 0x09	; 9
    5b62:	21 f4       	brne	.+8      	; 0x5b6c <_Z15zjisteni_pozicev+0xc8>
	{
		naber_na_pozici7();
    5b64:	0e 94 d0 2c 	call	0x59a0	; 0x59a0 <_Z16naber_na_pozici7v>
		chlivek_clovek_pozice39();
    5b68:	0e 94 4b 1b 	call	0x3696	; 0x3696 <_Z23chlivek_clovek_pozice39v>
	}
	
	if (A == 10)
    5b6c:	80 91 07 04 	lds	r24, 0x0407
    5b70:	90 91 08 04 	lds	r25, 0x0408
    5b74:	0a 97       	sbiw	r24, 0x0a	; 10
    5b76:	21 f4       	brne	.+8      	; 0x5b80 <_Z15zjisteni_pozicev+0xdc>
	{
		naber_na_pozici8();
    5b78:	0e 94 e4 28 	call	0x51c8	; 0x51c8 <_Z16naber_na_pozici8v>
		chlivek_clovek_pozice39();
    5b7c:	0e 94 4b 1b 	call	0x3696	; 0x3696 <_Z23chlivek_clovek_pozice39v>
	}
	
	if (A == 11)
    5b80:	80 91 07 04 	lds	r24, 0x0407
    5b84:	90 91 08 04 	lds	r25, 0x0408
    5b88:	0b 97       	sbiw	r24, 0x0b	; 11
    5b8a:	21 f4       	brne	.+8      	; 0x5b94 <_Z15zjisteni_pozicev+0xf0>
	{
		naber_na_pozici9();
    5b8c:	0e 94 ca 28 	call	0x5194	; 0x5194 <_Z16naber_na_pozici9v>
		chlivek_clovek_pozice39();
    5b90:	0e 94 4b 1b 	call	0x3696	; 0x3696 <_Z23chlivek_clovek_pozice39v>
	}
	
	if (A == 12)
    5b94:	80 91 07 04 	lds	r24, 0x0407
    5b98:	90 91 08 04 	lds	r25, 0x0408
    5b9c:	0c 97       	sbiw	r24, 0x0c	; 12
    5b9e:	21 f4       	brne	.+8      	; 0x5ba8 <_Z15zjisteni_pozicev+0x104>
	{
		naber_na_pozici10();
    5ba0:	0e 94 b0 28 	call	0x5160	; 0x5160 <_Z17naber_na_pozici10v>
		chlivek_clovek_pozice39();
    5ba4:	0e 94 4b 1b 	call	0x3696	; 0x3696 <_Z23chlivek_clovek_pozice39v>
	}
	
	if (A == 13)
    5ba8:	80 91 07 04 	lds	r24, 0x0407
    5bac:	90 91 08 04 	lds	r25, 0x0408
    5bb0:	0d 97       	sbiw	r24, 0x0d	; 13
    5bb2:	21 f4       	brne	.+8      	; 0x5bbc <_Z15zjisteni_pozicev+0x118>
	{
		naber_na_pozici11();
    5bb4:	0e 94 96 28 	call	0x512c	; 0x512c <_Z17naber_na_pozici11v>
		chlivek_clovek_pozice39();
    5bb8:	0e 94 4b 1b 	call	0x3696	; 0x3696 <_Z23chlivek_clovek_pozice39v>
	}
	
	if (A == 14)
    5bbc:	80 91 07 04 	lds	r24, 0x0407
    5bc0:	90 91 08 04 	lds	r25, 0x0408
    5bc4:	0e 97       	sbiw	r24, 0x0e	; 14
    5bc6:	21 f4       	brne	.+8      	; 0x5bd0 <_Z15zjisteni_pozicev+0x12c>
	{
		naber_na_pozici12();
    5bc8:	0e 94 7c 28 	call	0x50f8	; 0x50f8 <_Z17naber_na_pozici12v>
		chlivek_clovek_pozice39();
    5bcc:	0e 94 4b 1b 	call	0x3696	; 0x3696 <_Z23chlivek_clovek_pozice39v>
	}
	
	if (A == 15)
    5bd0:	80 91 07 04 	lds	r24, 0x0407
    5bd4:	90 91 08 04 	lds	r25, 0x0408
    5bd8:	0f 97       	sbiw	r24, 0x0f	; 15
    5bda:	21 f4       	brne	.+8      	; 0x5be4 <_Z15zjisteni_pozicev+0x140>
	{
		naber_na_pozici13();
    5bdc:	0e 94 62 28 	call	0x50c4	; 0x50c4 <_Z17naber_na_pozici13v>
		chlivek_clovek_pozice39();
    5be0:	0e 94 4b 1b 	call	0x3696	; 0x3696 <_Z23chlivek_clovek_pozice39v>
	}
	
	if (A == 16)
    5be4:	80 91 07 04 	lds	r24, 0x0407
    5be8:	90 91 08 04 	lds	r25, 0x0408
    5bec:	40 97       	sbiw	r24, 0x10	; 16
    5bee:	21 f4       	brne	.+8      	; 0x5bf8 <_Z15zjisteni_pozicev+0x154>
	{
		naber_na_pozici14();
    5bf0:	0e 94 48 28 	call	0x5090	; 0x5090 <_Z17naber_na_pozici14v>
		chlivek_clovek_pozice39();
    5bf4:	0e 94 4b 1b 	call	0x3696	; 0x3696 <_Z23chlivek_clovek_pozice39v>
	}
	
	if (A == 17)
    5bf8:	80 91 07 04 	lds	r24, 0x0407
    5bfc:	90 91 08 04 	lds	r25, 0x0408
    5c00:	41 97       	sbiw	r24, 0x11	; 17
    5c02:	21 f4       	brne	.+8      	; 0x5c0c <_Z15zjisteni_pozicev+0x168>
	{
		naber_na_pozici15();
    5c04:	0e 94 2e 28 	call	0x505c	; 0x505c <_Z17naber_na_pozici15v>
		chlivek_clovek_pozice39();
    5c08:	0e 94 4b 1b 	call	0x3696	; 0x3696 <_Z23chlivek_clovek_pozice39v>
	}
	
	if (A == 18)
    5c0c:	80 91 07 04 	lds	r24, 0x0407
    5c10:	90 91 08 04 	lds	r25, 0x0408
    5c14:	42 97       	sbiw	r24, 0x12	; 18
    5c16:	21 f4       	brne	.+8      	; 0x5c20 <_Z15zjisteni_pozicev+0x17c>
	{
		naber_na_pozici16();
    5c18:	0e 94 14 28 	call	0x5028	; 0x5028 <_Z17naber_na_pozici16v>
		chlivek_clovek_pozice39();
    5c1c:	0e 94 4b 1b 	call	0x3696	; 0x3696 <_Z23chlivek_clovek_pozice39v>
	}
	
	if (A == 19)
    5c20:	80 91 07 04 	lds	r24, 0x0407
    5c24:	90 91 08 04 	lds	r25, 0x0408
    5c28:	43 97       	sbiw	r24, 0x13	; 19
    5c2a:	21 f4       	brne	.+8      	; 0x5c34 <_Z15zjisteni_pozicev+0x190>
	{
		naber_na_pozici17();
    5c2c:	0e 94 fa 27 	call	0x4ff4	; 0x4ff4 <_Z17naber_na_pozici17v>
		chlivek_clovek_pozice39();
    5c30:	0e 94 4b 1b 	call	0x3696	; 0x3696 <_Z23chlivek_clovek_pozice39v>
	}
	
	if (A == 20)
    5c34:	80 91 07 04 	lds	r24, 0x0407
    5c38:	90 91 08 04 	lds	r25, 0x0408
    5c3c:	44 97       	sbiw	r24, 0x14	; 20
    5c3e:	21 f4       	brne	.+8      	; 0x5c48 <_Z15zjisteni_pozicev+0x1a4>
	{
		naber_na_pozici18();
    5c40:	0e 94 e0 27 	call	0x4fc0	; 0x4fc0 <_Z17naber_na_pozici18v>
		chlivek_clovek_pozice39();
    5c44:	0e 94 4b 1b 	call	0x3696	; 0x3696 <_Z23chlivek_clovek_pozice39v>
	}
	
	if (A == 21)
    5c48:	80 91 07 04 	lds	r24, 0x0407
    5c4c:	90 91 08 04 	lds	r25, 0x0408
    5c50:	45 97       	sbiw	r24, 0x15	; 21
    5c52:	21 f4       	brne	.+8      	; 0x5c5c <_Z15zjisteni_pozicev+0x1b8>
	{
		naber_na_pozici19();
    5c54:	0e 94 c6 27 	call	0x4f8c	; 0x4f8c <_Z17naber_na_pozici19v>
		chlivek_clovek_pozice39();
    5c58:	0e 94 4b 1b 	call	0x3696	; 0x3696 <_Z23chlivek_clovek_pozice39v>
	}
	
	if (A == 22)
    5c5c:	80 91 07 04 	lds	r24, 0x0407
    5c60:	90 91 08 04 	lds	r25, 0x0408
    5c64:	46 97       	sbiw	r24, 0x16	; 22
    5c66:	21 f4       	brne	.+8      	; 0x5c70 <_Z15zjisteni_pozicev+0x1cc>
	{
		naber_na_pozici20();
    5c68:	0e 94 ac 27 	call	0x4f58	; 0x4f58 <_Z17naber_na_pozici20v>
		chlivek_clovek_pozice39();
    5c6c:	0e 94 4b 1b 	call	0x3696	; 0x3696 <_Z23chlivek_clovek_pozice39v>
	}
	
	if (A == 23)
    5c70:	80 91 07 04 	lds	r24, 0x0407
    5c74:	90 91 08 04 	lds	r25, 0x0408
    5c78:	47 97       	sbiw	r24, 0x17	; 23
    5c7a:	21 f4       	brne	.+8      	; 0x5c84 <_Z15zjisteni_pozicev+0x1e0>
	{
		naber_na_pozici21();
    5c7c:	0e 94 92 27 	call	0x4f24	; 0x4f24 <_Z17naber_na_pozici21v>
		chlivek_clovek_pozice39();
    5c80:	0e 94 4b 1b 	call	0x3696	; 0x3696 <_Z23chlivek_clovek_pozice39v>
	}
	
	if (A == 24)
    5c84:	80 91 07 04 	lds	r24, 0x0407
    5c88:	90 91 08 04 	lds	r25, 0x0408
    5c8c:	48 97       	sbiw	r24, 0x18	; 24
    5c8e:	21 f4       	brne	.+8      	; 0x5c98 <_Z15zjisteni_pozicev+0x1f4>
	{
		naber_na_pozici22();
    5c90:	0e 94 5d 27 	call	0x4eba	; 0x4eba <_Z17naber_na_pozici22v>
		chlivek_clovek_pozice39();
    5c94:	0e 94 4b 1b 	call	0x3696	; 0x3696 <_Z23chlivek_clovek_pozice39v>
	}
	
	if (A == 25)
    5c98:	80 91 07 04 	lds	r24, 0x0407
    5c9c:	90 91 08 04 	lds	r25, 0x0408
    5ca0:	49 97       	sbiw	r24, 0x19	; 25
    5ca2:	21 f4       	brne	.+8      	; 0x5cac <_Z15zjisteni_pozicev+0x208>
	{
		naber_na_pozici23();
    5ca4:	0e 94 43 27 	call	0x4e86	; 0x4e86 <_Z17naber_na_pozici23v>
		chlivek_clovek_pozice39();
    5ca8:	0e 94 4b 1b 	call	0x3696	; 0x3696 <_Z23chlivek_clovek_pozice39v>
	}
	
	if (A == 26)
    5cac:	80 91 07 04 	lds	r24, 0x0407
    5cb0:	90 91 08 04 	lds	r25, 0x0408
    5cb4:	4a 97       	sbiw	r24, 0x1a	; 26
    5cb6:	21 f4       	brne	.+8      	; 0x5cc0 <_Z15zjisteni_pozicev+0x21c>
	{
		naber_na_pozici24();
    5cb8:	0e 94 29 27 	call	0x4e52	; 0x4e52 <_Z17naber_na_pozici24v>
		chlivek_clovek_pozice39();
    5cbc:	0e 94 4b 1b 	call	0x3696	; 0x3696 <_Z23chlivek_clovek_pozice39v>
	}
	
	if (A == 27)
    5cc0:	80 91 07 04 	lds	r24, 0x0407
    5cc4:	90 91 08 04 	lds	r25, 0x0408
    5cc8:	4b 97       	sbiw	r24, 0x1b	; 27
    5cca:	21 f4       	brne	.+8      	; 0x5cd4 <_Z15zjisteni_pozicev+0x230>
	{
		naber_na_pozici25();
    5ccc:	0e 94 0f 27 	call	0x4e1e	; 0x4e1e <_Z17naber_na_pozici25v>
		chlivek_clovek_pozice39();
    5cd0:	0e 94 4b 1b 	call	0x3696	; 0x3696 <_Z23chlivek_clovek_pozice39v>
	}
	
	if (A == 28)
    5cd4:	80 91 07 04 	lds	r24, 0x0407
    5cd8:	90 91 08 04 	lds	r25, 0x0408
    5cdc:	4c 97       	sbiw	r24, 0x1c	; 28
    5cde:	21 f4       	brne	.+8      	; 0x5ce8 <_Z15zjisteni_pozicev+0x244>
	{
		naber_na_pozici26();
    5ce0:	0e 94 f5 26 	call	0x4dea	; 0x4dea <_Z17naber_na_pozici26v>
		chlivek_clovek_pozice39();
    5ce4:	0e 94 4b 1b 	call	0x3696	; 0x3696 <_Z23chlivek_clovek_pozice39v>
	}
	
	if (A == 29)
    5ce8:	80 91 07 04 	lds	r24, 0x0407
    5cec:	90 91 08 04 	lds	r25, 0x0408
    5cf0:	4d 97       	sbiw	r24, 0x1d	; 29
    5cf2:	21 f4       	brne	.+8      	; 0x5cfc <_Z15zjisteni_pozicev+0x258>
	{
		naber_na_pozici27();
    5cf4:	0e 94 db 26 	call	0x4db6	; 0x4db6 <_Z17naber_na_pozici27v>
		chlivek_clovek_pozice39();
    5cf8:	0e 94 4b 1b 	call	0x3696	; 0x3696 <_Z23chlivek_clovek_pozice39v>
	}
	
	if (A == 30)
    5cfc:	80 91 07 04 	lds	r24, 0x0407
    5d00:	90 91 08 04 	lds	r25, 0x0408
    5d04:	4e 97       	sbiw	r24, 0x1e	; 30
    5d06:	21 f4       	brne	.+8      	; 0x5d10 <_Z15zjisteni_pozicev+0x26c>
	{
		naber_na_pozici28();
    5d08:	0e 94 c1 26 	call	0x4d82	; 0x4d82 <_Z17naber_na_pozici28v>
		chlivek_clovek_pozice39();
    5d0c:	0e 94 4b 1b 	call	0x3696	; 0x3696 <_Z23chlivek_clovek_pozice39v>
	}
	
	if (A == 31)
    5d10:	80 91 07 04 	lds	r24, 0x0407
    5d14:	90 91 08 04 	lds	r25, 0x0408
    5d18:	4f 97       	sbiw	r24, 0x1f	; 31
    5d1a:	21 f4       	brne	.+8      	; 0x5d24 <_Z15zjisteni_pozicev+0x280>
	{
		naber_na_pozici29();
    5d1c:	0e 94 a7 26 	call	0x4d4e	; 0x4d4e <_Z17naber_na_pozici29v>
		chlivek_clovek_pozice39();
    5d20:	0e 94 4b 1b 	call	0x3696	; 0x3696 <_Z23chlivek_clovek_pozice39v>
    5d24:	08 95       	ret

00005d26 <_Z20kalkulace_tahu_robotv>:
	vyloz();
}

void kalkulace_tahu_robot()
{
	if (A == 1)
    5d26:	80 91 07 04 	lds	r24, 0x0407
    5d2a:	90 91 08 04 	lds	r25, 0x0408
    5d2e:	01 97       	sbiw	r24, 0x01	; 1
    5d30:	09 f5       	brne	.+66     	; 0x5d74 <_Z20kalkulace_tahu_robotv+0x4e>
	{
		if (A == TL1_1)	//figurka je na pozici 31. hraciho pole
    5d32:	80 91 71 04 	lds	r24, 0x0471
    5d36:	90 91 72 04 	lds	r25, 0x0472
    5d3a:	01 97       	sbiw	r24, 0x01	; 1
    5d3c:	d9 f4       	brne	.+54     	; 0x5d74 <_Z20kalkulace_tahu_robotv+0x4e>
		{
			if (B == TL0_1)//minula hodnota 
    5d3e:	20 91 09 04 	lds	r18, 0x0409
    5d42:	30 91 0a 04 	lds	r19, 0x040A
    5d46:	80 91 6f 04 	lds	r24, 0x046F
    5d4a:	90 91 70 04 	lds	r25, 0x0470
    5d4e:	28 17       	cp	r18, r24
    5d50:	39 07       	cpc	r19, r25
    5d52:	81 f4       	brne	.+32     	; 0x5d74 <_Z20kalkulace_tahu_robotv+0x4e>
			{ 
				naber_na_pozici30();//presun figurku na pozici 30.hraciho pole
    5d54:	0e 94 8d 26 	call	0x4d1a	; 0x4d1a <_Z17naber_na_pozici30v>
				syncWait(2000000);
    5d58:	60 e8       	ldi	r22, 0x80	; 128
    5d5a:	74 e8       	ldi	r23, 0x84	; 132
    5d5c:	8e e1       	ldi	r24, 0x1E	; 30
    5d5e:	90 e0       	ldi	r25, 0x00	; 0
    5d60:	0e 94 e1 00 	call	0x1c2	; 0x1c2 <_Z8syncWaitm>
				vyloz_na_pozici31();
    5d64:	0e 94 9d 21 	call	0x433a	; 0x433a <_Z17vyloz_na_pozici31v>
				syncWait(2000000);
    5d68:	60 e8       	ldi	r22, 0x80	; 128
    5d6a:	74 e8       	ldi	r23, 0x84	; 132
    5d6c:	8e e1       	ldi	r24, 0x1E	; 30
    5d6e:	90 e0       	ldi	r25, 0x00	; 0
    5d70:	0e 94 e1 00 	call	0x1c2	; 0x1c2 <_Z8syncWaitm>
			}
		}
	}
	if (A == 2)
    5d74:	80 91 07 04 	lds	r24, 0x0407
    5d78:	90 91 08 04 	lds	r25, 0x0408
    5d7c:	02 97       	sbiw	r24, 0x02	; 2
    5d7e:	e1 f5       	brne	.+120    	; 0x5df8 <_Z20kalkulace_tahu_robotv+0xd2>
	{
		if (A == TL2_1)//figurka je na pozici 32. hraciho pole
    5d80:	80 91 73 04 	lds	r24, 0x0473
    5d84:	90 91 74 04 	lds	r25, 0x0474
    5d88:	02 97       	sbiw	r24, 0x02	; 2
    5d8a:	b1 f5       	brne	.+108    	; 0x5df8 <_Z20kalkulace_tahu_robotv+0xd2>
		{
			if (B == TL0_1)//B = 0  -  zacina ze startu pozice 30. hraci plochy 
    5d8c:	20 91 09 04 	lds	r18, 0x0409
    5d90:	30 91 0a 04 	lds	r19, 0x040A
    5d94:	80 91 6f 04 	lds	r24, 0x046F
    5d98:	90 91 70 04 	lds	r25, 0x0470
    5d9c:	28 17       	cp	r18, r24
    5d9e:	39 07       	cpc	r19, r25
    5da0:	81 f4       	brne	.+32     	; 0x5dc2 <_Z20kalkulace_tahu_robotv+0x9c>
			{
				naber_na_pozici30();//presun figurku na pozici 32. hraciho pole z pozice 30
    5da2:	0e 94 8d 26 	call	0x4d1a	; 0x4d1a <_Z17naber_na_pozici30v>
				syncWait(2000000);
    5da6:	60 e8       	ldi	r22, 0x80	; 128
    5da8:	74 e8       	ldi	r23, 0x84	; 132
    5daa:	8e e1       	ldi	r24, 0x1E	; 30
    5dac:	90 e0       	ldi	r25, 0x00	; 0
    5dae:	0e 94 e1 00 	call	0x1c2	; 0x1c2 <_Z8syncWaitm>
				vyloz_na_pozici32();
    5db2:	0e 94 83 21 	call	0x4306	; 0x4306 <_Z17vyloz_na_pozici32v>
				syncWait(2000000);
    5db6:	60 e8       	ldi	r22, 0x80	; 128
    5db8:	74 e8       	ldi	r23, 0x84	; 132
    5dba:	8e e1       	ldi	r24, 0x1E	; 30
    5dbc:	90 e0       	ldi	r25, 0x00	; 0
    5dbe:	0e 94 e1 00 	call	0x1c2	; 0x1c2 <_Z8syncWaitm>
			}
			if (B == TL1_1)//figurka je na pozici 31. hraciho pole 
    5dc2:	20 91 09 04 	lds	r18, 0x0409
    5dc6:	30 91 0a 04 	lds	r19, 0x040A
    5dca:	80 91 71 04 	lds	r24, 0x0471
    5dce:	90 91 72 04 	lds	r25, 0x0472
    5dd2:	28 17       	cp	r18, r24
    5dd4:	39 07       	cpc	r19, r25
    5dd6:	81 f4       	brne	.+32     	; 0x5df8 <_Z20kalkulace_tahu_robotv+0xd2>
			{
				naber_na_pozici31();//presun figurku na pozici 32. hraciho pole z pozice 31
    5dd8:	0e 94 73 26 	call	0x4ce6	; 0x4ce6 <_Z17naber_na_pozici31v>
				syncWait(2000000);
    5ddc:	60 e8       	ldi	r22, 0x80	; 128
    5dde:	74 e8       	ldi	r23, 0x84	; 132
    5de0:	8e e1       	ldi	r24, 0x1E	; 30
    5de2:	90 e0       	ldi	r25, 0x00	; 0
    5de4:	0e 94 e1 00 	call	0x1c2	; 0x1c2 <_Z8syncWaitm>
				vyloz_na_pozici32();
    5de8:	0e 94 83 21 	call	0x4306	; 0x4306 <_Z17vyloz_na_pozici32v>
				syncWait(2000000);
    5dec:	60 e8       	ldi	r22, 0x80	; 128
    5dee:	74 e8       	ldi	r23, 0x84	; 132
    5df0:	8e e1       	ldi	r24, 0x1E	; 30
    5df2:	90 e0       	ldi	r25, 0x00	; 0
    5df4:	0e 94 e1 00 	call	0x1c2	; 0x1c2 <_Z8syncWaitm>
			}
		}
	}
	if (A == 3)
    5df8:	80 91 07 04 	lds	r24, 0x0407
    5dfc:	90 91 08 04 	lds	r25, 0x0408
    5e00:	03 97       	sbiw	r24, 0x03	; 3
    5e02:	09 f0       	breq	.+2      	; 0x5e06 <_Z20kalkulace_tahu_robotv+0xe0>
    5e04:	58 c0       	rjmp	.+176    	; 0x5eb6 <_Z20kalkulace_tahu_robotv+0x190>
	{
		if (A == TL3_1)//figurka je na pozici 33. hraciho pole
    5e06:	80 91 75 04 	lds	r24, 0x0475
    5e0a:	90 91 76 04 	lds	r25, 0x0476
    5e0e:	03 97       	sbiw	r24, 0x03	; 3
    5e10:	09 f0       	breq	.+2      	; 0x5e14 <_Z20kalkulace_tahu_robotv+0xee>
    5e12:	51 c0       	rjmp	.+162    	; 0x5eb6 <_Z20kalkulace_tahu_robotv+0x190>
		{
			if (B == TL0_1)//B zacina za startu 30 
    5e14:	20 91 09 04 	lds	r18, 0x0409
    5e18:	30 91 0a 04 	lds	r19, 0x040A
    5e1c:	80 91 6f 04 	lds	r24, 0x046F
    5e20:	90 91 70 04 	lds	r25, 0x0470
    5e24:	28 17       	cp	r18, r24
    5e26:	39 07       	cpc	r19, r25
    5e28:	81 f4       	brne	.+32     	; 0x5e4a <_Z20kalkulace_tahu_robotv+0x124>
			{
				naber_na_pozici30();
    5e2a:	0e 94 8d 26 	call	0x4d1a	; 0x4d1a <_Z17naber_na_pozici30v>
				syncWait(2000000);
    5e2e:	60 e8       	ldi	r22, 0x80	; 128
    5e30:	74 e8       	ldi	r23, 0x84	; 132
    5e32:	8e e1       	ldi	r24, 0x1E	; 30
    5e34:	90 e0       	ldi	r25, 0x00	; 0
    5e36:	0e 94 e1 00 	call	0x1c2	; 0x1c2 <_Z8syncWaitm>
				vyloz_na_pozici1();
    5e3a:	0e 94 69 21 	call	0x42d2	; 0x42d2 <_Z16vyloz_na_pozici1v>
				syncWait(2000000);//presun figurku na pozici 1. hraciho pole z pozice 30
    5e3e:	60 e8       	ldi	r22, 0x80	; 128
    5e40:	74 e8       	ldi	r23, 0x84	; 132
    5e42:	8e e1       	ldi	r24, 0x1E	; 30
    5e44:	90 e0       	ldi	r25, 0x00	; 0
    5e46:	0e 94 e1 00 	call	0x1c2	; 0x1c2 <_Z8syncWaitm>
			}
			if (B == TL1_1)//figurka je na pozici 31
    5e4a:	20 91 09 04 	lds	r18, 0x0409
    5e4e:	30 91 0a 04 	lds	r19, 0x040A
    5e52:	80 91 71 04 	lds	r24, 0x0471
    5e56:	90 91 72 04 	lds	r25, 0x0472
    5e5a:	28 17       	cp	r18, r24
    5e5c:	39 07       	cpc	r19, r25
    5e5e:	81 f4       	brne	.+32     	; 0x5e80 <_Z20kalkulace_tahu_robotv+0x15a>
			{
				naber_na_pozici31();
    5e60:	0e 94 73 26 	call	0x4ce6	; 0x4ce6 <_Z17naber_na_pozici31v>
				syncWait(2000000);
    5e64:	60 e8       	ldi	r22, 0x80	; 128
    5e66:	74 e8       	ldi	r23, 0x84	; 132
    5e68:	8e e1       	ldi	r24, 0x1E	; 30
    5e6a:	90 e0       	ldi	r25, 0x00	; 0
    5e6c:	0e 94 e1 00 	call	0x1c2	; 0x1c2 <_Z8syncWaitm>
				vyloz_na_pozici1();
    5e70:	0e 94 69 21 	call	0x42d2	; 0x42d2 <_Z16vyloz_na_pozici1v>
				syncWait(2000000);//presun figurku na pozici 1. hraciho pole z pozice 31 
    5e74:	60 e8       	ldi	r22, 0x80	; 128
    5e76:	74 e8       	ldi	r23, 0x84	; 132
    5e78:	8e e1       	ldi	r24, 0x1E	; 30
    5e7a:	90 e0       	ldi	r25, 0x00	; 0
    5e7c:	0e 94 e1 00 	call	0x1c2	; 0x1c2 <_Z8syncWaitm>
			}
			if (B == TL2_1)//figurka je na pozici 32
    5e80:	20 91 09 04 	lds	r18, 0x0409
    5e84:	30 91 0a 04 	lds	r19, 0x040A
    5e88:	80 91 73 04 	lds	r24, 0x0473
    5e8c:	90 91 74 04 	lds	r25, 0x0474
    5e90:	28 17       	cp	r18, r24
    5e92:	39 07       	cpc	r19, r25
    5e94:	81 f4       	brne	.+32     	; 0x5eb6 <_Z20kalkulace_tahu_robotv+0x190>
			{
				naber_na_pozici32();
    5e96:	0e 94 59 26 	call	0x4cb2	; 0x4cb2 <_Z17naber_na_pozici32v>
				syncWait(2000000);
    5e9a:	60 e8       	ldi	r22, 0x80	; 128
    5e9c:	74 e8       	ldi	r23, 0x84	; 132
    5e9e:	8e e1       	ldi	r24, 0x1E	; 30
    5ea0:	90 e0       	ldi	r25, 0x00	; 0
    5ea2:	0e 94 e1 00 	call	0x1c2	; 0x1c2 <_Z8syncWaitm>
				vyloz_na_pozici1();
    5ea6:	0e 94 69 21 	call	0x42d2	; 0x42d2 <_Z16vyloz_na_pozici1v>
				syncWait(2000000);//presun figurku na pozici 1. hraciho pole z pozice 32 
    5eaa:	60 e8       	ldi	r22, 0x80	; 128
    5eac:	74 e8       	ldi	r23, 0x84	; 132
    5eae:	8e e1       	ldi	r24, 0x1E	; 30
    5eb0:	90 e0       	ldi	r25, 0x00	; 0
    5eb2:	0e 94 e1 00 	call	0x1c2	; 0x1c2 <_Z8syncWaitm>
			}
		}
	}
	if (A == 4)	
    5eb6:	80 91 07 04 	lds	r24, 0x0407
    5eba:	90 91 08 04 	lds	r25, 0x0408
    5ebe:	04 97       	sbiw	r24, 0x04	; 4
    5ec0:	09 f0       	breq	.+2      	; 0x5ec4 <_Z20kalkulace_tahu_robotv+0x19e>
    5ec2:	73 c0       	rjmp	.+230    	; 0x5faa <_Z20kalkulace_tahu_robotv+0x284>
	{
		if (A == TL4_1)
    5ec4:	80 91 77 04 	lds	r24, 0x0477
    5ec8:	90 91 78 04 	lds	r25, 0x0478
    5ecc:	04 97       	sbiw	r24, 0x04	; 4
    5ece:	09 f0       	breq	.+2      	; 0x5ed2 <_Z20kalkulace_tahu_robotv+0x1ac>
    5ed0:	6c c0       	rjmp	.+216    	; 0x5faa <_Z20kalkulace_tahu_robotv+0x284>
		{
			if (B == TL0_1)
    5ed2:	20 91 09 04 	lds	r18, 0x0409
    5ed6:	30 91 0a 04 	lds	r19, 0x040A
    5eda:	80 91 6f 04 	lds	r24, 0x046F
    5ede:	90 91 70 04 	lds	r25, 0x0470
    5ee2:	28 17       	cp	r18, r24
    5ee4:	39 07       	cpc	r19, r25
    5ee6:	81 f4       	brne	.+32     	; 0x5f08 <_Z20kalkulace_tahu_robotv+0x1e2>
			{
				naber_na_pozici30();
    5ee8:	0e 94 8d 26 	call	0x4d1a	; 0x4d1a <_Z17naber_na_pozici30v>
				syncWait(2000000);
    5eec:	60 e8       	ldi	r22, 0x80	; 128
    5eee:	74 e8       	ldi	r23, 0x84	; 132
    5ef0:	8e e1       	ldi	r24, 0x1E	; 30
    5ef2:	90 e0       	ldi	r25, 0x00	; 0
    5ef4:	0e 94 e1 00 	call	0x1c2	; 0x1c2 <_Z8syncWaitm>
				vyloz_na_pozici2();
    5ef8:	0e 94 4f 21 	call	0x429e	; 0x429e <_Z16vyloz_na_pozici2v>
				syncWait(2000000);//presun figurku na pozici 2. hraciho pole z pozice 30
    5efc:	60 e8       	ldi	r22, 0x80	; 128
    5efe:	74 e8       	ldi	r23, 0x84	; 132
    5f00:	8e e1       	ldi	r24, 0x1E	; 30
    5f02:	90 e0       	ldi	r25, 0x00	; 0
    5f04:	0e 94 e1 00 	call	0x1c2	; 0x1c2 <_Z8syncWaitm>
			}
			if (B == TL1_1)
    5f08:	20 91 09 04 	lds	r18, 0x0409
    5f0c:	30 91 0a 04 	lds	r19, 0x040A
    5f10:	80 91 71 04 	lds	r24, 0x0471
    5f14:	90 91 72 04 	lds	r25, 0x0472
    5f18:	28 17       	cp	r18, r24
    5f1a:	39 07       	cpc	r19, r25
    5f1c:	81 f4       	brne	.+32     	; 0x5f3e <_Z20kalkulace_tahu_robotv+0x218>
			{
				naber_na_pozici31();
    5f1e:	0e 94 73 26 	call	0x4ce6	; 0x4ce6 <_Z17naber_na_pozici31v>
				syncWait(2000000);
    5f22:	60 e8       	ldi	r22, 0x80	; 128
    5f24:	74 e8       	ldi	r23, 0x84	; 132
    5f26:	8e e1       	ldi	r24, 0x1E	; 30
    5f28:	90 e0       	ldi	r25, 0x00	; 0
    5f2a:	0e 94 e1 00 	call	0x1c2	; 0x1c2 <_Z8syncWaitm>
				vyloz_na_pozici2();
    5f2e:	0e 94 4f 21 	call	0x429e	; 0x429e <_Z16vyloz_na_pozici2v>
				syncWait(5000000);//presun figurku na pozici 2. hraciho pole z pozice 31
    5f32:	60 e4       	ldi	r22, 0x40	; 64
    5f34:	7b e4       	ldi	r23, 0x4B	; 75
    5f36:	8c e4       	ldi	r24, 0x4C	; 76
    5f38:	90 e0       	ldi	r25, 0x00	; 0
    5f3a:	0e 94 e1 00 	call	0x1c2	; 0x1c2 <_Z8syncWaitm>
			}
			if (B == TL2_1)
    5f3e:	20 91 09 04 	lds	r18, 0x0409
    5f42:	30 91 0a 04 	lds	r19, 0x040A
    5f46:	80 91 73 04 	lds	r24, 0x0473
    5f4a:	90 91 74 04 	lds	r25, 0x0474
    5f4e:	28 17       	cp	r18, r24
    5f50:	39 07       	cpc	r19, r25
    5f52:	81 f4       	brne	.+32     	; 0x5f74 <_Z20kalkulace_tahu_robotv+0x24e>
			{
				naber_na_pozici32();
    5f54:	0e 94 59 26 	call	0x4cb2	; 0x4cb2 <_Z17naber_na_pozici32v>
				syncWait(2000000);
    5f58:	60 e8       	ldi	r22, 0x80	; 128
    5f5a:	74 e8       	ldi	r23, 0x84	; 132
    5f5c:	8e e1       	ldi	r24, 0x1E	; 30
    5f5e:	90 e0       	ldi	r25, 0x00	; 0
    5f60:	0e 94 e1 00 	call	0x1c2	; 0x1c2 <_Z8syncWaitm>
				vyloz_na_pozici2();
    5f64:	0e 94 4f 21 	call	0x429e	; 0x429e <_Z16vyloz_na_pozici2v>
				syncWait(2000000);//presun figurku na pozici 2. hraciho pole z pozice 32
    5f68:	60 e8       	ldi	r22, 0x80	; 128
    5f6a:	74 e8       	ldi	r23, 0x84	; 132
    5f6c:	8e e1       	ldi	r24, 0x1E	; 30
    5f6e:	90 e0       	ldi	r25, 0x00	; 0
    5f70:	0e 94 e1 00 	call	0x1c2	; 0x1c2 <_Z8syncWaitm>
			}
			if (B == TL3_1)
    5f74:	20 91 09 04 	lds	r18, 0x0409
    5f78:	30 91 0a 04 	lds	r19, 0x040A
    5f7c:	80 91 75 04 	lds	r24, 0x0475
    5f80:	90 91 76 04 	lds	r25, 0x0476
    5f84:	28 17       	cp	r18, r24
    5f86:	39 07       	cpc	r19, r25
    5f88:	81 f4       	brne	.+32     	; 0x5faa <_Z20kalkulace_tahu_robotv+0x284>
			{
				naber_na_pozici1();
    5f8a:	0e 94 3f 26 	call	0x4c7e	; 0x4c7e <_Z16naber_na_pozici1v>
				syncWait(2000000);
    5f8e:	60 e8       	ldi	r22, 0x80	; 128
    5f90:	74 e8       	ldi	r23, 0x84	; 132
    5f92:	8e e1       	ldi	r24, 0x1E	; 30
    5f94:	90 e0       	ldi	r25, 0x00	; 0
    5f96:	0e 94 e1 00 	call	0x1c2	; 0x1c2 <_Z8syncWaitm>
				vyloz_na_pozici2();
    5f9a:	0e 94 4f 21 	call	0x429e	; 0x429e <_Z16vyloz_na_pozici2v>
				syncWait(2000000);//presun figurku na pozici 2. hraciho pole z pozice 1
    5f9e:	60 e8       	ldi	r22, 0x80	; 128
    5fa0:	74 e8       	ldi	r23, 0x84	; 132
    5fa2:	8e e1       	ldi	r24, 0x1E	; 30
    5fa4:	90 e0       	ldi	r25, 0x00	; 0
    5fa6:	0e 94 e1 00 	call	0x1c2	; 0x1c2 <_Z8syncWaitm>
			}
		}
	}
	if (A == 5)	
    5faa:	80 91 07 04 	lds	r24, 0x0407
    5fae:	90 91 08 04 	lds	r25, 0x0408
    5fb2:	05 97       	sbiw	r24, 0x05	; 5
    5fb4:	09 f0       	breq	.+2      	; 0x5fb8 <_Z20kalkulace_tahu_robotv+0x292>
    5fb6:	8e c0       	rjmp	.+284    	; 0x60d4 <_Z20kalkulace_tahu_robotv+0x3ae>
	{
		if (A == TL5_1)
    5fb8:	80 91 79 04 	lds	r24, 0x0479
    5fbc:	90 91 7a 04 	lds	r25, 0x047A
    5fc0:	05 97       	sbiw	r24, 0x05	; 5
    5fc2:	09 f0       	breq	.+2      	; 0x5fc6 <_Z20kalkulace_tahu_robotv+0x2a0>
    5fc4:	87 c0       	rjmp	.+270    	; 0x60d4 <_Z20kalkulace_tahu_robotv+0x3ae>
		{
			if (B == TL0_1)
    5fc6:	20 91 09 04 	lds	r18, 0x0409
    5fca:	30 91 0a 04 	lds	r19, 0x040A
    5fce:	80 91 6f 04 	lds	r24, 0x046F
    5fd2:	90 91 70 04 	lds	r25, 0x0470
    5fd6:	28 17       	cp	r18, r24
    5fd8:	39 07       	cpc	r19, r25
    5fda:	81 f4       	brne	.+32     	; 0x5ffc <_Z20kalkulace_tahu_robotv+0x2d6>
			{
				naber_na_pozici30();
    5fdc:	0e 94 8d 26 	call	0x4d1a	; 0x4d1a <_Z17naber_na_pozici30v>
				syncWait(2000000);
    5fe0:	60 e8       	ldi	r22, 0x80	; 128
    5fe2:	74 e8       	ldi	r23, 0x84	; 132
    5fe4:	8e e1       	ldi	r24, 0x1E	; 30
    5fe6:	90 e0       	ldi	r25, 0x00	; 0
    5fe8:	0e 94 e1 00 	call	0x1c2	; 0x1c2 <_Z8syncWaitm>
				vyloz_na_pozici3();
    5fec:	0e 94 e7 2a 	call	0x55ce	; 0x55ce <_Z16vyloz_na_pozici3v>
				syncWait(2000000);//presun figurku na pozici 3. hraciho pole z pozice 30
    5ff0:	60 e8       	ldi	r22, 0x80	; 128
    5ff2:	74 e8       	ldi	r23, 0x84	; 132
    5ff4:	8e e1       	ldi	r24, 0x1E	; 30
    5ff6:	90 e0       	ldi	r25, 0x00	; 0
    5ff8:	0e 94 e1 00 	call	0x1c2	; 0x1c2 <_Z8syncWaitm>
			}
			if (B == TL1_1)
    5ffc:	20 91 09 04 	lds	r18, 0x0409
    6000:	30 91 0a 04 	lds	r19, 0x040A
    6004:	80 91 71 04 	lds	r24, 0x0471
    6008:	90 91 72 04 	lds	r25, 0x0472
    600c:	28 17       	cp	r18, r24
    600e:	39 07       	cpc	r19, r25
    6010:	81 f4       	brne	.+32     	; 0x6032 <_Z20kalkulace_tahu_robotv+0x30c>
			{
				naber_na_pozici31();
    6012:	0e 94 73 26 	call	0x4ce6	; 0x4ce6 <_Z17naber_na_pozici31v>
				syncWait(5000000);
    6016:	60 e4       	ldi	r22, 0x40	; 64
    6018:	7b e4       	ldi	r23, 0x4B	; 75
    601a:	8c e4       	ldi	r24, 0x4C	; 76
    601c:	90 e0       	ldi	r25, 0x00	; 0
    601e:	0e 94 e1 00 	call	0x1c2	; 0x1c2 <_Z8syncWaitm>
				vyloz_na_pozici3();
    6022:	0e 94 e7 2a 	call	0x55ce	; 0x55ce <_Z16vyloz_na_pozici3v>
				syncWait(2000000);//presun figurku na pozici 3. hraciho pole z pozice 31
    6026:	60 e8       	ldi	r22, 0x80	; 128
    6028:	74 e8       	ldi	r23, 0x84	; 132
    602a:	8e e1       	ldi	r24, 0x1E	; 30
    602c:	90 e0       	ldi	r25, 0x00	; 0
    602e:	0e 94 e1 00 	call	0x1c2	; 0x1c2 <_Z8syncWaitm>
			}
			if (B == TL2_1)
    6032:	20 91 09 04 	lds	r18, 0x0409
    6036:	30 91 0a 04 	lds	r19, 0x040A
    603a:	80 91 73 04 	lds	r24, 0x0473
    603e:	90 91 74 04 	lds	r25, 0x0474
    6042:	28 17       	cp	r18, r24
    6044:	39 07       	cpc	r19, r25
    6046:	81 f4       	brne	.+32     	; 0x6068 <_Z20kalkulace_tahu_robotv+0x342>
			{
				naber_na_pozici32();
    6048:	0e 94 59 26 	call	0x4cb2	; 0x4cb2 <_Z17naber_na_pozici32v>
				syncWait(5000000);
    604c:	60 e4       	ldi	r22, 0x40	; 64
    604e:	7b e4       	ldi	r23, 0x4B	; 75
    6050:	8c e4       	ldi	r24, 0x4C	; 76
    6052:	90 e0       	ldi	r25, 0x00	; 0
    6054:	0e 94 e1 00 	call	0x1c2	; 0x1c2 <_Z8syncWaitm>
				vyloz_na_pozici3();
    6058:	0e 94 e7 2a 	call	0x55ce	; 0x55ce <_Z16vyloz_na_pozici3v>
				syncWait(2000000);//presun figurku na pozici 3. hraciho pole z pozice 32
    605c:	60 e8       	ldi	r22, 0x80	; 128
    605e:	74 e8       	ldi	r23, 0x84	; 132
    6060:	8e e1       	ldi	r24, 0x1E	; 30
    6062:	90 e0       	ldi	r25, 0x00	; 0
    6064:	0e 94 e1 00 	call	0x1c2	; 0x1c2 <_Z8syncWaitm>
			}
			if (B == TL3_1)
    6068:	20 91 09 04 	lds	r18, 0x0409
    606c:	30 91 0a 04 	lds	r19, 0x040A
    6070:	80 91 75 04 	lds	r24, 0x0475
    6074:	90 91 76 04 	lds	r25, 0x0476
    6078:	28 17       	cp	r18, r24
    607a:	39 07       	cpc	r19, r25
    607c:	81 f4       	brne	.+32     	; 0x609e <_Z20kalkulace_tahu_robotv+0x378>
			{
				naber_na_pozici1();
    607e:	0e 94 3f 26 	call	0x4c7e	; 0x4c7e <_Z16naber_na_pozici1v>
				syncWait(5000000);
    6082:	60 e4       	ldi	r22, 0x40	; 64
    6084:	7b e4       	ldi	r23, 0x4B	; 75
    6086:	8c e4       	ldi	r24, 0x4C	; 76
    6088:	90 e0       	ldi	r25, 0x00	; 0
    608a:	0e 94 e1 00 	call	0x1c2	; 0x1c2 <_Z8syncWaitm>
				vyloz_na_pozici3();
    608e:	0e 94 e7 2a 	call	0x55ce	; 0x55ce <_Z16vyloz_na_pozici3v>
				syncWait(2000000);//presun figurku na pozici 3. hraciho pole z pozice 1
    6092:	60 e8       	ldi	r22, 0x80	; 128
    6094:	74 e8       	ldi	r23, 0x84	; 132
    6096:	8e e1       	ldi	r24, 0x1E	; 30
    6098:	90 e0       	ldi	r25, 0x00	; 0
    609a:	0e 94 e1 00 	call	0x1c2	; 0x1c2 <_Z8syncWaitm>
			}
			if (B == TL4_1)
    609e:	20 91 09 04 	lds	r18, 0x0409
    60a2:	30 91 0a 04 	lds	r19, 0x040A
    60a6:	80 91 77 04 	lds	r24, 0x0477
    60aa:	90 91 78 04 	lds	r25, 0x0478
    60ae:	28 17       	cp	r18, r24
    60b0:	39 07       	cpc	r19, r25
    60b2:	81 f4       	brne	.+32     	; 0x60d4 <_Z20kalkulace_tahu_robotv+0x3ae>
			{
				naber_na_pozici2();
    60b4:	0e 94 25 26 	call	0x4c4a	; 0x4c4a <_Z16naber_na_pozici2v>
				syncWait(5000000);
    60b8:	60 e4       	ldi	r22, 0x40	; 64
    60ba:	7b e4       	ldi	r23, 0x4B	; 75
    60bc:	8c e4       	ldi	r24, 0x4C	; 76
    60be:	90 e0       	ldi	r25, 0x00	; 0
    60c0:	0e 94 e1 00 	call	0x1c2	; 0x1c2 <_Z8syncWaitm>
				vyloz_na_pozici3();
    60c4:	0e 94 e7 2a 	call	0x55ce	; 0x55ce <_Z16vyloz_na_pozici3v>
				syncWait(2000000);//presun figurku na pozici 3. hraciho pole z pozice 2
    60c8:	60 e8       	ldi	r22, 0x80	; 128
    60ca:	74 e8       	ldi	r23, 0x84	; 132
    60cc:	8e e1       	ldi	r24, 0x1E	; 30
    60ce:	90 e0       	ldi	r25, 0x00	; 0
    60d0:	0e 94 e1 00 	call	0x1c2	; 0x1c2 <_Z8syncWaitm>
			}
		}
	}
	if (A == 6)
    60d4:	80 91 07 04 	lds	r24, 0x0407
    60d8:	90 91 08 04 	lds	r25, 0x0408
    60dc:	06 97       	sbiw	r24, 0x06	; 6
    60de:	09 f0       	breq	.+2      	; 0x60e2 <_Z20kalkulace_tahu_robotv+0x3bc>
    60e0:	a9 c0       	rjmp	.+338    	; 0x6234 <_Z20kalkulace_tahu_robotv+0x50e>
	{	
		if (A == TL6_1)
    60e2:	80 91 7b 04 	lds	r24, 0x047B
    60e6:	90 91 7c 04 	lds	r25, 0x047C
    60ea:	06 97       	sbiw	r24, 0x06	; 6
    60ec:	09 f0       	breq	.+2      	; 0x60f0 <_Z20kalkulace_tahu_robotv+0x3ca>
    60ee:	a2 c0       	rjmp	.+324    	; 0x6234 <_Z20kalkulace_tahu_robotv+0x50e>
		{
			if (B == TL0_1)
    60f0:	20 91 09 04 	lds	r18, 0x0409
    60f4:	30 91 0a 04 	lds	r19, 0x040A
    60f8:	80 91 6f 04 	lds	r24, 0x046F
    60fc:	90 91 70 04 	lds	r25, 0x0470
    6100:	28 17       	cp	r18, r24
    6102:	39 07       	cpc	r19, r25
    6104:	81 f4       	brne	.+32     	; 0x6126 <_Z20kalkulace_tahu_robotv+0x400>
			{
				naber_na_pozici30();
    6106:	0e 94 8d 26 	call	0x4d1a	; 0x4d1a <_Z17naber_na_pozici30v>
				syncWait(5000000);
    610a:	60 e4       	ldi	r22, 0x40	; 64
    610c:	7b e4       	ldi	r23, 0x4B	; 75
    610e:	8c e4       	ldi	r24, 0x4C	; 76
    6110:	90 e0       	ldi	r25, 0x00	; 0
    6112:	0e 94 e1 00 	call	0x1c2	; 0x1c2 <_Z8syncWaitm>
				vyloz_na_pozici4();
    6116:	0e 94 cd 2a 	call	0x559a	; 0x559a <_Z16vyloz_na_pozici4v>
				syncWait(2000000);
    611a:	60 e8       	ldi	r22, 0x80	; 128
    611c:	74 e8       	ldi	r23, 0x84	; 132
    611e:	8e e1       	ldi	r24, 0x1E	; 30
    6120:	90 e0       	ldi	r25, 0x00	; 0
    6122:	0e 94 e1 00 	call	0x1c2	; 0x1c2 <_Z8syncWaitm>
				//presun figurku na pozici 4. hraciho pole z pozice 30
			}
			if (B == TL1_1)
    6126:	20 91 09 04 	lds	r18, 0x0409
    612a:	30 91 0a 04 	lds	r19, 0x040A
    612e:	80 91 71 04 	lds	r24, 0x0471
    6132:	90 91 72 04 	lds	r25, 0x0472
    6136:	28 17       	cp	r18, r24
    6138:	39 07       	cpc	r19, r25
    613a:	81 f4       	brne	.+32     	; 0x615c <_Z20kalkulace_tahu_robotv+0x436>
			{
				naber_na_pozici31();
    613c:	0e 94 73 26 	call	0x4ce6	; 0x4ce6 <_Z17naber_na_pozici31v>
				syncWait(5000000);
    6140:	60 e4       	ldi	r22, 0x40	; 64
    6142:	7b e4       	ldi	r23, 0x4B	; 75
    6144:	8c e4       	ldi	r24, 0x4C	; 76
    6146:	90 e0       	ldi	r25, 0x00	; 0
    6148:	0e 94 e1 00 	call	0x1c2	; 0x1c2 <_Z8syncWaitm>
				vyloz_na_pozici4();
    614c:	0e 94 cd 2a 	call	0x559a	; 0x559a <_Z16vyloz_na_pozici4v>
				syncWait(2000000);
    6150:	60 e8       	ldi	r22, 0x80	; 128
    6152:	74 e8       	ldi	r23, 0x84	; 132
    6154:	8e e1       	ldi	r24, 0x1E	; 30
    6156:	90 e0       	ldi	r25, 0x00	; 0
    6158:	0e 94 e1 00 	call	0x1c2	; 0x1c2 <_Z8syncWaitm>
				//presun figurku na pozici 4. hraciho pole z pozice 31
			}
			if (B == TL2_1)
    615c:	20 91 09 04 	lds	r18, 0x0409
    6160:	30 91 0a 04 	lds	r19, 0x040A
    6164:	80 91 73 04 	lds	r24, 0x0473
    6168:	90 91 74 04 	lds	r25, 0x0474
    616c:	28 17       	cp	r18, r24
    616e:	39 07       	cpc	r19, r25
    6170:	81 f4       	brne	.+32     	; 0x6192 <_Z20kalkulace_tahu_robotv+0x46c>
			{
				naber_na_pozici32();
    6172:	0e 94 59 26 	call	0x4cb2	; 0x4cb2 <_Z17naber_na_pozici32v>
				syncWait(5000000);
    6176:	60 e4       	ldi	r22, 0x40	; 64
    6178:	7b e4       	ldi	r23, 0x4B	; 75
    617a:	8c e4       	ldi	r24, 0x4C	; 76
    617c:	90 e0       	ldi	r25, 0x00	; 0
    617e:	0e 94 e1 00 	call	0x1c2	; 0x1c2 <_Z8syncWaitm>
				vyloz_na_pozici4();
    6182:	0e 94 cd 2a 	call	0x559a	; 0x559a <_Z16vyloz_na_pozici4v>
				syncWait(2000000);
    6186:	60 e8       	ldi	r22, 0x80	; 128
    6188:	74 e8       	ldi	r23, 0x84	; 132
    618a:	8e e1       	ldi	r24, 0x1E	; 30
    618c:	90 e0       	ldi	r25, 0x00	; 0
    618e:	0e 94 e1 00 	call	0x1c2	; 0x1c2 <_Z8syncWaitm>
				//presun figurku na pozici 4. hraciho pole z pozice 32
			}
			if (B == TL3_1)
    6192:	20 91 09 04 	lds	r18, 0x0409
    6196:	30 91 0a 04 	lds	r19, 0x040A
    619a:	80 91 75 04 	lds	r24, 0x0475
    619e:	90 91 76 04 	lds	r25, 0x0476
    61a2:	28 17       	cp	r18, r24
    61a4:	39 07       	cpc	r19, r25
    61a6:	81 f4       	brne	.+32     	; 0x61c8 <_Z20kalkulace_tahu_robotv+0x4a2>
			{
				naber_na_pozici1();
    61a8:	0e 94 3f 26 	call	0x4c7e	; 0x4c7e <_Z16naber_na_pozici1v>
				syncWait(5000000);
    61ac:	60 e4       	ldi	r22, 0x40	; 64
    61ae:	7b e4       	ldi	r23, 0x4B	; 75
    61b0:	8c e4       	ldi	r24, 0x4C	; 76
    61b2:	90 e0       	ldi	r25, 0x00	; 0
    61b4:	0e 94 e1 00 	call	0x1c2	; 0x1c2 <_Z8syncWaitm>
				vyloz_na_pozici4();
    61b8:	0e 94 cd 2a 	call	0x559a	; 0x559a <_Z16vyloz_na_pozici4v>
				syncWait(2000000);
    61bc:	60 e8       	ldi	r22, 0x80	; 128
    61be:	74 e8       	ldi	r23, 0x84	; 132
    61c0:	8e e1       	ldi	r24, 0x1E	; 30
    61c2:	90 e0       	ldi	r25, 0x00	; 0
    61c4:	0e 94 e1 00 	call	0x1c2	; 0x1c2 <_Z8syncWaitm>
				//presun figurku na pozici 4. hraciho pole z pozice 1
			}
			if (B == TL4_1)
    61c8:	20 91 09 04 	lds	r18, 0x0409
    61cc:	30 91 0a 04 	lds	r19, 0x040A
    61d0:	80 91 77 04 	lds	r24, 0x0477
    61d4:	90 91 78 04 	lds	r25, 0x0478
    61d8:	28 17       	cp	r18, r24
    61da:	39 07       	cpc	r19, r25
    61dc:	81 f4       	brne	.+32     	; 0x61fe <_Z20kalkulace_tahu_robotv+0x4d8>
			{
				naber_na_pozici2();
    61de:	0e 94 25 26 	call	0x4c4a	; 0x4c4a <_Z16naber_na_pozici2v>
				syncWait(5000000);
    61e2:	60 e4       	ldi	r22, 0x40	; 64
    61e4:	7b e4       	ldi	r23, 0x4B	; 75
    61e6:	8c e4       	ldi	r24, 0x4C	; 76
    61e8:	90 e0       	ldi	r25, 0x00	; 0
    61ea:	0e 94 e1 00 	call	0x1c2	; 0x1c2 <_Z8syncWaitm>
				vyloz_na_pozici4();
    61ee:	0e 94 cd 2a 	call	0x559a	; 0x559a <_Z16vyloz_na_pozici4v>
				syncWait(2000000);
    61f2:	60 e8       	ldi	r22, 0x80	; 128
    61f4:	74 e8       	ldi	r23, 0x84	; 132
    61f6:	8e e1       	ldi	r24, 0x1E	; 30
    61f8:	90 e0       	ldi	r25, 0x00	; 0
    61fa:	0e 94 e1 00 	call	0x1c2	; 0x1c2 <_Z8syncWaitm>
				//presun figurku na pozici 4. hraciho pole z pozice 2
			}
			if (B == TL5_1)
    61fe:	20 91 09 04 	lds	r18, 0x0409
    6202:	30 91 0a 04 	lds	r19, 0x040A
    6206:	80 91 79 04 	lds	r24, 0x0479
    620a:	90 91 7a 04 	lds	r25, 0x047A
    620e:	28 17       	cp	r18, r24
    6210:	39 07       	cpc	r19, r25
    6212:	81 f4       	brne	.+32     	; 0x6234 <_Z20kalkulace_tahu_robotv+0x50e>
			{
				naber_na_pozici3();
    6214:	0e 94 38 2d 	call	0x5a70	; 0x5a70 <_Z16naber_na_pozici3v>
				syncWait(5000000);
    6218:	60 e4       	ldi	r22, 0x40	; 64
    621a:	7b e4       	ldi	r23, 0x4B	; 75
    621c:	8c e4       	ldi	r24, 0x4C	; 76
    621e:	90 e0       	ldi	r25, 0x00	; 0
    6220:	0e 94 e1 00 	call	0x1c2	; 0x1c2 <_Z8syncWaitm>
				vyloz_na_pozici4();
    6224:	0e 94 cd 2a 	call	0x559a	; 0x559a <_Z16vyloz_na_pozici4v>
				syncWait(2000000);
    6228:	60 e8       	ldi	r22, 0x80	; 128
    622a:	74 e8       	ldi	r23, 0x84	; 132
    622c:	8e e1       	ldi	r24, 0x1E	; 30
    622e:	90 e0       	ldi	r25, 0x00	; 0
    6230:	0e 94 e1 00 	call	0x1c2	; 0x1c2 <_Z8syncWaitm>
				//presun figurku na pozici 4. hraciho pole z pozice 3
			}
		}
	}
	if (A == 7)
    6234:	80 91 07 04 	lds	r24, 0x0407
    6238:	90 91 08 04 	lds	r25, 0x0408
    623c:	07 97       	sbiw	r24, 0x07	; 7
    623e:	09 f0       	breq	.+2      	; 0x6242 <_Z20kalkulace_tahu_robotv+0x51c>
    6240:	c4 c0       	rjmp	.+392    	; 0x63ca <_Z20kalkulace_tahu_robotv+0x6a4>
	{
		if(A == TL7_1)
    6242:	80 91 7d 04 	lds	r24, 0x047D
    6246:	90 91 7e 04 	lds	r25, 0x047E
    624a:	07 97       	sbiw	r24, 0x07	; 7
    624c:	09 f0       	breq	.+2      	; 0x6250 <_Z20kalkulace_tahu_robotv+0x52a>
    624e:	bd c0       	rjmp	.+378    	; 0x63ca <_Z20kalkulace_tahu_robotv+0x6a4>
		{
			if (B == TL0_1)
    6250:	20 91 09 04 	lds	r18, 0x0409
    6254:	30 91 0a 04 	lds	r19, 0x040A
    6258:	80 91 6f 04 	lds	r24, 0x046F
    625c:	90 91 70 04 	lds	r25, 0x0470
    6260:	28 17       	cp	r18, r24
    6262:	39 07       	cpc	r19, r25
    6264:	81 f4       	brne	.+32     	; 0x6286 <_Z20kalkulace_tahu_robotv+0x560>
			{
				naber_na_pozici30();
    6266:	0e 94 8d 26 	call	0x4d1a	; 0x4d1a <_Z17naber_na_pozici30v>
				syncWait(5000000);
    626a:	60 e4       	ldi	r22, 0x40	; 64
    626c:	7b e4       	ldi	r23, 0x4B	; 75
    626e:	8c e4       	ldi	r24, 0x4C	; 76
    6270:	90 e0       	ldi	r25, 0x00	; 0
    6272:	0e 94 e1 00 	call	0x1c2	; 0x1c2 <_Z8syncWaitm>
				vyloz_na_pozici5();
    6276:	0e 94 b3 2a 	call	0x5566	; 0x5566 <_Z16vyloz_na_pozici5v>
				syncWait(2000000);
    627a:	60 e8       	ldi	r22, 0x80	; 128
    627c:	74 e8       	ldi	r23, 0x84	; 132
    627e:	8e e1       	ldi	r24, 0x1E	; 30
    6280:	90 e0       	ldi	r25, 0x00	; 0
    6282:	0e 94 e1 00 	call	0x1c2	; 0x1c2 <_Z8syncWaitm>
				//presun figurku na pozici 5. hraciho pole z pozice 30
			}
			if (B == TL1_1)
    6286:	20 91 09 04 	lds	r18, 0x0409
    628a:	30 91 0a 04 	lds	r19, 0x040A
    628e:	80 91 71 04 	lds	r24, 0x0471
    6292:	90 91 72 04 	lds	r25, 0x0472
    6296:	28 17       	cp	r18, r24
    6298:	39 07       	cpc	r19, r25
    629a:	81 f4       	brne	.+32     	; 0x62bc <_Z20kalkulace_tahu_robotv+0x596>
			{
				naber_na_pozici31();
    629c:	0e 94 73 26 	call	0x4ce6	; 0x4ce6 <_Z17naber_na_pozici31v>
				syncWait(5000000);
    62a0:	60 e4       	ldi	r22, 0x40	; 64
    62a2:	7b e4       	ldi	r23, 0x4B	; 75
    62a4:	8c e4       	ldi	r24, 0x4C	; 76
    62a6:	90 e0       	ldi	r25, 0x00	; 0
    62a8:	0e 94 e1 00 	call	0x1c2	; 0x1c2 <_Z8syncWaitm>
				vyloz_na_pozici5();
    62ac:	0e 94 b3 2a 	call	0x5566	; 0x5566 <_Z16vyloz_na_pozici5v>
				syncWait(2000000);
    62b0:	60 e8       	ldi	r22, 0x80	; 128
    62b2:	74 e8       	ldi	r23, 0x84	; 132
    62b4:	8e e1       	ldi	r24, 0x1E	; 30
    62b6:	90 e0       	ldi	r25, 0x00	; 0
    62b8:	0e 94 e1 00 	call	0x1c2	; 0x1c2 <_Z8syncWaitm>
				//presun figurku na pozici 5. hraciho pole z pozice 31
			}
			if (B == TL2_1)
    62bc:	20 91 09 04 	lds	r18, 0x0409
    62c0:	30 91 0a 04 	lds	r19, 0x040A
    62c4:	80 91 73 04 	lds	r24, 0x0473
    62c8:	90 91 74 04 	lds	r25, 0x0474
    62cc:	28 17       	cp	r18, r24
    62ce:	39 07       	cpc	r19, r25
    62d0:	81 f4       	brne	.+32     	; 0x62f2 <_Z20kalkulace_tahu_robotv+0x5cc>
			{
				naber_na_pozici32();
    62d2:	0e 94 59 26 	call	0x4cb2	; 0x4cb2 <_Z17naber_na_pozici32v>
				syncWait(5000000);
    62d6:	60 e4       	ldi	r22, 0x40	; 64
    62d8:	7b e4       	ldi	r23, 0x4B	; 75
    62da:	8c e4       	ldi	r24, 0x4C	; 76
    62dc:	90 e0       	ldi	r25, 0x00	; 0
    62de:	0e 94 e1 00 	call	0x1c2	; 0x1c2 <_Z8syncWaitm>
				vyloz_na_pozici5();
    62e2:	0e 94 b3 2a 	call	0x5566	; 0x5566 <_Z16vyloz_na_pozici5v>
				syncWait(2000000);
    62e6:	60 e8       	ldi	r22, 0x80	; 128
    62e8:	74 e8       	ldi	r23, 0x84	; 132
    62ea:	8e e1       	ldi	r24, 0x1E	; 30
    62ec:	90 e0       	ldi	r25, 0x00	; 0
    62ee:	0e 94 e1 00 	call	0x1c2	; 0x1c2 <_Z8syncWaitm>
				//presun figurku na pozici 5. hraciho pole z pozice 32
			}
			if (B == TL3_1)
    62f2:	20 91 09 04 	lds	r18, 0x0409
    62f6:	30 91 0a 04 	lds	r19, 0x040A
    62fa:	80 91 75 04 	lds	r24, 0x0475
    62fe:	90 91 76 04 	lds	r25, 0x0476
    6302:	28 17       	cp	r18, r24
    6304:	39 07       	cpc	r19, r25
    6306:	81 f4       	brne	.+32     	; 0x6328 <_Z20kalkulace_tahu_robotv+0x602>
			{
				naber_na_pozici1();
    6308:	0e 94 3f 26 	call	0x4c7e	; 0x4c7e <_Z16naber_na_pozici1v>
				syncWait(5000000);
    630c:	60 e4       	ldi	r22, 0x40	; 64
    630e:	7b e4       	ldi	r23, 0x4B	; 75
    6310:	8c e4       	ldi	r24, 0x4C	; 76
    6312:	90 e0       	ldi	r25, 0x00	; 0
    6314:	0e 94 e1 00 	call	0x1c2	; 0x1c2 <_Z8syncWaitm>
				vyloz_na_pozici5();
    6318:	0e 94 b3 2a 	call	0x5566	; 0x5566 <_Z16vyloz_na_pozici5v>
				syncWait(2000000);
    631c:	60 e8       	ldi	r22, 0x80	; 128
    631e:	74 e8       	ldi	r23, 0x84	; 132
    6320:	8e e1       	ldi	r24, 0x1E	; 30
    6322:	90 e0       	ldi	r25, 0x00	; 0
    6324:	0e 94 e1 00 	call	0x1c2	; 0x1c2 <_Z8syncWaitm>
				//presun figurku na pozici 5. hraciho pole z pozice 1
			}
			if (B == TL4_1)
    6328:	20 91 09 04 	lds	r18, 0x0409
    632c:	30 91 0a 04 	lds	r19, 0x040A
    6330:	80 91 77 04 	lds	r24, 0x0477
    6334:	90 91 78 04 	lds	r25, 0x0478
    6338:	28 17       	cp	r18, r24
    633a:	39 07       	cpc	r19, r25
    633c:	81 f4       	brne	.+32     	; 0x635e <_Z20kalkulace_tahu_robotv+0x638>
			{
				naber_na_pozici2();
    633e:	0e 94 25 26 	call	0x4c4a	; 0x4c4a <_Z16naber_na_pozici2v>
				syncWait(5000000);
    6342:	60 e4       	ldi	r22, 0x40	; 64
    6344:	7b e4       	ldi	r23, 0x4B	; 75
    6346:	8c e4       	ldi	r24, 0x4C	; 76
    6348:	90 e0       	ldi	r25, 0x00	; 0
    634a:	0e 94 e1 00 	call	0x1c2	; 0x1c2 <_Z8syncWaitm>
				vyloz_na_pozici5();
    634e:	0e 94 b3 2a 	call	0x5566	; 0x5566 <_Z16vyloz_na_pozici5v>
				syncWait(2000000);
    6352:	60 e8       	ldi	r22, 0x80	; 128
    6354:	74 e8       	ldi	r23, 0x84	; 132
    6356:	8e e1       	ldi	r24, 0x1E	; 30
    6358:	90 e0       	ldi	r25, 0x00	; 0
    635a:	0e 94 e1 00 	call	0x1c2	; 0x1c2 <_Z8syncWaitm>
				//presun figurku na pozici 5. hraciho pole z pozice 2
			}
			if (B == TL5_1)
    635e:	20 91 09 04 	lds	r18, 0x0409
    6362:	30 91 0a 04 	lds	r19, 0x040A
    6366:	80 91 79 04 	lds	r24, 0x0479
    636a:	90 91 7a 04 	lds	r25, 0x047A
    636e:	28 17       	cp	r18, r24
    6370:	39 07       	cpc	r19, r25
    6372:	81 f4       	brne	.+32     	; 0x6394 <_Z20kalkulace_tahu_robotv+0x66e>
			{
				naber_na_pozici3();
    6374:	0e 94 38 2d 	call	0x5a70	; 0x5a70 <_Z16naber_na_pozici3v>
				syncWait(5000000);
    6378:	60 e4       	ldi	r22, 0x40	; 64
    637a:	7b e4       	ldi	r23, 0x4B	; 75
    637c:	8c e4       	ldi	r24, 0x4C	; 76
    637e:	90 e0       	ldi	r25, 0x00	; 0
    6380:	0e 94 e1 00 	call	0x1c2	; 0x1c2 <_Z8syncWaitm>
				vyloz_na_pozici5();
    6384:	0e 94 b3 2a 	call	0x5566	; 0x5566 <_Z16vyloz_na_pozici5v>
				syncWait(2000000);
    6388:	60 e8       	ldi	r22, 0x80	; 128
    638a:	74 e8       	ldi	r23, 0x84	; 132
    638c:	8e e1       	ldi	r24, 0x1E	; 30
    638e:	90 e0       	ldi	r25, 0x00	; 0
    6390:	0e 94 e1 00 	call	0x1c2	; 0x1c2 <_Z8syncWaitm>
				//presun figurku na pozici 5. hraciho pole z pozice 3
			}
			if (B == TL6_1)
    6394:	20 91 09 04 	lds	r18, 0x0409
    6398:	30 91 0a 04 	lds	r19, 0x040A
    639c:	80 91 7b 04 	lds	r24, 0x047B
    63a0:	90 91 7c 04 	lds	r25, 0x047C
    63a4:	28 17       	cp	r18, r24
    63a6:	39 07       	cpc	r19, r25
    63a8:	81 f4       	brne	.+32     	; 0x63ca <_Z20kalkulace_tahu_robotv+0x6a4>
			{
				naber_na_pozici4();
    63aa:	0e 94 1e 2d 	call	0x5a3c	; 0x5a3c <_Z16naber_na_pozici4v>
				syncWait(5000000);
    63ae:	60 e4       	ldi	r22, 0x40	; 64
    63b0:	7b e4       	ldi	r23, 0x4B	; 75
    63b2:	8c e4       	ldi	r24, 0x4C	; 76
    63b4:	90 e0       	ldi	r25, 0x00	; 0
    63b6:	0e 94 e1 00 	call	0x1c2	; 0x1c2 <_Z8syncWaitm>
				vyloz_na_pozici5();
    63ba:	0e 94 b3 2a 	call	0x5566	; 0x5566 <_Z16vyloz_na_pozici5v>
				syncWait(2000000);
    63be:	60 e8       	ldi	r22, 0x80	; 128
    63c0:	74 e8       	ldi	r23, 0x84	; 132
    63c2:	8e e1       	ldi	r24, 0x1E	; 30
    63c4:	90 e0       	ldi	r25, 0x00	; 0
    63c6:	0e 94 e1 00 	call	0x1c2	; 0x1c2 <_Z8syncWaitm>
				//presun figurku na pozici 5. hraciho pole z pozice 4
			}

		}
	}
	if (A == 8)
    63ca:	80 91 07 04 	lds	r24, 0x0407
    63ce:	90 91 08 04 	lds	r25, 0x0408
    63d2:	08 97       	sbiw	r24, 0x08	; 8
    63d4:	09 f0       	breq	.+2      	; 0x63d8 <_Z20kalkulace_tahu_robotv+0x6b2>
    63d6:	df c0       	rjmp	.+446    	; 0x6596 <_Z20kalkulace_tahu_robotv+0x870>
	{
		if(A == TL8_1)
    63d8:	80 91 7f 04 	lds	r24, 0x047F
    63dc:	90 91 80 04 	lds	r25, 0x0480
    63e0:	08 97       	sbiw	r24, 0x08	; 8
    63e2:	09 f0       	breq	.+2      	; 0x63e6 <_Z20kalkulace_tahu_robotv+0x6c0>
    63e4:	d8 c0       	rjmp	.+432    	; 0x6596 <_Z20kalkulace_tahu_robotv+0x870>
		{
			if (B == TL0_1)
    63e6:	20 91 09 04 	lds	r18, 0x0409
    63ea:	30 91 0a 04 	lds	r19, 0x040A
    63ee:	80 91 6f 04 	lds	r24, 0x046F
    63f2:	90 91 70 04 	lds	r25, 0x0470
    63f6:	28 17       	cp	r18, r24
    63f8:	39 07       	cpc	r19, r25
    63fa:	81 f4       	brne	.+32     	; 0x641c <_Z20kalkulace_tahu_robotv+0x6f6>
			{
				naber_na_pozici30();
    63fc:	0e 94 8d 26 	call	0x4d1a	; 0x4d1a <_Z17naber_na_pozici30v>
				syncWait(5000000);
    6400:	60 e4       	ldi	r22, 0x40	; 64
    6402:	7b e4       	ldi	r23, 0x4B	; 75
    6404:	8c e4       	ldi	r24, 0x4C	; 76
    6406:	90 e0       	ldi	r25, 0x00	; 0
    6408:	0e 94 e1 00 	call	0x1c2	; 0x1c2 <_Z8syncWaitm>
				vyloz_na_pozici6();
    640c:	0e 94 99 2a 	call	0x5532	; 0x5532 <_Z16vyloz_na_pozici6v>
				syncWait(2000000);
    6410:	60 e8       	ldi	r22, 0x80	; 128
    6412:	74 e8       	ldi	r23, 0x84	; 132
    6414:	8e e1       	ldi	r24, 0x1E	; 30
    6416:	90 e0       	ldi	r25, 0x00	; 0
    6418:	0e 94 e1 00 	call	0x1c2	; 0x1c2 <_Z8syncWaitm>
				//presun figurku na pozici 6. hraciho pole z pozice 30
			}
			if (B == TL1_1)
    641c:	20 91 09 04 	lds	r18, 0x0409
    6420:	30 91 0a 04 	lds	r19, 0x040A
    6424:	80 91 71 04 	lds	r24, 0x0471
    6428:	90 91 72 04 	lds	r25, 0x0472
    642c:	28 17       	cp	r18, r24
    642e:	39 07       	cpc	r19, r25
    6430:	81 f4       	brne	.+32     	; 0x6452 <_Z20kalkulace_tahu_robotv+0x72c>
			{
				naber_na_pozici31();
    6432:	0e 94 73 26 	call	0x4ce6	; 0x4ce6 <_Z17naber_na_pozici31v>
				syncWait(5000000);
    6436:	60 e4       	ldi	r22, 0x40	; 64
    6438:	7b e4       	ldi	r23, 0x4B	; 75
    643a:	8c e4       	ldi	r24, 0x4C	; 76
    643c:	90 e0       	ldi	r25, 0x00	; 0
    643e:	0e 94 e1 00 	call	0x1c2	; 0x1c2 <_Z8syncWaitm>
				vyloz_na_pozici6();
    6442:	0e 94 99 2a 	call	0x5532	; 0x5532 <_Z16vyloz_na_pozici6v>
				syncWait(2000000);
    6446:	60 e8       	ldi	r22, 0x80	; 128
    6448:	74 e8       	ldi	r23, 0x84	; 132
    644a:	8e e1       	ldi	r24, 0x1E	; 30
    644c:	90 e0       	ldi	r25, 0x00	; 0
    644e:	0e 94 e1 00 	call	0x1c2	; 0x1c2 <_Z8syncWaitm>
				//presun figurku na pozici 6. hraciho pole z pozice 31
			}
			if (B == TL2_1)
    6452:	20 91 09 04 	lds	r18, 0x0409
    6456:	30 91 0a 04 	lds	r19, 0x040A
    645a:	80 91 73 04 	lds	r24, 0x0473
    645e:	90 91 74 04 	lds	r25, 0x0474
    6462:	28 17       	cp	r18, r24
    6464:	39 07       	cpc	r19, r25
    6466:	81 f4       	brne	.+32     	; 0x6488 <_Z20kalkulace_tahu_robotv+0x762>
			{
				naber_na_pozici32();
    6468:	0e 94 59 26 	call	0x4cb2	; 0x4cb2 <_Z17naber_na_pozici32v>
				syncWait(5000000);
    646c:	60 e4       	ldi	r22, 0x40	; 64
    646e:	7b e4       	ldi	r23, 0x4B	; 75
    6470:	8c e4       	ldi	r24, 0x4C	; 76
    6472:	90 e0       	ldi	r25, 0x00	; 0
    6474:	0e 94 e1 00 	call	0x1c2	; 0x1c2 <_Z8syncWaitm>
				vyloz_na_pozici6();
    6478:	0e 94 99 2a 	call	0x5532	; 0x5532 <_Z16vyloz_na_pozici6v>
				syncWait(2000000);
    647c:	60 e8       	ldi	r22, 0x80	; 128
    647e:	74 e8       	ldi	r23, 0x84	; 132
    6480:	8e e1       	ldi	r24, 0x1E	; 30
    6482:	90 e0       	ldi	r25, 0x00	; 0
    6484:	0e 94 e1 00 	call	0x1c2	; 0x1c2 <_Z8syncWaitm>
				//presun figurku na pozici 6. hraciho pole z pozice 32
			}
			if (B == TL3_1)
    6488:	20 91 09 04 	lds	r18, 0x0409
    648c:	30 91 0a 04 	lds	r19, 0x040A
    6490:	80 91 75 04 	lds	r24, 0x0475
    6494:	90 91 76 04 	lds	r25, 0x0476
    6498:	28 17       	cp	r18, r24
    649a:	39 07       	cpc	r19, r25
    649c:	81 f4       	brne	.+32     	; 0x64be <_Z20kalkulace_tahu_robotv+0x798>
			{
				naber_na_pozici1();
    649e:	0e 94 3f 26 	call	0x4c7e	; 0x4c7e <_Z16naber_na_pozici1v>
				syncWait(5000000);
    64a2:	60 e4       	ldi	r22, 0x40	; 64
    64a4:	7b e4       	ldi	r23, 0x4B	; 75
    64a6:	8c e4       	ldi	r24, 0x4C	; 76
    64a8:	90 e0       	ldi	r25, 0x00	; 0
    64aa:	0e 94 e1 00 	call	0x1c2	; 0x1c2 <_Z8syncWaitm>
				vyloz_na_pozici6();
    64ae:	0e 94 99 2a 	call	0x5532	; 0x5532 <_Z16vyloz_na_pozici6v>
				syncWait(2000000);
    64b2:	60 e8       	ldi	r22, 0x80	; 128
    64b4:	74 e8       	ldi	r23, 0x84	; 132
    64b6:	8e e1       	ldi	r24, 0x1E	; 30
    64b8:	90 e0       	ldi	r25, 0x00	; 0
    64ba:	0e 94 e1 00 	call	0x1c2	; 0x1c2 <_Z8syncWaitm>
				//presun figurku na pozici 6. hraciho pole z pozice 1
			}
			if (B == TL4_1)
    64be:	20 91 09 04 	lds	r18, 0x0409
    64c2:	30 91 0a 04 	lds	r19, 0x040A
    64c6:	80 91 77 04 	lds	r24, 0x0477
    64ca:	90 91 78 04 	lds	r25, 0x0478
    64ce:	28 17       	cp	r18, r24
    64d0:	39 07       	cpc	r19, r25
    64d2:	81 f4       	brne	.+32     	; 0x64f4 <_Z20kalkulace_tahu_robotv+0x7ce>
			{
				naber_na_pozici2();
    64d4:	0e 94 25 26 	call	0x4c4a	; 0x4c4a <_Z16naber_na_pozici2v>
				syncWait(5000000);
    64d8:	60 e4       	ldi	r22, 0x40	; 64
    64da:	7b e4       	ldi	r23, 0x4B	; 75
    64dc:	8c e4       	ldi	r24, 0x4C	; 76
    64de:	90 e0       	ldi	r25, 0x00	; 0
    64e0:	0e 94 e1 00 	call	0x1c2	; 0x1c2 <_Z8syncWaitm>
				vyloz_na_pozici6();
    64e4:	0e 94 99 2a 	call	0x5532	; 0x5532 <_Z16vyloz_na_pozici6v>
				syncWait(2000000);
    64e8:	60 e8       	ldi	r22, 0x80	; 128
    64ea:	74 e8       	ldi	r23, 0x84	; 132
    64ec:	8e e1       	ldi	r24, 0x1E	; 30
    64ee:	90 e0       	ldi	r25, 0x00	; 0
    64f0:	0e 94 e1 00 	call	0x1c2	; 0x1c2 <_Z8syncWaitm>
				//presun figurku na pozici 6. hraciho pole z pozice 2
			}
			if (B == TL5_1)
    64f4:	20 91 09 04 	lds	r18, 0x0409
    64f8:	30 91 0a 04 	lds	r19, 0x040A
    64fc:	80 91 79 04 	lds	r24, 0x0479
    6500:	90 91 7a 04 	lds	r25, 0x047A
    6504:	28 17       	cp	r18, r24
    6506:	39 07       	cpc	r19, r25
    6508:	81 f4       	brne	.+32     	; 0x652a <_Z20kalkulace_tahu_robotv+0x804>
			{
				naber_na_pozici3();
    650a:	0e 94 38 2d 	call	0x5a70	; 0x5a70 <_Z16naber_na_pozici3v>
				syncWait(2000000);
    650e:	60 e8       	ldi	r22, 0x80	; 128
    6510:	74 e8       	ldi	r23, 0x84	; 132
    6512:	8e e1       	ldi	r24, 0x1E	; 30
    6514:	90 e0       	ldi	r25, 0x00	; 0
    6516:	0e 94 e1 00 	call	0x1c2	; 0x1c2 <_Z8syncWaitm>
				vyloz_na_pozici6();
    651a:	0e 94 99 2a 	call	0x5532	; 0x5532 <_Z16vyloz_na_pozici6v>
				syncWait(2000000);
    651e:	60 e8       	ldi	r22, 0x80	; 128
    6520:	74 e8       	ldi	r23, 0x84	; 132
    6522:	8e e1       	ldi	r24, 0x1E	; 30
    6524:	90 e0       	ldi	r25, 0x00	; 0
    6526:	0e 94 e1 00 	call	0x1c2	; 0x1c2 <_Z8syncWaitm>
				//presun figurku na pozici 6. hraciho pole z pozice 3
			}
			if (B == TL6_1)
    652a:	20 91 09 04 	lds	r18, 0x0409
    652e:	30 91 0a 04 	lds	r19, 0x040A
    6532:	80 91 7b 04 	lds	r24, 0x047B
    6536:	90 91 7c 04 	lds	r25, 0x047C
    653a:	28 17       	cp	r18, r24
    653c:	39 07       	cpc	r19, r25
    653e:	81 f4       	brne	.+32     	; 0x6560 <_Z20kalkulace_tahu_robotv+0x83a>
			{
				naber_na_pozici4();
    6540:	0e 94 1e 2d 	call	0x5a3c	; 0x5a3c <_Z16naber_na_pozici4v>
				syncWait(2000000);
    6544:	60 e8       	ldi	r22, 0x80	; 128
    6546:	74 e8       	ldi	r23, 0x84	; 132
    6548:	8e e1       	ldi	r24, 0x1E	; 30
    654a:	90 e0       	ldi	r25, 0x00	; 0
    654c:	0e 94 e1 00 	call	0x1c2	; 0x1c2 <_Z8syncWaitm>
				vyloz_na_pozici6();
    6550:	0e 94 99 2a 	call	0x5532	; 0x5532 <_Z16vyloz_na_pozici6v>
				syncWait(2000000);
    6554:	60 e8       	ldi	r22, 0x80	; 128
    6556:	74 e8       	ldi	r23, 0x84	; 132
    6558:	8e e1       	ldi	r24, 0x1E	; 30
    655a:	90 e0       	ldi	r25, 0x00	; 0
    655c:	0e 94 e1 00 	call	0x1c2	; 0x1c2 <_Z8syncWaitm>
				//presun figurku na pozici 6. hraciho pole z pozice 4
			}
			if (B == TL7_1)
    6560:	20 91 09 04 	lds	r18, 0x0409
    6564:	30 91 0a 04 	lds	r19, 0x040A
    6568:	80 91 7d 04 	lds	r24, 0x047D
    656c:	90 91 7e 04 	lds	r25, 0x047E
    6570:	28 17       	cp	r18, r24
    6572:	39 07       	cpc	r19, r25
    6574:	81 f4       	brne	.+32     	; 0x6596 <_Z20kalkulace_tahu_robotv+0x870>
			{
				naber_na_pozici5();
    6576:	0e 94 04 2d 	call	0x5a08	; 0x5a08 <_Z16naber_na_pozici5v>
				syncWait(2000000);
    657a:	60 e8       	ldi	r22, 0x80	; 128
    657c:	74 e8       	ldi	r23, 0x84	; 132
    657e:	8e e1       	ldi	r24, 0x1E	; 30
    6580:	90 e0       	ldi	r25, 0x00	; 0
    6582:	0e 94 e1 00 	call	0x1c2	; 0x1c2 <_Z8syncWaitm>
				vyloz_na_pozici6();
    6586:	0e 94 99 2a 	call	0x5532	; 0x5532 <_Z16vyloz_na_pozici6v>
				syncWait(2000000);
    658a:	60 e8       	ldi	r22, 0x80	; 128
    658c:	74 e8       	ldi	r23, 0x84	; 132
    658e:	8e e1       	ldi	r24, 0x1E	; 30
    6590:	90 e0       	ldi	r25, 0x00	; 0
    6592:	0e 94 e1 00 	call	0x1c2	; 0x1c2 <_Z8syncWaitm>
				//presun figurku na pozici 6. hraciho pole z pozice 5
			}
		}
	}
	if (A == 9)
    6596:	80 91 07 04 	lds	r24, 0x0407
    659a:	90 91 08 04 	lds	r25, 0x0408
    659e:	09 97       	sbiw	r24, 0x09	; 9
    65a0:	09 f0       	breq	.+2      	; 0x65a4 <_Z20kalkulace_tahu_robotv+0x87e>
    65a2:	fa c0       	rjmp	.+500    	; 0x6798 <_Z20kalkulace_tahu_robotv+0xa72>
	{
		if(A == TL9_1)
    65a4:	80 91 81 04 	lds	r24, 0x0481
    65a8:	90 91 82 04 	lds	r25, 0x0482
    65ac:	09 97       	sbiw	r24, 0x09	; 9
    65ae:	09 f0       	breq	.+2      	; 0x65b2 <_Z20kalkulace_tahu_robotv+0x88c>
    65b0:	f3 c0       	rjmp	.+486    	; 0x6798 <_Z20kalkulace_tahu_robotv+0xa72>
		{
			if (B == TL0_1)
    65b2:	20 91 09 04 	lds	r18, 0x0409
    65b6:	30 91 0a 04 	lds	r19, 0x040A
    65ba:	80 91 6f 04 	lds	r24, 0x046F
    65be:	90 91 70 04 	lds	r25, 0x0470
    65c2:	28 17       	cp	r18, r24
    65c4:	39 07       	cpc	r19, r25
    65c6:	81 f4       	brne	.+32     	; 0x65e8 <_Z20kalkulace_tahu_robotv+0x8c2>
			{
				naber_na_pozici30();
    65c8:	0e 94 8d 26 	call	0x4d1a	; 0x4d1a <_Z17naber_na_pozici30v>
				syncWait(5000000);
    65cc:	60 e4       	ldi	r22, 0x40	; 64
    65ce:	7b e4       	ldi	r23, 0x4B	; 75
    65d0:	8c e4       	ldi	r24, 0x4C	; 76
    65d2:	90 e0       	ldi	r25, 0x00	; 0
    65d4:	0e 94 e1 00 	call	0x1c2	; 0x1c2 <_Z8syncWaitm>
				vyloz_na_pozici7();
    65d8:	0e 94 7f 2a 	call	0x54fe	; 0x54fe <_Z16vyloz_na_pozici7v>
				syncWait(2000000);
    65dc:	60 e8       	ldi	r22, 0x80	; 128
    65de:	74 e8       	ldi	r23, 0x84	; 132
    65e0:	8e e1       	ldi	r24, 0x1E	; 30
    65e2:	90 e0       	ldi	r25, 0x00	; 0
    65e4:	0e 94 e1 00 	call	0x1c2	; 0x1c2 <_Z8syncWaitm>
				//presun figurku na pozici 7. hraciho pole z pozice 30
			}
			if (B == TL1_1)
    65e8:	20 91 09 04 	lds	r18, 0x0409
    65ec:	30 91 0a 04 	lds	r19, 0x040A
    65f0:	80 91 71 04 	lds	r24, 0x0471
    65f4:	90 91 72 04 	lds	r25, 0x0472
    65f8:	28 17       	cp	r18, r24
    65fa:	39 07       	cpc	r19, r25
    65fc:	81 f4       	brne	.+32     	; 0x661e <_Z20kalkulace_tahu_robotv+0x8f8>
			{
				naber_na_pozici31();
    65fe:	0e 94 73 26 	call	0x4ce6	; 0x4ce6 <_Z17naber_na_pozici31v>
				syncWait(5000000);
    6602:	60 e4       	ldi	r22, 0x40	; 64
    6604:	7b e4       	ldi	r23, 0x4B	; 75
    6606:	8c e4       	ldi	r24, 0x4C	; 76
    6608:	90 e0       	ldi	r25, 0x00	; 0
    660a:	0e 94 e1 00 	call	0x1c2	; 0x1c2 <_Z8syncWaitm>
				vyloz_na_pozici7();
    660e:	0e 94 7f 2a 	call	0x54fe	; 0x54fe <_Z16vyloz_na_pozici7v>
				syncWait(2000000);
    6612:	60 e8       	ldi	r22, 0x80	; 128
    6614:	74 e8       	ldi	r23, 0x84	; 132
    6616:	8e e1       	ldi	r24, 0x1E	; 30
    6618:	90 e0       	ldi	r25, 0x00	; 0
    661a:	0e 94 e1 00 	call	0x1c2	; 0x1c2 <_Z8syncWaitm>
				//presun figurku na pozici 7. hraciho pole z pozice 31
			}
			if (B == TL2_1)
    661e:	20 91 09 04 	lds	r18, 0x0409
    6622:	30 91 0a 04 	lds	r19, 0x040A
    6626:	80 91 73 04 	lds	r24, 0x0473
    662a:	90 91 74 04 	lds	r25, 0x0474
    662e:	28 17       	cp	r18, r24
    6630:	39 07       	cpc	r19, r25
    6632:	81 f4       	brne	.+32     	; 0x6654 <_Z20kalkulace_tahu_robotv+0x92e>
			{
				naber_na_pozici32();
    6634:	0e 94 59 26 	call	0x4cb2	; 0x4cb2 <_Z17naber_na_pozici32v>
				syncWait(5000000);
    6638:	60 e4       	ldi	r22, 0x40	; 64
    663a:	7b e4       	ldi	r23, 0x4B	; 75
    663c:	8c e4       	ldi	r24, 0x4C	; 76
    663e:	90 e0       	ldi	r25, 0x00	; 0
    6640:	0e 94 e1 00 	call	0x1c2	; 0x1c2 <_Z8syncWaitm>
				vyloz_na_pozici7();
    6644:	0e 94 7f 2a 	call	0x54fe	; 0x54fe <_Z16vyloz_na_pozici7v>
				syncWait(2000000);
    6648:	60 e8       	ldi	r22, 0x80	; 128
    664a:	74 e8       	ldi	r23, 0x84	; 132
    664c:	8e e1       	ldi	r24, 0x1E	; 30
    664e:	90 e0       	ldi	r25, 0x00	; 0
    6650:	0e 94 e1 00 	call	0x1c2	; 0x1c2 <_Z8syncWaitm>
				//presun figurku na pozici 7. hraciho pole z pozice 32
			}
			if (B == TL3_1)
    6654:	20 91 09 04 	lds	r18, 0x0409
    6658:	30 91 0a 04 	lds	r19, 0x040A
    665c:	80 91 75 04 	lds	r24, 0x0475
    6660:	90 91 76 04 	lds	r25, 0x0476
    6664:	28 17       	cp	r18, r24
    6666:	39 07       	cpc	r19, r25
    6668:	81 f4       	brne	.+32     	; 0x668a <_Z20kalkulace_tahu_robotv+0x964>
			{
				naber_na_pozici1();
    666a:	0e 94 3f 26 	call	0x4c7e	; 0x4c7e <_Z16naber_na_pozici1v>
				syncWait(5000000);
    666e:	60 e4       	ldi	r22, 0x40	; 64
    6670:	7b e4       	ldi	r23, 0x4B	; 75
    6672:	8c e4       	ldi	r24, 0x4C	; 76
    6674:	90 e0       	ldi	r25, 0x00	; 0
    6676:	0e 94 e1 00 	call	0x1c2	; 0x1c2 <_Z8syncWaitm>
				vyloz_na_pozici7();
    667a:	0e 94 7f 2a 	call	0x54fe	; 0x54fe <_Z16vyloz_na_pozici7v>
				syncWait(2000000);
    667e:	60 e8       	ldi	r22, 0x80	; 128
    6680:	74 e8       	ldi	r23, 0x84	; 132
    6682:	8e e1       	ldi	r24, 0x1E	; 30
    6684:	90 e0       	ldi	r25, 0x00	; 0
    6686:	0e 94 e1 00 	call	0x1c2	; 0x1c2 <_Z8syncWaitm>
				//presun figurku na pozici 7. hraciho pole z pozice 1
			}
			if (B == TL4_1)
    668a:	20 91 09 04 	lds	r18, 0x0409
    668e:	30 91 0a 04 	lds	r19, 0x040A
    6692:	80 91 77 04 	lds	r24, 0x0477
    6696:	90 91 78 04 	lds	r25, 0x0478
    669a:	28 17       	cp	r18, r24
    669c:	39 07       	cpc	r19, r25
    669e:	81 f4       	brne	.+32     	; 0x66c0 <_Z20kalkulace_tahu_robotv+0x99a>
			{
				naber_na_pozici2();
    66a0:	0e 94 25 26 	call	0x4c4a	; 0x4c4a <_Z16naber_na_pozici2v>
				syncWait(5000000);
    66a4:	60 e4       	ldi	r22, 0x40	; 64
    66a6:	7b e4       	ldi	r23, 0x4B	; 75
    66a8:	8c e4       	ldi	r24, 0x4C	; 76
    66aa:	90 e0       	ldi	r25, 0x00	; 0
    66ac:	0e 94 e1 00 	call	0x1c2	; 0x1c2 <_Z8syncWaitm>
				vyloz_na_pozici7();
    66b0:	0e 94 7f 2a 	call	0x54fe	; 0x54fe <_Z16vyloz_na_pozici7v>
				syncWait(2000000);
    66b4:	60 e8       	ldi	r22, 0x80	; 128
    66b6:	74 e8       	ldi	r23, 0x84	; 132
    66b8:	8e e1       	ldi	r24, 0x1E	; 30
    66ba:	90 e0       	ldi	r25, 0x00	; 0
    66bc:	0e 94 e1 00 	call	0x1c2	; 0x1c2 <_Z8syncWaitm>
				//presun figurku na pozici 7. hraciho pole z pozice 2
			}
			if (B == TL5_1)
    66c0:	20 91 09 04 	lds	r18, 0x0409
    66c4:	30 91 0a 04 	lds	r19, 0x040A
    66c8:	80 91 79 04 	lds	r24, 0x0479
    66cc:	90 91 7a 04 	lds	r25, 0x047A
    66d0:	28 17       	cp	r18, r24
    66d2:	39 07       	cpc	r19, r25
    66d4:	81 f4       	brne	.+32     	; 0x66f6 <_Z20kalkulace_tahu_robotv+0x9d0>
			{
				naber_na_pozici3();
    66d6:	0e 94 38 2d 	call	0x5a70	; 0x5a70 <_Z16naber_na_pozici3v>
				syncWait(2000000);
    66da:	60 e8       	ldi	r22, 0x80	; 128
    66dc:	74 e8       	ldi	r23, 0x84	; 132
    66de:	8e e1       	ldi	r24, 0x1E	; 30
    66e0:	90 e0       	ldi	r25, 0x00	; 0
    66e2:	0e 94 e1 00 	call	0x1c2	; 0x1c2 <_Z8syncWaitm>
				vyloz_na_pozici7();
    66e6:	0e 94 7f 2a 	call	0x54fe	; 0x54fe <_Z16vyloz_na_pozici7v>
				syncWait(2000000);
    66ea:	60 e8       	ldi	r22, 0x80	; 128
    66ec:	74 e8       	ldi	r23, 0x84	; 132
    66ee:	8e e1       	ldi	r24, 0x1E	; 30
    66f0:	90 e0       	ldi	r25, 0x00	; 0
    66f2:	0e 94 e1 00 	call	0x1c2	; 0x1c2 <_Z8syncWaitm>
				//presun figurku na pozici 7. hraciho pole z pozice 3
			}
			if (B == TL6_1)
    66f6:	20 91 09 04 	lds	r18, 0x0409
    66fa:	30 91 0a 04 	lds	r19, 0x040A
    66fe:	80 91 7b 04 	lds	r24, 0x047B
    6702:	90 91 7c 04 	lds	r25, 0x047C
    6706:	28 17       	cp	r18, r24
    6708:	39 07       	cpc	r19, r25
    670a:	81 f4       	brne	.+32     	; 0x672c <_Z20kalkulace_tahu_robotv+0xa06>
			{
				naber_na_pozici4();
    670c:	0e 94 1e 2d 	call	0x5a3c	; 0x5a3c <_Z16naber_na_pozici4v>
				syncWait(2000000);
    6710:	60 e8       	ldi	r22, 0x80	; 128
    6712:	74 e8       	ldi	r23, 0x84	; 132
    6714:	8e e1       	ldi	r24, 0x1E	; 30
    6716:	90 e0       	ldi	r25, 0x00	; 0
    6718:	0e 94 e1 00 	call	0x1c2	; 0x1c2 <_Z8syncWaitm>
				vyloz_na_pozici7();
    671c:	0e 94 7f 2a 	call	0x54fe	; 0x54fe <_Z16vyloz_na_pozici7v>
				syncWait(2000000);
    6720:	60 e8       	ldi	r22, 0x80	; 128
    6722:	74 e8       	ldi	r23, 0x84	; 132
    6724:	8e e1       	ldi	r24, 0x1E	; 30
    6726:	90 e0       	ldi	r25, 0x00	; 0
    6728:	0e 94 e1 00 	call	0x1c2	; 0x1c2 <_Z8syncWaitm>
				//presun figurku na pozici 7. hraciho pole z pozice 4
			}
			if (B == TL7_1)
    672c:	20 91 09 04 	lds	r18, 0x0409
    6730:	30 91 0a 04 	lds	r19, 0x040A
    6734:	80 91 7d 04 	lds	r24, 0x047D
    6738:	90 91 7e 04 	lds	r25, 0x047E
    673c:	28 17       	cp	r18, r24
    673e:	39 07       	cpc	r19, r25
    6740:	81 f4       	brne	.+32     	; 0x6762 <_Z20kalkulace_tahu_robotv+0xa3c>
			{
				naber_na_pozici5();
    6742:	0e 94 04 2d 	call	0x5a08	; 0x5a08 <_Z16naber_na_pozici5v>
				syncWait(2000000);
    6746:	60 e8       	ldi	r22, 0x80	; 128
    6748:	74 e8       	ldi	r23, 0x84	; 132
    674a:	8e e1       	ldi	r24, 0x1E	; 30
    674c:	90 e0       	ldi	r25, 0x00	; 0
    674e:	0e 94 e1 00 	call	0x1c2	; 0x1c2 <_Z8syncWaitm>
				vyloz_na_pozici7();
    6752:	0e 94 7f 2a 	call	0x54fe	; 0x54fe <_Z16vyloz_na_pozici7v>
				syncWait(2000000);
    6756:	60 e8       	ldi	r22, 0x80	; 128
    6758:	74 e8       	ldi	r23, 0x84	; 132
    675a:	8e e1       	ldi	r24, 0x1E	; 30
    675c:	90 e0       	ldi	r25, 0x00	; 0
    675e:	0e 94 e1 00 	call	0x1c2	; 0x1c2 <_Z8syncWaitm>
				//presun figurku na pozici 7. hraciho pole z pozice 5
			}
			if (B == TL8_1)
    6762:	20 91 09 04 	lds	r18, 0x0409
    6766:	30 91 0a 04 	lds	r19, 0x040A
    676a:	80 91 7f 04 	lds	r24, 0x047F
    676e:	90 91 80 04 	lds	r25, 0x0480
    6772:	28 17       	cp	r18, r24
    6774:	39 07       	cpc	r19, r25
    6776:	81 f4       	brne	.+32     	; 0x6798 <_Z20kalkulace_tahu_robotv+0xa72>
			{
				naber_na_pozici6();
    6778:	0e 94 ea 2c 	call	0x59d4	; 0x59d4 <_Z16naber_na_pozici6v>
				syncWait(2000000);
    677c:	60 e8       	ldi	r22, 0x80	; 128
    677e:	74 e8       	ldi	r23, 0x84	; 132
    6780:	8e e1       	ldi	r24, 0x1E	; 30
    6782:	90 e0       	ldi	r25, 0x00	; 0
    6784:	0e 94 e1 00 	call	0x1c2	; 0x1c2 <_Z8syncWaitm>
				vyloz_na_pozici7();
    6788:	0e 94 7f 2a 	call	0x54fe	; 0x54fe <_Z16vyloz_na_pozici7v>
				syncWait(2000000);
    678c:	60 e8       	ldi	r22, 0x80	; 128
    678e:	74 e8       	ldi	r23, 0x84	; 132
    6790:	8e e1       	ldi	r24, 0x1E	; 30
    6792:	90 e0       	ldi	r25, 0x00	; 0
    6794:	0e 94 e1 00 	call	0x1c2	; 0x1c2 <_Z8syncWaitm>
				//presun figurku na pozici 7. hraciho pole z pozice 6
			}
		}
	}
	if (A == 10)
    6798:	80 91 07 04 	lds	r24, 0x0407
    679c:	90 91 08 04 	lds	r25, 0x0408
    67a0:	0a 97       	sbiw	r24, 0x0a	; 10
    67a2:	09 f0       	breq	.+2      	; 0x67a6 <_Z20kalkulace_tahu_robotv+0xa80>
    67a4:	15 c1       	rjmp	.+554    	; 0x69d0 <_Z20kalkulace_tahu_robotv+0xcaa>
	{
		if(A == TL10_1)
    67a6:	80 91 83 04 	lds	r24, 0x0483
    67aa:	90 91 84 04 	lds	r25, 0x0484
    67ae:	0a 97       	sbiw	r24, 0x0a	; 10
    67b0:	09 f0       	breq	.+2      	; 0x67b4 <_Z20kalkulace_tahu_robotv+0xa8e>
    67b2:	0e c1       	rjmp	.+540    	; 0x69d0 <_Z20kalkulace_tahu_robotv+0xcaa>
		{
			if (B == TL0_1)
    67b4:	20 91 09 04 	lds	r18, 0x0409
    67b8:	30 91 0a 04 	lds	r19, 0x040A
    67bc:	80 91 6f 04 	lds	r24, 0x046F
    67c0:	90 91 70 04 	lds	r25, 0x0470
    67c4:	28 17       	cp	r18, r24
    67c6:	39 07       	cpc	r19, r25
    67c8:	81 f4       	brne	.+32     	; 0x67ea <_Z20kalkulace_tahu_robotv+0xac4>
			{
				naber_na_pozici30();
    67ca:	0e 94 8d 26 	call	0x4d1a	; 0x4d1a <_Z17naber_na_pozici30v>
				syncWait(5000000);
    67ce:	60 e4       	ldi	r22, 0x40	; 64
    67d0:	7b e4       	ldi	r23, 0x4B	; 75
    67d2:	8c e4       	ldi	r24, 0x4C	; 76
    67d4:	90 e0       	ldi	r25, 0x00	; 0
    67d6:	0e 94 e1 00 	call	0x1c2	; 0x1c2 <_Z8syncWaitm>
				vyloz_na_pozici8();
    67da:	0e 94 f3 23 	call	0x47e6	; 0x47e6 <_Z16vyloz_na_pozici8v>
				syncWait(5000000);
    67de:	60 e4       	ldi	r22, 0x40	; 64
    67e0:	7b e4       	ldi	r23, 0x4B	; 75
    67e2:	8c e4       	ldi	r24, 0x4C	; 76
    67e4:	90 e0       	ldi	r25, 0x00	; 0
    67e6:	0e 94 e1 00 	call	0x1c2	; 0x1c2 <_Z8syncWaitm>
				//presun figurku na pozici 8. hraciho pole z pozice 30
			}
			if (B == TL1_1)
    67ea:	20 91 09 04 	lds	r18, 0x0409
    67ee:	30 91 0a 04 	lds	r19, 0x040A
    67f2:	80 91 71 04 	lds	r24, 0x0471
    67f6:	90 91 72 04 	lds	r25, 0x0472
    67fa:	28 17       	cp	r18, r24
    67fc:	39 07       	cpc	r19, r25
    67fe:	81 f4       	brne	.+32     	; 0x6820 <_Z20kalkulace_tahu_robotv+0xafa>
			{
				naber_na_pozici31();
    6800:	0e 94 73 26 	call	0x4ce6	; 0x4ce6 <_Z17naber_na_pozici31v>
				syncWait(5000000);
    6804:	60 e4       	ldi	r22, 0x40	; 64
    6806:	7b e4       	ldi	r23, 0x4B	; 75
    6808:	8c e4       	ldi	r24, 0x4C	; 76
    680a:	90 e0       	ldi	r25, 0x00	; 0
    680c:	0e 94 e1 00 	call	0x1c2	; 0x1c2 <_Z8syncWaitm>
				vyloz_na_pozici8();
    6810:	0e 94 f3 23 	call	0x47e6	; 0x47e6 <_Z16vyloz_na_pozici8v>
				syncWait(5000000);
    6814:	60 e4       	ldi	r22, 0x40	; 64
    6816:	7b e4       	ldi	r23, 0x4B	; 75
    6818:	8c e4       	ldi	r24, 0x4C	; 76
    681a:	90 e0       	ldi	r25, 0x00	; 0
    681c:	0e 94 e1 00 	call	0x1c2	; 0x1c2 <_Z8syncWaitm>
				//presun figurku na pozici 8. hraciho pole z pozice 31
			}
			if (B == TL2_1)
    6820:	20 91 09 04 	lds	r18, 0x0409
    6824:	30 91 0a 04 	lds	r19, 0x040A
    6828:	80 91 73 04 	lds	r24, 0x0473
    682c:	90 91 74 04 	lds	r25, 0x0474
    6830:	28 17       	cp	r18, r24
    6832:	39 07       	cpc	r19, r25
    6834:	81 f4       	brne	.+32     	; 0x6856 <_Z20kalkulace_tahu_robotv+0xb30>
			{
				naber_na_pozici32();
    6836:	0e 94 59 26 	call	0x4cb2	; 0x4cb2 <_Z17naber_na_pozici32v>
				syncWait(5000000);
    683a:	60 e4       	ldi	r22, 0x40	; 64
    683c:	7b e4       	ldi	r23, 0x4B	; 75
    683e:	8c e4       	ldi	r24, 0x4C	; 76
    6840:	90 e0       	ldi	r25, 0x00	; 0
    6842:	0e 94 e1 00 	call	0x1c2	; 0x1c2 <_Z8syncWaitm>
				vyloz_na_pozici8();
    6846:	0e 94 f3 23 	call	0x47e6	; 0x47e6 <_Z16vyloz_na_pozici8v>
				syncWait(5000000);
    684a:	60 e4       	ldi	r22, 0x40	; 64
    684c:	7b e4       	ldi	r23, 0x4B	; 75
    684e:	8c e4       	ldi	r24, 0x4C	; 76
    6850:	90 e0       	ldi	r25, 0x00	; 0
    6852:	0e 94 e1 00 	call	0x1c2	; 0x1c2 <_Z8syncWaitm>
				//presun figurku na pozici 8. hraciho pole z pozice 32
			}
			if (B == TL3_1)
    6856:	20 91 09 04 	lds	r18, 0x0409
    685a:	30 91 0a 04 	lds	r19, 0x040A
    685e:	80 91 75 04 	lds	r24, 0x0475
    6862:	90 91 76 04 	lds	r25, 0x0476
    6866:	28 17       	cp	r18, r24
    6868:	39 07       	cpc	r19, r25
    686a:	81 f4       	brne	.+32     	; 0x688c <_Z20kalkulace_tahu_robotv+0xb66>
			{
				naber_na_pozici1();
    686c:	0e 94 3f 26 	call	0x4c7e	; 0x4c7e <_Z16naber_na_pozici1v>
				syncWait(5000000);
    6870:	60 e4       	ldi	r22, 0x40	; 64
    6872:	7b e4       	ldi	r23, 0x4B	; 75
    6874:	8c e4       	ldi	r24, 0x4C	; 76
    6876:	90 e0       	ldi	r25, 0x00	; 0
    6878:	0e 94 e1 00 	call	0x1c2	; 0x1c2 <_Z8syncWaitm>
				vyloz_na_pozici8();
    687c:	0e 94 f3 23 	call	0x47e6	; 0x47e6 <_Z16vyloz_na_pozici8v>
				syncWait(5000000);
    6880:	60 e4       	ldi	r22, 0x40	; 64
    6882:	7b e4       	ldi	r23, 0x4B	; 75
    6884:	8c e4       	ldi	r24, 0x4C	; 76
    6886:	90 e0       	ldi	r25, 0x00	; 0
    6888:	0e 94 e1 00 	call	0x1c2	; 0x1c2 <_Z8syncWaitm>
				//presun figurku na pozici 8. hraciho pole z pozice 1
			}
			if (B == TL4_1)
    688c:	20 91 09 04 	lds	r18, 0x0409
    6890:	30 91 0a 04 	lds	r19, 0x040A
    6894:	80 91 77 04 	lds	r24, 0x0477
    6898:	90 91 78 04 	lds	r25, 0x0478
    689c:	28 17       	cp	r18, r24
    689e:	39 07       	cpc	r19, r25
    68a0:	81 f4       	brne	.+32     	; 0x68c2 <_Z20kalkulace_tahu_robotv+0xb9c>
			{
				naber_na_pozici2();
    68a2:	0e 94 25 26 	call	0x4c4a	; 0x4c4a <_Z16naber_na_pozici2v>
				syncWait(5000000);
    68a6:	60 e4       	ldi	r22, 0x40	; 64
    68a8:	7b e4       	ldi	r23, 0x4B	; 75
    68aa:	8c e4       	ldi	r24, 0x4C	; 76
    68ac:	90 e0       	ldi	r25, 0x00	; 0
    68ae:	0e 94 e1 00 	call	0x1c2	; 0x1c2 <_Z8syncWaitm>
				vyloz_na_pozici8();
    68b2:	0e 94 f3 23 	call	0x47e6	; 0x47e6 <_Z16vyloz_na_pozici8v>
				syncWait(5000000);
    68b6:	60 e4       	ldi	r22, 0x40	; 64
    68b8:	7b e4       	ldi	r23, 0x4B	; 75
    68ba:	8c e4       	ldi	r24, 0x4C	; 76
    68bc:	90 e0       	ldi	r25, 0x00	; 0
    68be:	0e 94 e1 00 	call	0x1c2	; 0x1c2 <_Z8syncWaitm>
				//presun figurku na pozici 8. hraciho pole z pozice 2
			}
			if (B == TL5_1)
    68c2:	20 91 09 04 	lds	r18, 0x0409
    68c6:	30 91 0a 04 	lds	r19, 0x040A
    68ca:	80 91 79 04 	lds	r24, 0x0479
    68ce:	90 91 7a 04 	lds	r25, 0x047A
    68d2:	28 17       	cp	r18, r24
    68d4:	39 07       	cpc	r19, r25
    68d6:	81 f4       	brne	.+32     	; 0x68f8 <_Z20kalkulace_tahu_robotv+0xbd2>
			{
				naber_na_pozici3();
    68d8:	0e 94 38 2d 	call	0x5a70	; 0x5a70 <_Z16naber_na_pozici3v>
				syncWait(2000000);
    68dc:	60 e8       	ldi	r22, 0x80	; 128
    68de:	74 e8       	ldi	r23, 0x84	; 132
    68e0:	8e e1       	ldi	r24, 0x1E	; 30
    68e2:	90 e0       	ldi	r25, 0x00	; 0
    68e4:	0e 94 e1 00 	call	0x1c2	; 0x1c2 <_Z8syncWaitm>
				vyloz_na_pozici8();
    68e8:	0e 94 f3 23 	call	0x47e6	; 0x47e6 <_Z16vyloz_na_pozici8v>
				syncWait(2000000);
    68ec:	60 e8       	ldi	r22, 0x80	; 128
    68ee:	74 e8       	ldi	r23, 0x84	; 132
    68f0:	8e e1       	ldi	r24, 0x1E	; 30
    68f2:	90 e0       	ldi	r25, 0x00	; 0
    68f4:	0e 94 e1 00 	call	0x1c2	; 0x1c2 <_Z8syncWaitm>
				//presun figurku na pozici 8. hraciho pole z pozice 3
			}
			if (B == TL6_1)
    68f8:	20 91 09 04 	lds	r18, 0x0409
    68fc:	30 91 0a 04 	lds	r19, 0x040A
    6900:	80 91 7b 04 	lds	r24, 0x047B
    6904:	90 91 7c 04 	lds	r25, 0x047C
    6908:	28 17       	cp	r18, r24
    690a:	39 07       	cpc	r19, r25
    690c:	81 f4       	brne	.+32     	; 0x692e <_Z20kalkulace_tahu_robotv+0xc08>
			{
				naber_na_pozici4();
    690e:	0e 94 1e 2d 	call	0x5a3c	; 0x5a3c <_Z16naber_na_pozici4v>
				syncWait(2000000);
    6912:	60 e8       	ldi	r22, 0x80	; 128
    6914:	74 e8       	ldi	r23, 0x84	; 132
    6916:	8e e1       	ldi	r24, 0x1E	; 30
    6918:	90 e0       	ldi	r25, 0x00	; 0
    691a:	0e 94 e1 00 	call	0x1c2	; 0x1c2 <_Z8syncWaitm>
				vyloz_na_pozici8();
    691e:	0e 94 f3 23 	call	0x47e6	; 0x47e6 <_Z16vyloz_na_pozici8v>
				syncWait(2000000);
    6922:	60 e8       	ldi	r22, 0x80	; 128
    6924:	74 e8       	ldi	r23, 0x84	; 132
    6926:	8e e1       	ldi	r24, 0x1E	; 30
    6928:	90 e0       	ldi	r25, 0x00	; 0
    692a:	0e 94 e1 00 	call	0x1c2	; 0x1c2 <_Z8syncWaitm>
				//presun figurku na pozici 8. hraciho pole z pozice 4
			}
			if (B == TL7_1)
    692e:	20 91 09 04 	lds	r18, 0x0409
    6932:	30 91 0a 04 	lds	r19, 0x040A
    6936:	80 91 7d 04 	lds	r24, 0x047D
    693a:	90 91 7e 04 	lds	r25, 0x047E
    693e:	28 17       	cp	r18, r24
    6940:	39 07       	cpc	r19, r25
    6942:	81 f4       	brne	.+32     	; 0x6964 <_Z20kalkulace_tahu_robotv+0xc3e>
			{
				naber_na_pozici5();
    6944:	0e 94 04 2d 	call	0x5a08	; 0x5a08 <_Z16naber_na_pozici5v>
				syncWait(2000000);
    6948:	60 e8       	ldi	r22, 0x80	; 128
    694a:	74 e8       	ldi	r23, 0x84	; 132
    694c:	8e e1       	ldi	r24, 0x1E	; 30
    694e:	90 e0       	ldi	r25, 0x00	; 0
    6950:	0e 94 e1 00 	call	0x1c2	; 0x1c2 <_Z8syncWaitm>
				vyloz_na_pozici8();
    6954:	0e 94 f3 23 	call	0x47e6	; 0x47e6 <_Z16vyloz_na_pozici8v>
				syncWait(2000000);
    6958:	60 e8       	ldi	r22, 0x80	; 128
    695a:	74 e8       	ldi	r23, 0x84	; 132
    695c:	8e e1       	ldi	r24, 0x1E	; 30
    695e:	90 e0       	ldi	r25, 0x00	; 0
    6960:	0e 94 e1 00 	call	0x1c2	; 0x1c2 <_Z8syncWaitm>
				//presun figurku na pozici 8. hraciho pole z pozice 5
			}
			if (B == TL8_1)
    6964:	20 91 09 04 	lds	r18, 0x0409
    6968:	30 91 0a 04 	lds	r19, 0x040A
    696c:	80 91 7f 04 	lds	r24, 0x047F
    6970:	90 91 80 04 	lds	r25, 0x0480
    6974:	28 17       	cp	r18, r24
    6976:	39 07       	cpc	r19, r25
    6978:	81 f4       	brne	.+32     	; 0x699a <_Z20kalkulace_tahu_robotv+0xc74>
			{
				naber_na_pozici6();
    697a:	0e 94 ea 2c 	call	0x59d4	; 0x59d4 <_Z16naber_na_pozici6v>
				syncWait(5000000);
    697e:	60 e4       	ldi	r22, 0x40	; 64
    6980:	7b e4       	ldi	r23, 0x4B	; 75
    6982:	8c e4       	ldi	r24, 0x4C	; 76
    6984:	90 e0       	ldi	r25, 0x00	; 0
    6986:	0e 94 e1 00 	call	0x1c2	; 0x1c2 <_Z8syncWaitm>
				vyloz_na_pozici8();
    698a:	0e 94 f3 23 	call	0x47e6	; 0x47e6 <_Z16vyloz_na_pozici8v>
				syncWait(2000000);
    698e:	60 e8       	ldi	r22, 0x80	; 128
    6990:	74 e8       	ldi	r23, 0x84	; 132
    6992:	8e e1       	ldi	r24, 0x1E	; 30
    6994:	90 e0       	ldi	r25, 0x00	; 0
    6996:	0e 94 e1 00 	call	0x1c2	; 0x1c2 <_Z8syncWaitm>
				//presun figurku na pozici 8. hraciho pole z pozice 6
			}
			if (B == TL9_1)
    699a:	20 91 09 04 	lds	r18, 0x0409
    699e:	30 91 0a 04 	lds	r19, 0x040A
    69a2:	80 91 81 04 	lds	r24, 0x0481
    69a6:	90 91 82 04 	lds	r25, 0x0482
    69aa:	28 17       	cp	r18, r24
    69ac:	39 07       	cpc	r19, r25
    69ae:	81 f4       	brne	.+32     	; 0x69d0 <_Z20kalkulace_tahu_robotv+0xcaa>
			{
				naber_na_pozici7();
    69b0:	0e 94 d0 2c 	call	0x59a0	; 0x59a0 <_Z16naber_na_pozici7v>
				syncWait(5000000);
    69b4:	60 e4       	ldi	r22, 0x40	; 64
    69b6:	7b e4       	ldi	r23, 0x4B	; 75
    69b8:	8c e4       	ldi	r24, 0x4C	; 76
    69ba:	90 e0       	ldi	r25, 0x00	; 0
    69bc:	0e 94 e1 00 	call	0x1c2	; 0x1c2 <_Z8syncWaitm>
				vyloz_na_pozici8();
    69c0:	0e 94 f3 23 	call	0x47e6	; 0x47e6 <_Z16vyloz_na_pozici8v>
				syncWait(2000000);
    69c4:	60 e8       	ldi	r22, 0x80	; 128
    69c6:	74 e8       	ldi	r23, 0x84	; 132
    69c8:	8e e1       	ldi	r24, 0x1E	; 30
    69ca:	90 e0       	ldi	r25, 0x00	; 0
    69cc:	0e 94 e1 00 	call	0x1c2	; 0x1c2 <_Z8syncWaitm>
				//presun figurku na pozici 8. hraciho pole z pozice 7
			}
		}
	}
	if (A == 11)
    69d0:	80 91 07 04 	lds	r24, 0x0407
    69d4:	90 91 08 04 	lds	r25, 0x0408
    69d8:	0b 97       	sbiw	r24, 0x0b	; 11
    69da:	09 f0       	breq	.+2      	; 0x69de <_Z20kalkulace_tahu_robotv+0xcb8>
    69dc:	30 c1       	rjmp	.+608    	; 0x6c3e <_Z20kalkulace_tahu_robotv+0xf18>
	{
		if(A == TL11_1)
    69de:	80 91 85 04 	lds	r24, 0x0485
    69e2:	90 91 86 04 	lds	r25, 0x0486
    69e6:	0b 97       	sbiw	r24, 0x0b	; 11
    69e8:	09 f0       	breq	.+2      	; 0x69ec <_Z20kalkulace_tahu_robotv+0xcc6>
    69ea:	29 c1       	rjmp	.+594    	; 0x6c3e <_Z20kalkulace_tahu_robotv+0xf18>
		{
			if (B == TL0_1)
    69ec:	20 91 09 04 	lds	r18, 0x0409
    69f0:	30 91 0a 04 	lds	r19, 0x040A
    69f4:	80 91 6f 04 	lds	r24, 0x046F
    69f8:	90 91 70 04 	lds	r25, 0x0470
    69fc:	28 17       	cp	r18, r24
    69fe:	39 07       	cpc	r19, r25
    6a00:	81 f4       	brne	.+32     	; 0x6a22 <_Z20kalkulace_tahu_robotv+0xcfc>
			{
				naber_na_pozici30();
    6a02:	0e 94 8d 26 	call	0x4d1a	; 0x4d1a <_Z17naber_na_pozici30v>
				syncWait(5000000);
    6a06:	60 e4       	ldi	r22, 0x40	; 64
    6a08:	7b e4       	ldi	r23, 0x4B	; 75
    6a0a:	8c e4       	ldi	r24, 0x4C	; 76
    6a0c:	90 e0       	ldi	r25, 0x00	; 0
    6a0e:	0e 94 e1 00 	call	0x1c2	; 0x1c2 <_Z8syncWaitm>
				vyloz_na_pozici9();
    6a12:	0e 94 d9 23 	call	0x47b2	; 0x47b2 <_Z16vyloz_na_pozici9v>
				syncWait(5000000);
    6a16:	60 e4       	ldi	r22, 0x40	; 64
    6a18:	7b e4       	ldi	r23, 0x4B	; 75
    6a1a:	8c e4       	ldi	r24, 0x4C	; 76
    6a1c:	90 e0       	ldi	r25, 0x00	; 0
    6a1e:	0e 94 e1 00 	call	0x1c2	; 0x1c2 <_Z8syncWaitm>
				//presun figurku na pozici 9. hraciho pole z pozice 30
			}
			if (B == TL1_1)
    6a22:	20 91 09 04 	lds	r18, 0x0409
    6a26:	30 91 0a 04 	lds	r19, 0x040A
    6a2a:	80 91 71 04 	lds	r24, 0x0471
    6a2e:	90 91 72 04 	lds	r25, 0x0472
    6a32:	28 17       	cp	r18, r24
    6a34:	39 07       	cpc	r19, r25
    6a36:	81 f4       	brne	.+32     	; 0x6a58 <_Z20kalkulace_tahu_robotv+0xd32>
			{
				naber_na_pozici31();
    6a38:	0e 94 73 26 	call	0x4ce6	; 0x4ce6 <_Z17naber_na_pozici31v>
				syncWait(5000000);
    6a3c:	60 e4       	ldi	r22, 0x40	; 64
    6a3e:	7b e4       	ldi	r23, 0x4B	; 75
    6a40:	8c e4       	ldi	r24, 0x4C	; 76
    6a42:	90 e0       	ldi	r25, 0x00	; 0
    6a44:	0e 94 e1 00 	call	0x1c2	; 0x1c2 <_Z8syncWaitm>
				vyloz_na_pozici9();
    6a48:	0e 94 d9 23 	call	0x47b2	; 0x47b2 <_Z16vyloz_na_pozici9v>
				syncWait(5000000);
    6a4c:	60 e4       	ldi	r22, 0x40	; 64
    6a4e:	7b e4       	ldi	r23, 0x4B	; 75
    6a50:	8c e4       	ldi	r24, 0x4C	; 76
    6a52:	90 e0       	ldi	r25, 0x00	; 0
    6a54:	0e 94 e1 00 	call	0x1c2	; 0x1c2 <_Z8syncWaitm>
				//presun figurku na pozici 9. hraciho pole z pozice 31
			}
			if (B == TL2_1)
    6a58:	20 91 09 04 	lds	r18, 0x0409
    6a5c:	30 91 0a 04 	lds	r19, 0x040A
    6a60:	80 91 73 04 	lds	r24, 0x0473
    6a64:	90 91 74 04 	lds	r25, 0x0474
    6a68:	28 17       	cp	r18, r24
    6a6a:	39 07       	cpc	r19, r25
    6a6c:	81 f4       	brne	.+32     	; 0x6a8e <_Z20kalkulace_tahu_robotv+0xd68>
			{
				naber_na_pozici32();
    6a6e:	0e 94 59 26 	call	0x4cb2	; 0x4cb2 <_Z17naber_na_pozici32v>
				syncWait(5000000);
    6a72:	60 e4       	ldi	r22, 0x40	; 64
    6a74:	7b e4       	ldi	r23, 0x4B	; 75
    6a76:	8c e4       	ldi	r24, 0x4C	; 76
    6a78:	90 e0       	ldi	r25, 0x00	; 0
    6a7a:	0e 94 e1 00 	call	0x1c2	; 0x1c2 <_Z8syncWaitm>
				vyloz_na_pozici9();
    6a7e:	0e 94 d9 23 	call	0x47b2	; 0x47b2 <_Z16vyloz_na_pozici9v>
				syncWait(2000000);
    6a82:	60 e8       	ldi	r22, 0x80	; 128
    6a84:	74 e8       	ldi	r23, 0x84	; 132
    6a86:	8e e1       	ldi	r24, 0x1E	; 30
    6a88:	90 e0       	ldi	r25, 0x00	; 0
    6a8a:	0e 94 e1 00 	call	0x1c2	; 0x1c2 <_Z8syncWaitm>
				//presun figurku na pozici 9. hraciho pole z pozice 32
			}
			if (B == TL3_1)
    6a8e:	20 91 09 04 	lds	r18, 0x0409
    6a92:	30 91 0a 04 	lds	r19, 0x040A
    6a96:	80 91 75 04 	lds	r24, 0x0475
    6a9a:	90 91 76 04 	lds	r25, 0x0476
    6a9e:	28 17       	cp	r18, r24
    6aa0:	39 07       	cpc	r19, r25
    6aa2:	81 f4       	brne	.+32     	; 0x6ac4 <_Z20kalkulace_tahu_robotv+0xd9e>
			{
				naber_na_pozici1();
    6aa4:	0e 94 3f 26 	call	0x4c7e	; 0x4c7e <_Z16naber_na_pozici1v>
				syncWait(5000000);
    6aa8:	60 e4       	ldi	r22, 0x40	; 64
    6aaa:	7b e4       	ldi	r23, 0x4B	; 75
    6aac:	8c e4       	ldi	r24, 0x4C	; 76
    6aae:	90 e0       	ldi	r25, 0x00	; 0
    6ab0:	0e 94 e1 00 	call	0x1c2	; 0x1c2 <_Z8syncWaitm>
				vyloz_na_pozici9();
    6ab4:	0e 94 d9 23 	call	0x47b2	; 0x47b2 <_Z16vyloz_na_pozici9v>
				syncWait(2000000);
    6ab8:	60 e8       	ldi	r22, 0x80	; 128
    6aba:	74 e8       	ldi	r23, 0x84	; 132
    6abc:	8e e1       	ldi	r24, 0x1E	; 30
    6abe:	90 e0       	ldi	r25, 0x00	; 0
    6ac0:	0e 94 e1 00 	call	0x1c2	; 0x1c2 <_Z8syncWaitm>
				//presun figurku na pozici 9. hraciho pole z pozice 1
			}
			if (B == TL4_1)
    6ac4:	20 91 09 04 	lds	r18, 0x0409
    6ac8:	30 91 0a 04 	lds	r19, 0x040A
    6acc:	80 91 77 04 	lds	r24, 0x0477
    6ad0:	90 91 78 04 	lds	r25, 0x0478
    6ad4:	28 17       	cp	r18, r24
    6ad6:	39 07       	cpc	r19, r25
    6ad8:	81 f4       	brne	.+32     	; 0x6afa <_Z20kalkulace_tahu_robotv+0xdd4>
			{
				naber_na_pozici2();
    6ada:	0e 94 25 26 	call	0x4c4a	; 0x4c4a <_Z16naber_na_pozici2v>
				syncWait(5000000);
    6ade:	60 e4       	ldi	r22, 0x40	; 64
    6ae0:	7b e4       	ldi	r23, 0x4B	; 75
    6ae2:	8c e4       	ldi	r24, 0x4C	; 76
    6ae4:	90 e0       	ldi	r25, 0x00	; 0
    6ae6:	0e 94 e1 00 	call	0x1c2	; 0x1c2 <_Z8syncWaitm>
				vyloz_na_pozici9();
    6aea:	0e 94 d9 23 	call	0x47b2	; 0x47b2 <_Z16vyloz_na_pozici9v>
				syncWait(2000000);
    6aee:	60 e8       	ldi	r22, 0x80	; 128
    6af0:	74 e8       	ldi	r23, 0x84	; 132
    6af2:	8e e1       	ldi	r24, 0x1E	; 30
    6af4:	90 e0       	ldi	r25, 0x00	; 0
    6af6:	0e 94 e1 00 	call	0x1c2	; 0x1c2 <_Z8syncWaitm>
				//presun figurku na pozici 9. hraciho pole z pozice 2
			}
			if (B == TL5_1)
    6afa:	20 91 09 04 	lds	r18, 0x0409
    6afe:	30 91 0a 04 	lds	r19, 0x040A
    6b02:	80 91 79 04 	lds	r24, 0x0479
    6b06:	90 91 7a 04 	lds	r25, 0x047A
    6b0a:	28 17       	cp	r18, r24
    6b0c:	39 07       	cpc	r19, r25
    6b0e:	81 f4       	brne	.+32     	; 0x6b30 <_Z20kalkulace_tahu_robotv+0xe0a>
			{
				naber_na_pozici3();
    6b10:	0e 94 38 2d 	call	0x5a70	; 0x5a70 <_Z16naber_na_pozici3v>
				syncWait(5000000);
    6b14:	60 e4       	ldi	r22, 0x40	; 64
    6b16:	7b e4       	ldi	r23, 0x4B	; 75
    6b18:	8c e4       	ldi	r24, 0x4C	; 76
    6b1a:	90 e0       	ldi	r25, 0x00	; 0
    6b1c:	0e 94 e1 00 	call	0x1c2	; 0x1c2 <_Z8syncWaitm>
				vyloz_na_pozici9();
    6b20:	0e 94 d9 23 	call	0x47b2	; 0x47b2 <_Z16vyloz_na_pozici9v>
				syncWait(2000000);
    6b24:	60 e8       	ldi	r22, 0x80	; 128
    6b26:	74 e8       	ldi	r23, 0x84	; 132
    6b28:	8e e1       	ldi	r24, 0x1E	; 30
    6b2a:	90 e0       	ldi	r25, 0x00	; 0
    6b2c:	0e 94 e1 00 	call	0x1c2	; 0x1c2 <_Z8syncWaitm>
				//presun figurku na pozici 9. hraciho pole z pozice 3
			}
			if (B == TL6_1)
    6b30:	20 91 09 04 	lds	r18, 0x0409
    6b34:	30 91 0a 04 	lds	r19, 0x040A
    6b38:	80 91 7b 04 	lds	r24, 0x047B
    6b3c:	90 91 7c 04 	lds	r25, 0x047C
    6b40:	28 17       	cp	r18, r24
    6b42:	39 07       	cpc	r19, r25
    6b44:	81 f4       	brne	.+32     	; 0x6b66 <_Z20kalkulace_tahu_robotv+0xe40>
			{
				naber_na_pozici4();
    6b46:	0e 94 1e 2d 	call	0x5a3c	; 0x5a3c <_Z16naber_na_pozici4v>
				syncWait(5000000);
    6b4a:	60 e4       	ldi	r22, 0x40	; 64
    6b4c:	7b e4       	ldi	r23, 0x4B	; 75
    6b4e:	8c e4       	ldi	r24, 0x4C	; 76
    6b50:	90 e0       	ldi	r25, 0x00	; 0
    6b52:	0e 94 e1 00 	call	0x1c2	; 0x1c2 <_Z8syncWaitm>
				vyloz_na_pozici9();
    6b56:	0e 94 d9 23 	call	0x47b2	; 0x47b2 <_Z16vyloz_na_pozici9v>
				syncWait(2000000);
    6b5a:	60 e8       	ldi	r22, 0x80	; 128
    6b5c:	74 e8       	ldi	r23, 0x84	; 132
    6b5e:	8e e1       	ldi	r24, 0x1E	; 30
    6b60:	90 e0       	ldi	r25, 0x00	; 0
    6b62:	0e 94 e1 00 	call	0x1c2	; 0x1c2 <_Z8syncWaitm>
				//presun figurku na pozici 9. hraciho pole z pozice 4
			}
			if (B == TL7_1)
    6b66:	20 91 09 04 	lds	r18, 0x0409
    6b6a:	30 91 0a 04 	lds	r19, 0x040A
    6b6e:	80 91 7d 04 	lds	r24, 0x047D
    6b72:	90 91 7e 04 	lds	r25, 0x047E
    6b76:	28 17       	cp	r18, r24
    6b78:	39 07       	cpc	r19, r25
    6b7a:	81 f4       	brne	.+32     	; 0x6b9c <_Z20kalkulace_tahu_robotv+0xe76>
			{
				naber_na_pozici5();
    6b7c:	0e 94 04 2d 	call	0x5a08	; 0x5a08 <_Z16naber_na_pozici5v>
				syncWait(5000000);
    6b80:	60 e4       	ldi	r22, 0x40	; 64
    6b82:	7b e4       	ldi	r23, 0x4B	; 75
    6b84:	8c e4       	ldi	r24, 0x4C	; 76
    6b86:	90 e0       	ldi	r25, 0x00	; 0
    6b88:	0e 94 e1 00 	call	0x1c2	; 0x1c2 <_Z8syncWaitm>
				vyloz_na_pozici9();
    6b8c:	0e 94 d9 23 	call	0x47b2	; 0x47b2 <_Z16vyloz_na_pozici9v>
				syncWait(2000000);
    6b90:	60 e8       	ldi	r22, 0x80	; 128
    6b92:	74 e8       	ldi	r23, 0x84	; 132
    6b94:	8e e1       	ldi	r24, 0x1E	; 30
    6b96:	90 e0       	ldi	r25, 0x00	; 0
    6b98:	0e 94 e1 00 	call	0x1c2	; 0x1c2 <_Z8syncWaitm>
				//presun figurku na pozici 9. hraciho pole z pozice 5
			}
			if (B == TL8_1)
    6b9c:	20 91 09 04 	lds	r18, 0x0409
    6ba0:	30 91 0a 04 	lds	r19, 0x040A
    6ba4:	80 91 7f 04 	lds	r24, 0x047F
    6ba8:	90 91 80 04 	lds	r25, 0x0480
    6bac:	28 17       	cp	r18, r24
    6bae:	39 07       	cpc	r19, r25
    6bb0:	81 f4       	brne	.+32     	; 0x6bd2 <_Z20kalkulace_tahu_robotv+0xeac>
			{
				naber_na_pozici6();
    6bb2:	0e 94 ea 2c 	call	0x59d4	; 0x59d4 <_Z16naber_na_pozici6v>
				syncWait(5000000);
    6bb6:	60 e4       	ldi	r22, 0x40	; 64
    6bb8:	7b e4       	ldi	r23, 0x4B	; 75
    6bba:	8c e4       	ldi	r24, 0x4C	; 76
    6bbc:	90 e0       	ldi	r25, 0x00	; 0
    6bbe:	0e 94 e1 00 	call	0x1c2	; 0x1c2 <_Z8syncWaitm>
				vyloz_na_pozici9();
    6bc2:	0e 94 d9 23 	call	0x47b2	; 0x47b2 <_Z16vyloz_na_pozici9v>
				syncWait(2000000);
    6bc6:	60 e8       	ldi	r22, 0x80	; 128
    6bc8:	74 e8       	ldi	r23, 0x84	; 132
    6bca:	8e e1       	ldi	r24, 0x1E	; 30
    6bcc:	90 e0       	ldi	r25, 0x00	; 0
    6bce:	0e 94 e1 00 	call	0x1c2	; 0x1c2 <_Z8syncWaitm>
				//presun figurku na pozici 9. hraciho pole z pozice 6
			}
			if (B == TL9_1)
    6bd2:	20 91 09 04 	lds	r18, 0x0409
    6bd6:	30 91 0a 04 	lds	r19, 0x040A
    6bda:	80 91 81 04 	lds	r24, 0x0481
    6bde:	90 91 82 04 	lds	r25, 0x0482
    6be2:	28 17       	cp	r18, r24
    6be4:	39 07       	cpc	r19, r25
    6be6:	81 f4       	brne	.+32     	; 0x6c08 <_Z20kalkulace_tahu_robotv+0xee2>
			{
				naber_na_pozici7();
    6be8:	0e 94 d0 2c 	call	0x59a0	; 0x59a0 <_Z16naber_na_pozici7v>
				syncWait(2000000);
    6bec:	60 e8       	ldi	r22, 0x80	; 128
    6bee:	74 e8       	ldi	r23, 0x84	; 132
    6bf0:	8e e1       	ldi	r24, 0x1E	; 30
    6bf2:	90 e0       	ldi	r25, 0x00	; 0
    6bf4:	0e 94 e1 00 	call	0x1c2	; 0x1c2 <_Z8syncWaitm>
				vyloz_na_pozici9();
    6bf8:	0e 94 d9 23 	call	0x47b2	; 0x47b2 <_Z16vyloz_na_pozici9v>
				syncWait(2000000);
    6bfc:	60 e8       	ldi	r22, 0x80	; 128
    6bfe:	74 e8       	ldi	r23, 0x84	; 132
    6c00:	8e e1       	ldi	r24, 0x1E	; 30
    6c02:	90 e0       	ldi	r25, 0x00	; 0
    6c04:	0e 94 e1 00 	call	0x1c2	; 0x1c2 <_Z8syncWaitm>
				//presun figurku na pozici 9. hraciho pole z pozice 7
			}
			if (B == TL10_1)
    6c08:	20 91 09 04 	lds	r18, 0x0409
    6c0c:	30 91 0a 04 	lds	r19, 0x040A
    6c10:	80 91 83 04 	lds	r24, 0x0483
    6c14:	90 91 84 04 	lds	r25, 0x0484
    6c18:	28 17       	cp	r18, r24
    6c1a:	39 07       	cpc	r19, r25
    6c1c:	81 f4       	brne	.+32     	; 0x6c3e <_Z20kalkulace_tahu_robotv+0xf18>
			{
				naber_na_pozici8();
    6c1e:	0e 94 e4 28 	call	0x51c8	; 0x51c8 <_Z16naber_na_pozici8v>
				syncWait(5000000);
    6c22:	60 e4       	ldi	r22, 0x40	; 64
    6c24:	7b e4       	ldi	r23, 0x4B	; 75
    6c26:	8c e4       	ldi	r24, 0x4C	; 76
    6c28:	90 e0       	ldi	r25, 0x00	; 0
    6c2a:	0e 94 e1 00 	call	0x1c2	; 0x1c2 <_Z8syncWaitm>
				vyloz_na_pozici9();
    6c2e:	0e 94 d9 23 	call	0x47b2	; 0x47b2 <_Z16vyloz_na_pozici9v>
				syncWait(2000000);
    6c32:	60 e8       	ldi	r22, 0x80	; 128
    6c34:	74 e8       	ldi	r23, 0x84	; 132
    6c36:	8e e1       	ldi	r24, 0x1E	; 30
    6c38:	90 e0       	ldi	r25, 0x00	; 0
    6c3a:	0e 94 e1 00 	call	0x1c2	; 0x1c2 <_Z8syncWaitm>
				//presun figurku na pozici 9. hraciho pole z pozice 8
			}
		}
	}
	if (A == 12)
    6c3e:	80 91 07 04 	lds	r24, 0x0407
    6c42:	90 91 08 04 	lds	r25, 0x0408
    6c46:	0c 97       	sbiw	r24, 0x0c	; 12
    6c48:	09 f0       	breq	.+2      	; 0x6c4c <_Z20kalkulace_tahu_robotv+0xf26>
    6c4a:	15 c1       	rjmp	.+554    	; 0x6e76 <_Z20kalkulace_tahu_robotv+0x1150>
	{
		if(A == TL12_1)
    6c4c:	80 91 87 04 	lds	r24, 0x0487
    6c50:	90 91 88 04 	lds	r25, 0x0488
    6c54:	0c 97       	sbiw	r24, 0x0c	; 12
    6c56:	09 f0       	breq	.+2      	; 0x6c5a <_Z20kalkulace_tahu_robotv+0xf34>
    6c58:	0e c1       	rjmp	.+540    	; 0x6e76 <_Z20kalkulace_tahu_robotv+0x1150>
		{
			if (B == TL0_1)
    6c5a:	20 91 09 04 	lds	r18, 0x0409
    6c5e:	30 91 0a 04 	lds	r19, 0x040A
    6c62:	80 91 6f 04 	lds	r24, 0x046F
    6c66:	90 91 70 04 	lds	r25, 0x0470
    6c6a:	28 17       	cp	r18, r24
    6c6c:	39 07       	cpc	r19, r25
    6c6e:	81 f4       	brne	.+32     	; 0x6c90 <_Z20kalkulace_tahu_robotv+0xf6a>
			{
				naber_na_pozici30();
    6c70:	0e 94 8d 26 	call	0x4d1a	; 0x4d1a <_Z17naber_na_pozici30v>
				syncWait(5000000);
    6c74:	60 e4       	ldi	r22, 0x40	; 64
    6c76:	7b e4       	ldi	r23, 0x4B	; 75
    6c78:	8c e4       	ldi	r24, 0x4C	; 76
    6c7a:	90 e0       	ldi	r25, 0x00	; 0
    6c7c:	0e 94 e1 00 	call	0x1c2	; 0x1c2 <_Z8syncWaitm>
				vyloz_na_pozici10();
    6c80:	0e 94 bf 23 	call	0x477e	; 0x477e <_Z17vyloz_na_pozici10v>
				syncWait(2000000);
    6c84:	60 e8       	ldi	r22, 0x80	; 128
    6c86:	74 e8       	ldi	r23, 0x84	; 132
    6c88:	8e e1       	ldi	r24, 0x1E	; 30
    6c8a:	90 e0       	ldi	r25, 0x00	; 0
    6c8c:	0e 94 e1 00 	call	0x1c2	; 0x1c2 <_Z8syncWaitm>
				//presun figurku na pozici 10. hraciho pole z pozice 30
			}
			if (B == TL1_1)
    6c90:	20 91 09 04 	lds	r18, 0x0409
    6c94:	30 91 0a 04 	lds	r19, 0x040A
    6c98:	80 91 71 04 	lds	r24, 0x0471
    6c9c:	90 91 72 04 	lds	r25, 0x0472
    6ca0:	28 17       	cp	r18, r24
    6ca2:	39 07       	cpc	r19, r25
    6ca4:	81 f4       	brne	.+32     	; 0x6cc6 <_Z20kalkulace_tahu_robotv+0xfa0>
			{
				naber_na_pozici31();
    6ca6:	0e 94 73 26 	call	0x4ce6	; 0x4ce6 <_Z17naber_na_pozici31v>
				syncWait(5000000);
    6caa:	60 e4       	ldi	r22, 0x40	; 64
    6cac:	7b e4       	ldi	r23, 0x4B	; 75
    6cae:	8c e4       	ldi	r24, 0x4C	; 76
    6cb0:	90 e0       	ldi	r25, 0x00	; 0
    6cb2:	0e 94 e1 00 	call	0x1c2	; 0x1c2 <_Z8syncWaitm>
				vyloz_na_pozici10();
    6cb6:	0e 94 bf 23 	call	0x477e	; 0x477e <_Z17vyloz_na_pozici10v>
				syncWait(2000000);
    6cba:	60 e8       	ldi	r22, 0x80	; 128
    6cbc:	74 e8       	ldi	r23, 0x84	; 132
    6cbe:	8e e1       	ldi	r24, 0x1E	; 30
    6cc0:	90 e0       	ldi	r25, 0x00	; 0
    6cc2:	0e 94 e1 00 	call	0x1c2	; 0x1c2 <_Z8syncWaitm>
				//presun figurku na pozici 10. hraciho pole z pozice 31
			}
			if (B == TL2_1)
    6cc6:	20 91 09 04 	lds	r18, 0x0409
    6cca:	30 91 0a 04 	lds	r19, 0x040A
    6cce:	80 91 73 04 	lds	r24, 0x0473
    6cd2:	90 91 74 04 	lds	r25, 0x0474
    6cd6:	28 17       	cp	r18, r24
    6cd8:	39 07       	cpc	r19, r25
    6cda:	81 f4       	brne	.+32     	; 0x6cfc <_Z20kalkulace_tahu_robotv+0xfd6>
			{
				naber_na_pozici32();
    6cdc:	0e 94 59 26 	call	0x4cb2	; 0x4cb2 <_Z17naber_na_pozici32v>
				syncWait(5000000);
    6ce0:	60 e4       	ldi	r22, 0x40	; 64
    6ce2:	7b e4       	ldi	r23, 0x4B	; 75
    6ce4:	8c e4       	ldi	r24, 0x4C	; 76
    6ce6:	90 e0       	ldi	r25, 0x00	; 0
    6ce8:	0e 94 e1 00 	call	0x1c2	; 0x1c2 <_Z8syncWaitm>
				vyloz_na_pozici10();
    6cec:	0e 94 bf 23 	call	0x477e	; 0x477e <_Z17vyloz_na_pozici10v>
				syncWait(5000000);
    6cf0:	60 e4       	ldi	r22, 0x40	; 64
    6cf2:	7b e4       	ldi	r23, 0x4B	; 75
    6cf4:	8c e4       	ldi	r24, 0x4C	; 76
    6cf6:	90 e0       	ldi	r25, 0x00	; 0
    6cf8:	0e 94 e1 00 	call	0x1c2	; 0x1c2 <_Z8syncWaitm>
			}
			if (B == TL4_1)
			{
				//presun figurku na pozici 10. hraciho pole z pozice 2
			}
			if (B == TL5_1)
    6cfc:	20 91 09 04 	lds	r18, 0x0409
    6d00:	30 91 0a 04 	lds	r19, 0x040A
    6d04:	80 91 79 04 	lds	r24, 0x0479
    6d08:	90 91 7a 04 	lds	r25, 0x047A
    6d0c:	28 17       	cp	r18, r24
    6d0e:	39 07       	cpc	r19, r25
    6d10:	81 f4       	brne	.+32     	; 0x6d32 <_Z20kalkulace_tahu_robotv+0x100c>
			{
				naber_na_pozici3();
    6d12:	0e 94 38 2d 	call	0x5a70	; 0x5a70 <_Z16naber_na_pozici3v>
				syncWait(5000000);
    6d16:	60 e4       	ldi	r22, 0x40	; 64
    6d18:	7b e4       	ldi	r23, 0x4B	; 75
    6d1a:	8c e4       	ldi	r24, 0x4C	; 76
    6d1c:	90 e0       	ldi	r25, 0x00	; 0
    6d1e:	0e 94 e1 00 	call	0x1c2	; 0x1c2 <_Z8syncWaitm>
				vyloz_na_pozici10();
    6d22:	0e 94 bf 23 	call	0x477e	; 0x477e <_Z17vyloz_na_pozici10v>
				syncWait(2000000);
    6d26:	60 e8       	ldi	r22, 0x80	; 128
    6d28:	74 e8       	ldi	r23, 0x84	; 132
    6d2a:	8e e1       	ldi	r24, 0x1E	; 30
    6d2c:	90 e0       	ldi	r25, 0x00	; 0
    6d2e:	0e 94 e1 00 	call	0x1c2	; 0x1c2 <_Z8syncWaitm>
				//presun figurku na pozici 10. hraciho pole z pozice 3
			}
			if (B == TL6_1)
    6d32:	20 91 09 04 	lds	r18, 0x0409
    6d36:	30 91 0a 04 	lds	r19, 0x040A
    6d3a:	80 91 7b 04 	lds	r24, 0x047B
    6d3e:	90 91 7c 04 	lds	r25, 0x047C
    6d42:	28 17       	cp	r18, r24
    6d44:	39 07       	cpc	r19, r25
    6d46:	81 f4       	brne	.+32     	; 0x6d68 <_Z20kalkulace_tahu_robotv+0x1042>
			{
				naber_na_pozici4();
    6d48:	0e 94 1e 2d 	call	0x5a3c	; 0x5a3c <_Z16naber_na_pozici4v>
				syncWait(5000000);
    6d4c:	60 e4       	ldi	r22, 0x40	; 64
    6d4e:	7b e4       	ldi	r23, 0x4B	; 75
    6d50:	8c e4       	ldi	r24, 0x4C	; 76
    6d52:	90 e0       	ldi	r25, 0x00	; 0
    6d54:	0e 94 e1 00 	call	0x1c2	; 0x1c2 <_Z8syncWaitm>
				vyloz_na_pozici10();
    6d58:	0e 94 bf 23 	call	0x477e	; 0x477e <_Z17vyloz_na_pozici10v>
				syncWait(2000000);
    6d5c:	60 e8       	ldi	r22, 0x80	; 128
    6d5e:	74 e8       	ldi	r23, 0x84	; 132
    6d60:	8e e1       	ldi	r24, 0x1E	; 30
    6d62:	90 e0       	ldi	r25, 0x00	; 0
    6d64:	0e 94 e1 00 	call	0x1c2	; 0x1c2 <_Z8syncWaitm>
				//presun figurku na pozici 10. hraciho pole z pozice 4
			}
			if (B == TL7_1)
    6d68:	20 91 09 04 	lds	r18, 0x0409
    6d6c:	30 91 0a 04 	lds	r19, 0x040A
    6d70:	80 91 7d 04 	lds	r24, 0x047D
    6d74:	90 91 7e 04 	lds	r25, 0x047E
    6d78:	28 17       	cp	r18, r24
    6d7a:	39 07       	cpc	r19, r25
    6d7c:	81 f4       	brne	.+32     	; 0x6d9e <_Z20kalkulace_tahu_robotv+0x1078>
			{
				naber_na_pozici5();
    6d7e:	0e 94 04 2d 	call	0x5a08	; 0x5a08 <_Z16naber_na_pozici5v>
				syncWait(5000000);
    6d82:	60 e4       	ldi	r22, 0x40	; 64
    6d84:	7b e4       	ldi	r23, 0x4B	; 75
    6d86:	8c e4       	ldi	r24, 0x4C	; 76
    6d88:	90 e0       	ldi	r25, 0x00	; 0
    6d8a:	0e 94 e1 00 	call	0x1c2	; 0x1c2 <_Z8syncWaitm>
				vyloz_na_pozici10();
    6d8e:	0e 94 bf 23 	call	0x477e	; 0x477e <_Z17vyloz_na_pozici10v>
				syncWait(2000000);
    6d92:	60 e8       	ldi	r22, 0x80	; 128
    6d94:	74 e8       	ldi	r23, 0x84	; 132
    6d96:	8e e1       	ldi	r24, 0x1E	; 30
    6d98:	90 e0       	ldi	r25, 0x00	; 0
    6d9a:	0e 94 e1 00 	call	0x1c2	; 0x1c2 <_Z8syncWaitm>
				//presun figurku na pozici 10. hraciho pole z pozice 5
			}
			if (B == TL8_1)
    6d9e:	20 91 09 04 	lds	r18, 0x0409
    6da2:	30 91 0a 04 	lds	r19, 0x040A
    6da6:	80 91 7f 04 	lds	r24, 0x047F
    6daa:	90 91 80 04 	lds	r25, 0x0480
    6dae:	28 17       	cp	r18, r24
    6db0:	39 07       	cpc	r19, r25
    6db2:	81 f4       	brne	.+32     	; 0x6dd4 <_Z20kalkulace_tahu_robotv+0x10ae>
			{
				naber_na_pozici6();
    6db4:	0e 94 ea 2c 	call	0x59d4	; 0x59d4 <_Z16naber_na_pozici6v>
				syncWait(5000000);
    6db8:	60 e4       	ldi	r22, 0x40	; 64
    6dba:	7b e4       	ldi	r23, 0x4B	; 75
    6dbc:	8c e4       	ldi	r24, 0x4C	; 76
    6dbe:	90 e0       	ldi	r25, 0x00	; 0
    6dc0:	0e 94 e1 00 	call	0x1c2	; 0x1c2 <_Z8syncWaitm>
				vyloz_na_pozici10();
    6dc4:	0e 94 bf 23 	call	0x477e	; 0x477e <_Z17vyloz_na_pozici10v>
				syncWait(2000000);
    6dc8:	60 e8       	ldi	r22, 0x80	; 128
    6dca:	74 e8       	ldi	r23, 0x84	; 132
    6dcc:	8e e1       	ldi	r24, 0x1E	; 30
    6dce:	90 e0       	ldi	r25, 0x00	; 0
    6dd0:	0e 94 e1 00 	call	0x1c2	; 0x1c2 <_Z8syncWaitm>
				//presun figurku na pozici 10. hraciho pole z pozice 6
			}
			if (B == TL9_1)
    6dd4:	20 91 09 04 	lds	r18, 0x0409
    6dd8:	30 91 0a 04 	lds	r19, 0x040A
    6ddc:	80 91 81 04 	lds	r24, 0x0481
    6de0:	90 91 82 04 	lds	r25, 0x0482
    6de4:	28 17       	cp	r18, r24
    6de6:	39 07       	cpc	r19, r25
    6de8:	81 f4       	brne	.+32     	; 0x6e0a <_Z20kalkulace_tahu_robotv+0x10e4>
			{
				naber_na_pozici7();
    6dea:	0e 94 d0 2c 	call	0x59a0	; 0x59a0 <_Z16naber_na_pozici7v>
				syncWait(5000000);
    6dee:	60 e4       	ldi	r22, 0x40	; 64
    6df0:	7b e4       	ldi	r23, 0x4B	; 75
    6df2:	8c e4       	ldi	r24, 0x4C	; 76
    6df4:	90 e0       	ldi	r25, 0x00	; 0
    6df6:	0e 94 e1 00 	call	0x1c2	; 0x1c2 <_Z8syncWaitm>
				vyloz_na_pozici10();
    6dfa:	0e 94 bf 23 	call	0x477e	; 0x477e <_Z17vyloz_na_pozici10v>
				syncWait(2000000);
    6dfe:	60 e8       	ldi	r22, 0x80	; 128
    6e00:	74 e8       	ldi	r23, 0x84	; 132
    6e02:	8e e1       	ldi	r24, 0x1E	; 30
    6e04:	90 e0       	ldi	r25, 0x00	; 0
    6e06:	0e 94 e1 00 	call	0x1c2	; 0x1c2 <_Z8syncWaitm>
				//presun figurku na pozici 10. hraciho pole z pozice 7
			}
			if (B == TL10_1)
    6e0a:	20 91 09 04 	lds	r18, 0x0409
    6e0e:	30 91 0a 04 	lds	r19, 0x040A
    6e12:	80 91 83 04 	lds	r24, 0x0483
    6e16:	90 91 84 04 	lds	r25, 0x0484
    6e1a:	28 17       	cp	r18, r24
    6e1c:	39 07       	cpc	r19, r25
    6e1e:	81 f4       	brne	.+32     	; 0x6e40 <_Z20kalkulace_tahu_robotv+0x111a>
			{
				naber_na_pozici8();
    6e20:	0e 94 e4 28 	call	0x51c8	; 0x51c8 <_Z16naber_na_pozici8v>
				syncWait(5000000);
    6e24:	60 e4       	ldi	r22, 0x40	; 64
    6e26:	7b e4       	ldi	r23, 0x4B	; 75
    6e28:	8c e4       	ldi	r24, 0x4C	; 76
    6e2a:	90 e0       	ldi	r25, 0x00	; 0
    6e2c:	0e 94 e1 00 	call	0x1c2	; 0x1c2 <_Z8syncWaitm>
				vyloz_na_pozici10();
    6e30:	0e 94 bf 23 	call	0x477e	; 0x477e <_Z17vyloz_na_pozici10v>
				syncWait(2000000);
    6e34:	60 e8       	ldi	r22, 0x80	; 128
    6e36:	74 e8       	ldi	r23, 0x84	; 132
    6e38:	8e e1       	ldi	r24, 0x1E	; 30
    6e3a:	90 e0       	ldi	r25, 0x00	; 0
    6e3c:	0e 94 e1 00 	call	0x1c2	; 0x1c2 <_Z8syncWaitm>
				//presun figurku na pozici 10. hraciho pole z pozice 8
			}
			if (B == TL11_1)
    6e40:	20 91 09 04 	lds	r18, 0x0409
    6e44:	30 91 0a 04 	lds	r19, 0x040A
    6e48:	80 91 85 04 	lds	r24, 0x0485
    6e4c:	90 91 86 04 	lds	r25, 0x0486
    6e50:	28 17       	cp	r18, r24
    6e52:	39 07       	cpc	r19, r25
    6e54:	81 f4       	brne	.+32     	; 0x6e76 <_Z20kalkulace_tahu_robotv+0x1150>
			{
				naber_na_pozici9();
    6e56:	0e 94 ca 28 	call	0x5194	; 0x5194 <_Z16naber_na_pozici9v>
				syncWait(2000000);
    6e5a:	60 e8       	ldi	r22, 0x80	; 128
    6e5c:	74 e8       	ldi	r23, 0x84	; 132
    6e5e:	8e e1       	ldi	r24, 0x1E	; 30
    6e60:	90 e0       	ldi	r25, 0x00	; 0
    6e62:	0e 94 e1 00 	call	0x1c2	; 0x1c2 <_Z8syncWaitm>
				vyloz_na_pozici10();
    6e66:	0e 94 bf 23 	call	0x477e	; 0x477e <_Z17vyloz_na_pozici10v>
				syncWait(2000000);
    6e6a:	60 e8       	ldi	r22, 0x80	; 128
    6e6c:	74 e8       	ldi	r23, 0x84	; 132
    6e6e:	8e e1       	ldi	r24, 0x1E	; 30
    6e70:	90 e0       	ldi	r25, 0x00	; 0
    6e72:	0e 94 e1 00 	call	0x1c2	; 0x1c2 <_Z8syncWaitm>
				//presun figurku na pozici 10. hraciho pole z pozice 9
			}
		}
	}		
	if (A == 13)
    6e76:	80 91 07 04 	lds	r24, 0x0407
    6e7a:	90 91 08 04 	lds	r25, 0x0408
    6e7e:	0d 97       	sbiw	r24, 0x0d	; 13
    6e80:	09 f0       	breq	.+2      	; 0x6e84 <_Z20kalkulace_tahu_robotv+0x115e>
    6e82:	c4 c0       	rjmp	.+392    	; 0x700c <_Z20kalkulace_tahu_robotv+0x12e6>
	{
		if(A == TL13_1)
    6e84:	80 91 89 04 	lds	r24, 0x0489
    6e88:	90 91 8a 04 	lds	r25, 0x048A
    6e8c:	0d 97       	sbiw	r24, 0x0d	; 13
    6e8e:	09 f0       	breq	.+2      	; 0x6e92 <_Z20kalkulace_tahu_robotv+0x116c>
    6e90:	bd c0       	rjmp	.+378    	; 0x700c <_Z20kalkulace_tahu_robotv+0x12e6>
			}
			if (B == TL5_1)
			{
				//presun figurku na pozici 11. hraciho pole z pozice 3
			}
			if (B == TL6_1)
    6e92:	20 91 09 04 	lds	r18, 0x0409
    6e96:	30 91 0a 04 	lds	r19, 0x040A
    6e9a:	80 91 7b 04 	lds	r24, 0x047B
    6e9e:	90 91 7c 04 	lds	r25, 0x047C
    6ea2:	28 17       	cp	r18, r24
    6ea4:	39 07       	cpc	r19, r25
    6ea6:	81 f4       	brne	.+32     	; 0x6ec8 <_Z20kalkulace_tahu_robotv+0x11a2>
			{
				naber_na_pozici4();
    6ea8:	0e 94 1e 2d 	call	0x5a3c	; 0x5a3c <_Z16naber_na_pozici4v>
				syncWait(5000000);
    6eac:	60 e4       	ldi	r22, 0x40	; 64
    6eae:	7b e4       	ldi	r23, 0x4B	; 75
    6eb0:	8c e4       	ldi	r24, 0x4C	; 76
    6eb2:	90 e0       	ldi	r25, 0x00	; 0
    6eb4:	0e 94 e1 00 	call	0x1c2	; 0x1c2 <_Z8syncWaitm>
				vyloz_na_pozici11();
    6eb8:	0e 94 a5 23 	call	0x474a	; 0x474a <_Z17vyloz_na_pozici11v>
				syncWait(2000000);
    6ebc:	60 e8       	ldi	r22, 0x80	; 128
    6ebe:	74 e8       	ldi	r23, 0x84	; 132
    6ec0:	8e e1       	ldi	r24, 0x1E	; 30
    6ec2:	90 e0       	ldi	r25, 0x00	; 0
    6ec4:	0e 94 e1 00 	call	0x1c2	; 0x1c2 <_Z8syncWaitm>
				//presun figurku na pozici 11. hraciho pole z pozice 4
			}
			if (B == TL7_1)
    6ec8:	20 91 09 04 	lds	r18, 0x0409
    6ecc:	30 91 0a 04 	lds	r19, 0x040A
    6ed0:	80 91 7d 04 	lds	r24, 0x047D
    6ed4:	90 91 7e 04 	lds	r25, 0x047E
    6ed8:	28 17       	cp	r18, r24
    6eda:	39 07       	cpc	r19, r25
    6edc:	81 f4       	brne	.+32     	; 0x6efe <_Z20kalkulace_tahu_robotv+0x11d8>
			{
				naber_na_pozici5();
    6ede:	0e 94 04 2d 	call	0x5a08	; 0x5a08 <_Z16naber_na_pozici5v>
				syncWait(5000000);
    6ee2:	60 e4       	ldi	r22, 0x40	; 64
    6ee4:	7b e4       	ldi	r23, 0x4B	; 75
    6ee6:	8c e4       	ldi	r24, 0x4C	; 76
    6ee8:	90 e0       	ldi	r25, 0x00	; 0
    6eea:	0e 94 e1 00 	call	0x1c2	; 0x1c2 <_Z8syncWaitm>
				vyloz_na_pozici11();
    6eee:	0e 94 a5 23 	call	0x474a	; 0x474a <_Z17vyloz_na_pozici11v>
				syncWait(2000000);
    6ef2:	60 e8       	ldi	r22, 0x80	; 128
    6ef4:	74 e8       	ldi	r23, 0x84	; 132
    6ef6:	8e e1       	ldi	r24, 0x1E	; 30
    6ef8:	90 e0       	ldi	r25, 0x00	; 0
    6efa:	0e 94 e1 00 	call	0x1c2	; 0x1c2 <_Z8syncWaitm>
				//presun figurku na pozici 11. hraciho pole z pozice 5
			}
			if (B == TL8_1)
    6efe:	20 91 09 04 	lds	r18, 0x0409
    6f02:	30 91 0a 04 	lds	r19, 0x040A
    6f06:	80 91 7f 04 	lds	r24, 0x047F
    6f0a:	90 91 80 04 	lds	r25, 0x0480
    6f0e:	28 17       	cp	r18, r24
    6f10:	39 07       	cpc	r19, r25
    6f12:	81 f4       	brne	.+32     	; 0x6f34 <_Z20kalkulace_tahu_robotv+0x120e>
			{
				naber_na_pozici6();
    6f14:	0e 94 ea 2c 	call	0x59d4	; 0x59d4 <_Z16naber_na_pozici6v>
				syncWait(5000000);
    6f18:	60 e4       	ldi	r22, 0x40	; 64
    6f1a:	7b e4       	ldi	r23, 0x4B	; 75
    6f1c:	8c e4       	ldi	r24, 0x4C	; 76
    6f1e:	90 e0       	ldi	r25, 0x00	; 0
    6f20:	0e 94 e1 00 	call	0x1c2	; 0x1c2 <_Z8syncWaitm>
				vyloz_na_pozici11();
    6f24:	0e 94 a5 23 	call	0x474a	; 0x474a <_Z17vyloz_na_pozici11v>
				syncWait(2000000);
    6f28:	60 e8       	ldi	r22, 0x80	; 128
    6f2a:	74 e8       	ldi	r23, 0x84	; 132
    6f2c:	8e e1       	ldi	r24, 0x1E	; 30
    6f2e:	90 e0       	ldi	r25, 0x00	; 0
    6f30:	0e 94 e1 00 	call	0x1c2	; 0x1c2 <_Z8syncWaitm>
				//presun figurku na pozici 11. hraciho pole z pozice 6
			}
			if (B == TL9_1)
    6f34:	20 91 09 04 	lds	r18, 0x0409
    6f38:	30 91 0a 04 	lds	r19, 0x040A
    6f3c:	80 91 81 04 	lds	r24, 0x0481
    6f40:	90 91 82 04 	lds	r25, 0x0482
    6f44:	28 17       	cp	r18, r24
    6f46:	39 07       	cpc	r19, r25
    6f48:	81 f4       	brne	.+32     	; 0x6f6a <_Z20kalkulace_tahu_robotv+0x1244>
			{
				naber_na_pozici7();
    6f4a:	0e 94 d0 2c 	call	0x59a0	; 0x59a0 <_Z16naber_na_pozici7v>
				syncWait(5000000);
    6f4e:	60 e4       	ldi	r22, 0x40	; 64
    6f50:	7b e4       	ldi	r23, 0x4B	; 75
    6f52:	8c e4       	ldi	r24, 0x4C	; 76
    6f54:	90 e0       	ldi	r25, 0x00	; 0
    6f56:	0e 94 e1 00 	call	0x1c2	; 0x1c2 <_Z8syncWaitm>
				vyloz_na_pozici11();
    6f5a:	0e 94 a5 23 	call	0x474a	; 0x474a <_Z17vyloz_na_pozici11v>
				syncWait(2000000);
    6f5e:	60 e8       	ldi	r22, 0x80	; 128
    6f60:	74 e8       	ldi	r23, 0x84	; 132
    6f62:	8e e1       	ldi	r24, 0x1E	; 30
    6f64:	90 e0       	ldi	r25, 0x00	; 0
    6f66:	0e 94 e1 00 	call	0x1c2	; 0x1c2 <_Z8syncWaitm>
				//presun figurku na pozici 11. hraciho pole z pozice 7
			}
			if (B == TL10_1)
    6f6a:	20 91 09 04 	lds	r18, 0x0409
    6f6e:	30 91 0a 04 	lds	r19, 0x040A
    6f72:	80 91 83 04 	lds	r24, 0x0483
    6f76:	90 91 84 04 	lds	r25, 0x0484
    6f7a:	28 17       	cp	r18, r24
    6f7c:	39 07       	cpc	r19, r25
    6f7e:	81 f4       	brne	.+32     	; 0x6fa0 <_Z20kalkulace_tahu_robotv+0x127a>
			{
				naber_na_pozici8();
    6f80:	0e 94 e4 28 	call	0x51c8	; 0x51c8 <_Z16naber_na_pozici8v>
				syncWait(5000000);
    6f84:	60 e4       	ldi	r22, 0x40	; 64
    6f86:	7b e4       	ldi	r23, 0x4B	; 75
    6f88:	8c e4       	ldi	r24, 0x4C	; 76
    6f8a:	90 e0       	ldi	r25, 0x00	; 0
    6f8c:	0e 94 e1 00 	call	0x1c2	; 0x1c2 <_Z8syncWaitm>
				vyloz_na_pozici11();
    6f90:	0e 94 a5 23 	call	0x474a	; 0x474a <_Z17vyloz_na_pozici11v>
				syncWait(2000000);
    6f94:	60 e8       	ldi	r22, 0x80	; 128
    6f96:	74 e8       	ldi	r23, 0x84	; 132
    6f98:	8e e1       	ldi	r24, 0x1E	; 30
    6f9a:	90 e0       	ldi	r25, 0x00	; 0
    6f9c:	0e 94 e1 00 	call	0x1c2	; 0x1c2 <_Z8syncWaitm>
				//presun figurku na pozici 11. hraciho pole z pozice 8
			}
			if (B == TL11_1)
    6fa0:	20 91 09 04 	lds	r18, 0x0409
    6fa4:	30 91 0a 04 	lds	r19, 0x040A
    6fa8:	80 91 85 04 	lds	r24, 0x0485
    6fac:	90 91 86 04 	lds	r25, 0x0486
    6fb0:	28 17       	cp	r18, r24
    6fb2:	39 07       	cpc	r19, r25
    6fb4:	81 f4       	brne	.+32     	; 0x6fd6 <_Z20kalkulace_tahu_robotv+0x12b0>
			{
				naber_na_pozici9();
    6fb6:	0e 94 ca 28 	call	0x5194	; 0x5194 <_Z16naber_na_pozici9v>
				syncWait(2000000);
    6fba:	60 e8       	ldi	r22, 0x80	; 128
    6fbc:	74 e8       	ldi	r23, 0x84	; 132
    6fbe:	8e e1       	ldi	r24, 0x1E	; 30
    6fc0:	90 e0       	ldi	r25, 0x00	; 0
    6fc2:	0e 94 e1 00 	call	0x1c2	; 0x1c2 <_Z8syncWaitm>
				vyloz_na_pozici11();
    6fc6:	0e 94 a5 23 	call	0x474a	; 0x474a <_Z17vyloz_na_pozici11v>
				syncWait(2000000);
    6fca:	60 e8       	ldi	r22, 0x80	; 128
    6fcc:	74 e8       	ldi	r23, 0x84	; 132
    6fce:	8e e1       	ldi	r24, 0x1E	; 30
    6fd0:	90 e0       	ldi	r25, 0x00	; 0
    6fd2:	0e 94 e1 00 	call	0x1c2	; 0x1c2 <_Z8syncWaitm>
				//presun figurku na pozici 11. hraciho pole z pozice 9
			}
			if (B == TL12_1)
    6fd6:	20 91 09 04 	lds	r18, 0x0409
    6fda:	30 91 0a 04 	lds	r19, 0x040A
    6fde:	80 91 87 04 	lds	r24, 0x0487
    6fe2:	90 91 88 04 	lds	r25, 0x0488
    6fe6:	28 17       	cp	r18, r24
    6fe8:	39 07       	cpc	r19, r25
    6fea:	81 f4       	brne	.+32     	; 0x700c <_Z20kalkulace_tahu_robotv+0x12e6>
			{
				naber_na_pozici10();
    6fec:	0e 94 b0 28 	call	0x5160	; 0x5160 <_Z17naber_na_pozici10v>
				syncWait(2000000);
    6ff0:	60 e8       	ldi	r22, 0x80	; 128
    6ff2:	74 e8       	ldi	r23, 0x84	; 132
    6ff4:	8e e1       	ldi	r24, 0x1E	; 30
    6ff6:	90 e0       	ldi	r25, 0x00	; 0
    6ff8:	0e 94 e1 00 	call	0x1c2	; 0x1c2 <_Z8syncWaitm>
				vyloz_na_pozici11();
    6ffc:	0e 94 a5 23 	call	0x474a	; 0x474a <_Z17vyloz_na_pozici11v>
				syncWait(2000000);
    7000:	60 e8       	ldi	r22, 0x80	; 128
    7002:	74 e8       	ldi	r23, 0x84	; 132
    7004:	8e e1       	ldi	r24, 0x1E	; 30
    7006:	90 e0       	ldi	r25, 0x00	; 0
    7008:	0e 94 e1 00 	call	0x1c2	; 0x1c2 <_Z8syncWaitm>
				//presun figurku na pozici 11. hraciho pole z pozice 10
			}
		}
	}		
	if (A == 14)
    700c:	80 91 07 04 	lds	r24, 0x0407
    7010:	90 91 08 04 	lds	r25, 0x0408
    7014:	0e 97       	sbiw	r24, 0x0e	; 14
    7016:	09 f0       	breq	.+2      	; 0x701a <_Z20kalkulace_tahu_robotv+0x12f4>
    7018:	c4 c0       	rjmp	.+392    	; 0x71a2 <_Z20kalkulace_tahu_robotv+0x147c>
	{
		if(A == TL14_1)
    701a:	80 91 8b 04 	lds	r24, 0x048B
    701e:	90 91 8c 04 	lds	r25, 0x048C
    7022:	0e 97       	sbiw	r24, 0x0e	; 14
    7024:	09 f0       	breq	.+2      	; 0x7028 <_Z20kalkulace_tahu_robotv+0x1302>
    7026:	bd c0       	rjmp	.+378    	; 0x71a2 <_Z20kalkulace_tahu_robotv+0x147c>
			}
			if (B == TL6_1)
			{
				//presun figurku na pozici 12. hraciho pole z pozice 4
			}
			if (B == TL7_1)
    7028:	20 91 09 04 	lds	r18, 0x0409
    702c:	30 91 0a 04 	lds	r19, 0x040A
    7030:	80 91 7d 04 	lds	r24, 0x047D
    7034:	90 91 7e 04 	lds	r25, 0x047E
    7038:	28 17       	cp	r18, r24
    703a:	39 07       	cpc	r19, r25
    703c:	81 f4       	brne	.+32     	; 0x705e <_Z20kalkulace_tahu_robotv+0x1338>
			{
				naber_na_pozici5();
    703e:	0e 94 04 2d 	call	0x5a08	; 0x5a08 <_Z16naber_na_pozici5v>
				syncWait(5000000);
    7042:	60 e4       	ldi	r22, 0x40	; 64
    7044:	7b e4       	ldi	r23, 0x4B	; 75
    7046:	8c e4       	ldi	r24, 0x4C	; 76
    7048:	90 e0       	ldi	r25, 0x00	; 0
    704a:	0e 94 e1 00 	call	0x1c2	; 0x1c2 <_Z8syncWaitm>
				vyloz_na_pozici12();
    704e:	0e 94 8b 23 	call	0x4716	; 0x4716 <_Z17vyloz_na_pozici12v>
				syncWait(2000000);
    7052:	60 e8       	ldi	r22, 0x80	; 128
    7054:	74 e8       	ldi	r23, 0x84	; 132
    7056:	8e e1       	ldi	r24, 0x1E	; 30
    7058:	90 e0       	ldi	r25, 0x00	; 0
    705a:	0e 94 e1 00 	call	0x1c2	; 0x1c2 <_Z8syncWaitm>
				//presun figurku na pozici 12. hraciho pole z pozice 5
			}
			if (B == TL8_1)
    705e:	20 91 09 04 	lds	r18, 0x0409
    7062:	30 91 0a 04 	lds	r19, 0x040A
    7066:	80 91 7f 04 	lds	r24, 0x047F
    706a:	90 91 80 04 	lds	r25, 0x0480
    706e:	28 17       	cp	r18, r24
    7070:	39 07       	cpc	r19, r25
    7072:	81 f4       	brne	.+32     	; 0x7094 <_Z20kalkulace_tahu_robotv+0x136e>
			{
				naber_na_pozici6();
    7074:	0e 94 ea 2c 	call	0x59d4	; 0x59d4 <_Z16naber_na_pozici6v>
				syncWait(5000000);
    7078:	60 e4       	ldi	r22, 0x40	; 64
    707a:	7b e4       	ldi	r23, 0x4B	; 75
    707c:	8c e4       	ldi	r24, 0x4C	; 76
    707e:	90 e0       	ldi	r25, 0x00	; 0
    7080:	0e 94 e1 00 	call	0x1c2	; 0x1c2 <_Z8syncWaitm>
				vyloz_na_pozici12();
    7084:	0e 94 8b 23 	call	0x4716	; 0x4716 <_Z17vyloz_na_pozici12v>
				syncWait(2000000);
    7088:	60 e8       	ldi	r22, 0x80	; 128
    708a:	74 e8       	ldi	r23, 0x84	; 132
    708c:	8e e1       	ldi	r24, 0x1E	; 30
    708e:	90 e0       	ldi	r25, 0x00	; 0
    7090:	0e 94 e1 00 	call	0x1c2	; 0x1c2 <_Z8syncWaitm>
				//presun figurku na pozici 12. hraciho pole z pozice 6
			}
			if (B == TL9_1)
    7094:	20 91 09 04 	lds	r18, 0x0409
    7098:	30 91 0a 04 	lds	r19, 0x040A
    709c:	80 91 81 04 	lds	r24, 0x0481
    70a0:	90 91 82 04 	lds	r25, 0x0482
    70a4:	28 17       	cp	r18, r24
    70a6:	39 07       	cpc	r19, r25
    70a8:	81 f4       	brne	.+32     	; 0x70ca <_Z20kalkulace_tahu_robotv+0x13a4>
			{
				naber_na_pozici7();
    70aa:	0e 94 d0 2c 	call	0x59a0	; 0x59a0 <_Z16naber_na_pozici7v>
				syncWait(5000000);
    70ae:	60 e4       	ldi	r22, 0x40	; 64
    70b0:	7b e4       	ldi	r23, 0x4B	; 75
    70b2:	8c e4       	ldi	r24, 0x4C	; 76
    70b4:	90 e0       	ldi	r25, 0x00	; 0
    70b6:	0e 94 e1 00 	call	0x1c2	; 0x1c2 <_Z8syncWaitm>
				vyloz_na_pozici12();
    70ba:	0e 94 8b 23 	call	0x4716	; 0x4716 <_Z17vyloz_na_pozici12v>
				syncWait(2000000);
    70be:	60 e8       	ldi	r22, 0x80	; 128
    70c0:	74 e8       	ldi	r23, 0x84	; 132
    70c2:	8e e1       	ldi	r24, 0x1E	; 30
    70c4:	90 e0       	ldi	r25, 0x00	; 0
    70c6:	0e 94 e1 00 	call	0x1c2	; 0x1c2 <_Z8syncWaitm>
				//presun figurku na pozici 12. hraciho pole z pozice 7
			}
			if (B == TL10_1)
    70ca:	20 91 09 04 	lds	r18, 0x0409
    70ce:	30 91 0a 04 	lds	r19, 0x040A
    70d2:	80 91 83 04 	lds	r24, 0x0483
    70d6:	90 91 84 04 	lds	r25, 0x0484
    70da:	28 17       	cp	r18, r24
    70dc:	39 07       	cpc	r19, r25
    70de:	81 f4       	brne	.+32     	; 0x7100 <_Z20kalkulace_tahu_robotv+0x13da>
			{
				naber_na_pozici8();
    70e0:	0e 94 e4 28 	call	0x51c8	; 0x51c8 <_Z16naber_na_pozici8v>
				syncWait(5000000);
    70e4:	60 e4       	ldi	r22, 0x40	; 64
    70e6:	7b e4       	ldi	r23, 0x4B	; 75
    70e8:	8c e4       	ldi	r24, 0x4C	; 76
    70ea:	90 e0       	ldi	r25, 0x00	; 0
    70ec:	0e 94 e1 00 	call	0x1c2	; 0x1c2 <_Z8syncWaitm>
				vyloz_na_pozici12();
    70f0:	0e 94 8b 23 	call	0x4716	; 0x4716 <_Z17vyloz_na_pozici12v>
				syncWait(2000000);
    70f4:	60 e8       	ldi	r22, 0x80	; 128
    70f6:	74 e8       	ldi	r23, 0x84	; 132
    70f8:	8e e1       	ldi	r24, 0x1E	; 30
    70fa:	90 e0       	ldi	r25, 0x00	; 0
    70fc:	0e 94 e1 00 	call	0x1c2	; 0x1c2 <_Z8syncWaitm>
				//presun figurku na pozici 12. hraciho pole z pozice 8
			}
			if (B == TL11_1)
    7100:	20 91 09 04 	lds	r18, 0x0409
    7104:	30 91 0a 04 	lds	r19, 0x040A
    7108:	80 91 85 04 	lds	r24, 0x0485
    710c:	90 91 86 04 	lds	r25, 0x0486
    7110:	28 17       	cp	r18, r24
    7112:	39 07       	cpc	r19, r25
    7114:	81 f4       	brne	.+32     	; 0x7136 <_Z20kalkulace_tahu_robotv+0x1410>
			{
				naber_na_pozici9();
    7116:	0e 94 ca 28 	call	0x5194	; 0x5194 <_Z16naber_na_pozici9v>
				syncWait(2000000);
    711a:	60 e8       	ldi	r22, 0x80	; 128
    711c:	74 e8       	ldi	r23, 0x84	; 132
    711e:	8e e1       	ldi	r24, 0x1E	; 30
    7120:	90 e0       	ldi	r25, 0x00	; 0
    7122:	0e 94 e1 00 	call	0x1c2	; 0x1c2 <_Z8syncWaitm>
				vyloz_na_pozici12();
    7126:	0e 94 8b 23 	call	0x4716	; 0x4716 <_Z17vyloz_na_pozici12v>
				syncWait(2000000);
    712a:	60 e8       	ldi	r22, 0x80	; 128
    712c:	74 e8       	ldi	r23, 0x84	; 132
    712e:	8e e1       	ldi	r24, 0x1E	; 30
    7130:	90 e0       	ldi	r25, 0x00	; 0
    7132:	0e 94 e1 00 	call	0x1c2	; 0x1c2 <_Z8syncWaitm>
				//presun figurku na pozici 12. hraciho pole z pozice 9
			}
			if (B == TL12_1)
    7136:	20 91 09 04 	lds	r18, 0x0409
    713a:	30 91 0a 04 	lds	r19, 0x040A
    713e:	80 91 87 04 	lds	r24, 0x0487
    7142:	90 91 88 04 	lds	r25, 0x0488
    7146:	28 17       	cp	r18, r24
    7148:	39 07       	cpc	r19, r25
    714a:	81 f4       	brne	.+32     	; 0x716c <_Z20kalkulace_tahu_robotv+0x1446>
			{
				naber_na_pozici10();
    714c:	0e 94 b0 28 	call	0x5160	; 0x5160 <_Z17naber_na_pozici10v>
				syncWait(2000000);
    7150:	60 e8       	ldi	r22, 0x80	; 128
    7152:	74 e8       	ldi	r23, 0x84	; 132
    7154:	8e e1       	ldi	r24, 0x1E	; 30
    7156:	90 e0       	ldi	r25, 0x00	; 0
    7158:	0e 94 e1 00 	call	0x1c2	; 0x1c2 <_Z8syncWaitm>
				vyloz_na_pozici12();
    715c:	0e 94 8b 23 	call	0x4716	; 0x4716 <_Z17vyloz_na_pozici12v>
				syncWait(2000000);
    7160:	60 e8       	ldi	r22, 0x80	; 128
    7162:	74 e8       	ldi	r23, 0x84	; 132
    7164:	8e e1       	ldi	r24, 0x1E	; 30
    7166:	90 e0       	ldi	r25, 0x00	; 0
    7168:	0e 94 e1 00 	call	0x1c2	; 0x1c2 <_Z8syncWaitm>
				//presun figurku na pozici 12. hraciho pole z pozice 10
			}
			if (B == TL13_1)
    716c:	20 91 09 04 	lds	r18, 0x0409
    7170:	30 91 0a 04 	lds	r19, 0x040A
    7174:	80 91 89 04 	lds	r24, 0x0489
    7178:	90 91 8a 04 	lds	r25, 0x048A
    717c:	28 17       	cp	r18, r24
    717e:	39 07       	cpc	r19, r25
    7180:	81 f4       	brne	.+32     	; 0x71a2 <_Z20kalkulace_tahu_robotv+0x147c>
			{
				naber_na_pozici11();
    7182:	0e 94 96 28 	call	0x512c	; 0x512c <_Z17naber_na_pozici11v>
				syncWait(2000000);
    7186:	60 e8       	ldi	r22, 0x80	; 128
    7188:	74 e8       	ldi	r23, 0x84	; 132
    718a:	8e e1       	ldi	r24, 0x1E	; 30
    718c:	90 e0       	ldi	r25, 0x00	; 0
    718e:	0e 94 e1 00 	call	0x1c2	; 0x1c2 <_Z8syncWaitm>
				vyloz_na_pozici12();
    7192:	0e 94 8b 23 	call	0x4716	; 0x4716 <_Z17vyloz_na_pozici12v>
				syncWait(2000000);
    7196:	60 e8       	ldi	r22, 0x80	; 128
    7198:	74 e8       	ldi	r23, 0x84	; 132
    719a:	8e e1       	ldi	r24, 0x1E	; 30
    719c:	90 e0       	ldi	r25, 0x00	; 0
    719e:	0e 94 e1 00 	call	0x1c2	; 0x1c2 <_Z8syncWaitm>
				//presun figurku na pozici 12. hraciho pole z pozice 11
			}
		}
	}		
	if (A == 15)
    71a2:	80 91 07 04 	lds	r24, 0x0407
    71a6:	90 91 08 04 	lds	r25, 0x0408
    71aa:	0f 97       	sbiw	r24, 0x0f	; 15
    71ac:	09 f0       	breq	.+2      	; 0x71b0 <_Z20kalkulace_tahu_robotv+0x148a>
    71ae:	c4 c0       	rjmp	.+392    	; 0x7338 <_Z20kalkulace_tahu_robotv+0x1612>
	{
		if(A == TL15_1)
    71b0:	80 91 8d 04 	lds	r24, 0x048D
    71b4:	90 91 8e 04 	lds	r25, 0x048E
    71b8:	0f 97       	sbiw	r24, 0x0f	; 15
    71ba:	09 f0       	breq	.+2      	; 0x71be <_Z20kalkulace_tahu_robotv+0x1498>
    71bc:	bd c0       	rjmp	.+378    	; 0x7338 <_Z20kalkulace_tahu_robotv+0x1612>
			}
			if (B == TL7_1)
			{
				//presun figurku na pozici 13. hraciho pole z pozice 5
			}
			if (B == TL8_1)
    71be:	20 91 09 04 	lds	r18, 0x0409
    71c2:	30 91 0a 04 	lds	r19, 0x040A
    71c6:	80 91 7f 04 	lds	r24, 0x047F
    71ca:	90 91 80 04 	lds	r25, 0x0480
    71ce:	28 17       	cp	r18, r24
    71d0:	39 07       	cpc	r19, r25
    71d2:	81 f4       	brne	.+32     	; 0x71f4 <_Z20kalkulace_tahu_robotv+0x14ce>
			{
				naber_na_pozici6();
    71d4:	0e 94 ea 2c 	call	0x59d4	; 0x59d4 <_Z16naber_na_pozici6v>
				syncWait(5000000);
    71d8:	60 e4       	ldi	r22, 0x40	; 64
    71da:	7b e4       	ldi	r23, 0x4B	; 75
    71dc:	8c e4       	ldi	r24, 0x4C	; 76
    71de:	90 e0       	ldi	r25, 0x00	; 0
    71e0:	0e 94 e1 00 	call	0x1c2	; 0x1c2 <_Z8syncWaitm>
				vyloz_na_pozici13();
    71e4:	0e 94 71 23 	call	0x46e2	; 0x46e2 <_Z17vyloz_na_pozici13v>
				syncWait(2000000);
    71e8:	60 e8       	ldi	r22, 0x80	; 128
    71ea:	74 e8       	ldi	r23, 0x84	; 132
    71ec:	8e e1       	ldi	r24, 0x1E	; 30
    71ee:	90 e0       	ldi	r25, 0x00	; 0
    71f0:	0e 94 e1 00 	call	0x1c2	; 0x1c2 <_Z8syncWaitm>
				//presun figurku na pozici 13. hraciho pole z pozice 6
			}
			if (B == TL9_1)
    71f4:	20 91 09 04 	lds	r18, 0x0409
    71f8:	30 91 0a 04 	lds	r19, 0x040A
    71fc:	80 91 81 04 	lds	r24, 0x0481
    7200:	90 91 82 04 	lds	r25, 0x0482
    7204:	28 17       	cp	r18, r24
    7206:	39 07       	cpc	r19, r25
    7208:	81 f4       	brne	.+32     	; 0x722a <_Z20kalkulace_tahu_robotv+0x1504>
			{
				naber_na_pozici7();
    720a:	0e 94 d0 2c 	call	0x59a0	; 0x59a0 <_Z16naber_na_pozici7v>
				syncWait(5000000);
    720e:	60 e4       	ldi	r22, 0x40	; 64
    7210:	7b e4       	ldi	r23, 0x4B	; 75
    7212:	8c e4       	ldi	r24, 0x4C	; 76
    7214:	90 e0       	ldi	r25, 0x00	; 0
    7216:	0e 94 e1 00 	call	0x1c2	; 0x1c2 <_Z8syncWaitm>
				vyloz_na_pozici13();
    721a:	0e 94 71 23 	call	0x46e2	; 0x46e2 <_Z17vyloz_na_pozici13v>
				syncWait(2000000);
    721e:	60 e8       	ldi	r22, 0x80	; 128
    7220:	74 e8       	ldi	r23, 0x84	; 132
    7222:	8e e1       	ldi	r24, 0x1E	; 30
    7224:	90 e0       	ldi	r25, 0x00	; 0
    7226:	0e 94 e1 00 	call	0x1c2	; 0x1c2 <_Z8syncWaitm>
				//presun figurku na pozici 13. hraciho pole z pozice 7
			}
			if (B == TL10_1)
    722a:	20 91 09 04 	lds	r18, 0x0409
    722e:	30 91 0a 04 	lds	r19, 0x040A
    7232:	80 91 83 04 	lds	r24, 0x0483
    7236:	90 91 84 04 	lds	r25, 0x0484
    723a:	28 17       	cp	r18, r24
    723c:	39 07       	cpc	r19, r25
    723e:	81 f4       	brne	.+32     	; 0x7260 <_Z20kalkulace_tahu_robotv+0x153a>
			{
				naber_na_pozici8();
    7240:	0e 94 e4 28 	call	0x51c8	; 0x51c8 <_Z16naber_na_pozici8v>
				syncWait(5000000);
    7244:	60 e4       	ldi	r22, 0x40	; 64
    7246:	7b e4       	ldi	r23, 0x4B	; 75
    7248:	8c e4       	ldi	r24, 0x4C	; 76
    724a:	90 e0       	ldi	r25, 0x00	; 0
    724c:	0e 94 e1 00 	call	0x1c2	; 0x1c2 <_Z8syncWaitm>
				vyloz_na_pozici13();
    7250:	0e 94 71 23 	call	0x46e2	; 0x46e2 <_Z17vyloz_na_pozici13v>
				syncWait(2000000);
    7254:	60 e8       	ldi	r22, 0x80	; 128
    7256:	74 e8       	ldi	r23, 0x84	; 132
    7258:	8e e1       	ldi	r24, 0x1E	; 30
    725a:	90 e0       	ldi	r25, 0x00	; 0
    725c:	0e 94 e1 00 	call	0x1c2	; 0x1c2 <_Z8syncWaitm>
				//presun figurku na pozici 13. hraciho pole z pozice 8
			}
			if (B == TL11_1)
    7260:	20 91 09 04 	lds	r18, 0x0409
    7264:	30 91 0a 04 	lds	r19, 0x040A
    7268:	80 91 85 04 	lds	r24, 0x0485
    726c:	90 91 86 04 	lds	r25, 0x0486
    7270:	28 17       	cp	r18, r24
    7272:	39 07       	cpc	r19, r25
    7274:	81 f4       	brne	.+32     	; 0x7296 <_Z20kalkulace_tahu_robotv+0x1570>
			{
				naber_na_pozici9();
    7276:	0e 94 ca 28 	call	0x5194	; 0x5194 <_Z16naber_na_pozici9v>
				syncWait(2000000);
    727a:	60 e8       	ldi	r22, 0x80	; 128
    727c:	74 e8       	ldi	r23, 0x84	; 132
    727e:	8e e1       	ldi	r24, 0x1E	; 30
    7280:	90 e0       	ldi	r25, 0x00	; 0
    7282:	0e 94 e1 00 	call	0x1c2	; 0x1c2 <_Z8syncWaitm>
				vyloz_na_pozici13();
    7286:	0e 94 71 23 	call	0x46e2	; 0x46e2 <_Z17vyloz_na_pozici13v>
				syncWait(2000000);
    728a:	60 e8       	ldi	r22, 0x80	; 128
    728c:	74 e8       	ldi	r23, 0x84	; 132
    728e:	8e e1       	ldi	r24, 0x1E	; 30
    7290:	90 e0       	ldi	r25, 0x00	; 0
    7292:	0e 94 e1 00 	call	0x1c2	; 0x1c2 <_Z8syncWaitm>
				//presun figurku na pozici 13. hraciho pole z pozice 9
			}
			if (B == TL12_1)
    7296:	20 91 09 04 	lds	r18, 0x0409
    729a:	30 91 0a 04 	lds	r19, 0x040A
    729e:	80 91 87 04 	lds	r24, 0x0487
    72a2:	90 91 88 04 	lds	r25, 0x0488
    72a6:	28 17       	cp	r18, r24
    72a8:	39 07       	cpc	r19, r25
    72aa:	81 f4       	brne	.+32     	; 0x72cc <_Z20kalkulace_tahu_robotv+0x15a6>
			{
				naber_na_pozici10();
    72ac:	0e 94 b0 28 	call	0x5160	; 0x5160 <_Z17naber_na_pozici10v>
				syncWait(2000000);
    72b0:	60 e8       	ldi	r22, 0x80	; 128
    72b2:	74 e8       	ldi	r23, 0x84	; 132
    72b4:	8e e1       	ldi	r24, 0x1E	; 30
    72b6:	90 e0       	ldi	r25, 0x00	; 0
    72b8:	0e 94 e1 00 	call	0x1c2	; 0x1c2 <_Z8syncWaitm>
				vyloz_na_pozici13();
    72bc:	0e 94 71 23 	call	0x46e2	; 0x46e2 <_Z17vyloz_na_pozici13v>
				syncWait(2000000);
    72c0:	60 e8       	ldi	r22, 0x80	; 128
    72c2:	74 e8       	ldi	r23, 0x84	; 132
    72c4:	8e e1       	ldi	r24, 0x1E	; 30
    72c6:	90 e0       	ldi	r25, 0x00	; 0
    72c8:	0e 94 e1 00 	call	0x1c2	; 0x1c2 <_Z8syncWaitm>
				//presun figurku na pozici 13. hraciho pole z pozice 10
			}
			if (B == TL13_1)
    72cc:	20 91 09 04 	lds	r18, 0x0409
    72d0:	30 91 0a 04 	lds	r19, 0x040A
    72d4:	80 91 89 04 	lds	r24, 0x0489
    72d8:	90 91 8a 04 	lds	r25, 0x048A
    72dc:	28 17       	cp	r18, r24
    72de:	39 07       	cpc	r19, r25
    72e0:	81 f4       	brne	.+32     	; 0x7302 <_Z20kalkulace_tahu_robotv+0x15dc>
			{
				naber_na_pozici11();
    72e2:	0e 94 96 28 	call	0x512c	; 0x512c <_Z17naber_na_pozici11v>
				syncWait(2000000);
    72e6:	60 e8       	ldi	r22, 0x80	; 128
    72e8:	74 e8       	ldi	r23, 0x84	; 132
    72ea:	8e e1       	ldi	r24, 0x1E	; 30
    72ec:	90 e0       	ldi	r25, 0x00	; 0
    72ee:	0e 94 e1 00 	call	0x1c2	; 0x1c2 <_Z8syncWaitm>
				vyloz_na_pozici13();
    72f2:	0e 94 71 23 	call	0x46e2	; 0x46e2 <_Z17vyloz_na_pozici13v>
				syncWait(2000000);
    72f6:	60 e8       	ldi	r22, 0x80	; 128
    72f8:	74 e8       	ldi	r23, 0x84	; 132
    72fa:	8e e1       	ldi	r24, 0x1E	; 30
    72fc:	90 e0       	ldi	r25, 0x00	; 0
    72fe:	0e 94 e1 00 	call	0x1c2	; 0x1c2 <_Z8syncWaitm>
				//presun figurku na pozici 13. hraciho pole z pozice 11
			}
			if (B == TL14_1)
    7302:	20 91 09 04 	lds	r18, 0x0409
    7306:	30 91 0a 04 	lds	r19, 0x040A
    730a:	80 91 8b 04 	lds	r24, 0x048B
    730e:	90 91 8c 04 	lds	r25, 0x048C
    7312:	28 17       	cp	r18, r24
    7314:	39 07       	cpc	r19, r25
    7316:	81 f4       	brne	.+32     	; 0x7338 <_Z20kalkulace_tahu_robotv+0x1612>
			{
				naber_na_pozici12();
    7318:	0e 94 7c 28 	call	0x50f8	; 0x50f8 <_Z17naber_na_pozici12v>
				syncWait(2000000);
    731c:	60 e8       	ldi	r22, 0x80	; 128
    731e:	74 e8       	ldi	r23, 0x84	; 132
    7320:	8e e1       	ldi	r24, 0x1E	; 30
    7322:	90 e0       	ldi	r25, 0x00	; 0
    7324:	0e 94 e1 00 	call	0x1c2	; 0x1c2 <_Z8syncWaitm>
				vyloz_na_pozici13();
    7328:	0e 94 71 23 	call	0x46e2	; 0x46e2 <_Z17vyloz_na_pozici13v>
				syncWait(2000000);
    732c:	60 e8       	ldi	r22, 0x80	; 128
    732e:	74 e8       	ldi	r23, 0x84	; 132
    7330:	8e e1       	ldi	r24, 0x1E	; 30
    7332:	90 e0       	ldi	r25, 0x00	; 0
    7334:	0e 94 e1 00 	call	0x1c2	; 0x1c2 <_Z8syncWaitm>
				//presun figurku na pozici 13. hraciho pole z pozice 12
			}
		}
	}
	if (A == 16)
    7338:	80 91 07 04 	lds	r24, 0x0407
    733c:	90 91 08 04 	lds	r25, 0x0408
    7340:	40 97       	sbiw	r24, 0x10	; 16
    7342:	09 f0       	breq	.+2      	; 0x7346 <_Z20kalkulace_tahu_robotv+0x1620>
    7344:	c4 c0       	rjmp	.+392    	; 0x74ce <_Z20kalkulace_tahu_robotv+0x17a8>
	{
		if(A == TL16_1)
    7346:	80 91 8f 04 	lds	r24, 0x048F
    734a:	90 91 90 04 	lds	r25, 0x0490
    734e:	40 97       	sbiw	r24, 0x10	; 16
    7350:	09 f0       	breq	.+2      	; 0x7354 <_Z20kalkulace_tahu_robotv+0x162e>
    7352:	bd c0       	rjmp	.+378    	; 0x74ce <_Z20kalkulace_tahu_robotv+0x17a8>
			}
			if (B == TL8_1)
			{
				//presun figurku na pozici 14. hraciho pole z pozice 6
			}
			if (B == TL9_1)
    7354:	20 91 09 04 	lds	r18, 0x0409
    7358:	30 91 0a 04 	lds	r19, 0x040A
    735c:	80 91 81 04 	lds	r24, 0x0481
    7360:	90 91 82 04 	lds	r25, 0x0482
    7364:	28 17       	cp	r18, r24
    7366:	39 07       	cpc	r19, r25
    7368:	81 f4       	brne	.+32     	; 0x738a <_Z20kalkulace_tahu_robotv+0x1664>
			{
				naber_na_pozici7();
    736a:	0e 94 d0 2c 	call	0x59a0	; 0x59a0 <_Z16naber_na_pozici7v>
				syncWait(5000000);
    736e:	60 e4       	ldi	r22, 0x40	; 64
    7370:	7b e4       	ldi	r23, 0x4B	; 75
    7372:	8c e4       	ldi	r24, 0x4C	; 76
    7374:	90 e0       	ldi	r25, 0x00	; 0
    7376:	0e 94 e1 00 	call	0x1c2	; 0x1c2 <_Z8syncWaitm>
				vyloz_na_pozici14();
    737a:	0e 94 57 23 	call	0x46ae	; 0x46ae <_Z17vyloz_na_pozici14v>
				syncWait(2000000);
    737e:	60 e8       	ldi	r22, 0x80	; 128
    7380:	74 e8       	ldi	r23, 0x84	; 132
    7382:	8e e1       	ldi	r24, 0x1E	; 30
    7384:	90 e0       	ldi	r25, 0x00	; 0
    7386:	0e 94 e1 00 	call	0x1c2	; 0x1c2 <_Z8syncWaitm>
				//presun figurku na pozici 14. hraciho pole z pozice 7
			}
			if (B == TL10_1)
    738a:	20 91 09 04 	lds	r18, 0x0409
    738e:	30 91 0a 04 	lds	r19, 0x040A
    7392:	80 91 83 04 	lds	r24, 0x0483
    7396:	90 91 84 04 	lds	r25, 0x0484
    739a:	28 17       	cp	r18, r24
    739c:	39 07       	cpc	r19, r25
    739e:	81 f4       	brne	.+32     	; 0x73c0 <_Z20kalkulace_tahu_robotv+0x169a>
			{
				naber_na_pozici8();
    73a0:	0e 94 e4 28 	call	0x51c8	; 0x51c8 <_Z16naber_na_pozici8v>
				syncWait(5000000);
    73a4:	60 e4       	ldi	r22, 0x40	; 64
    73a6:	7b e4       	ldi	r23, 0x4B	; 75
    73a8:	8c e4       	ldi	r24, 0x4C	; 76
    73aa:	90 e0       	ldi	r25, 0x00	; 0
    73ac:	0e 94 e1 00 	call	0x1c2	; 0x1c2 <_Z8syncWaitm>
				vyloz_na_pozici14();
    73b0:	0e 94 57 23 	call	0x46ae	; 0x46ae <_Z17vyloz_na_pozici14v>
				syncWait(2000000);
    73b4:	60 e8       	ldi	r22, 0x80	; 128
    73b6:	74 e8       	ldi	r23, 0x84	; 132
    73b8:	8e e1       	ldi	r24, 0x1E	; 30
    73ba:	90 e0       	ldi	r25, 0x00	; 0
    73bc:	0e 94 e1 00 	call	0x1c2	; 0x1c2 <_Z8syncWaitm>
				//presun figurku na pozici 14. hraciho pole z pozice 8
			}
			if (B == TL11_1)
    73c0:	20 91 09 04 	lds	r18, 0x0409
    73c4:	30 91 0a 04 	lds	r19, 0x040A
    73c8:	80 91 85 04 	lds	r24, 0x0485
    73cc:	90 91 86 04 	lds	r25, 0x0486
    73d0:	28 17       	cp	r18, r24
    73d2:	39 07       	cpc	r19, r25
    73d4:	81 f4       	brne	.+32     	; 0x73f6 <_Z20kalkulace_tahu_robotv+0x16d0>
			{
				naber_na_pozici9();
    73d6:	0e 94 ca 28 	call	0x5194	; 0x5194 <_Z16naber_na_pozici9v>
				syncWait(2000000);
    73da:	60 e8       	ldi	r22, 0x80	; 128
    73dc:	74 e8       	ldi	r23, 0x84	; 132
    73de:	8e e1       	ldi	r24, 0x1E	; 30
    73e0:	90 e0       	ldi	r25, 0x00	; 0
    73e2:	0e 94 e1 00 	call	0x1c2	; 0x1c2 <_Z8syncWaitm>
				vyloz_na_pozici14();
    73e6:	0e 94 57 23 	call	0x46ae	; 0x46ae <_Z17vyloz_na_pozici14v>
				syncWait(2000000);
    73ea:	60 e8       	ldi	r22, 0x80	; 128
    73ec:	74 e8       	ldi	r23, 0x84	; 132
    73ee:	8e e1       	ldi	r24, 0x1E	; 30
    73f0:	90 e0       	ldi	r25, 0x00	; 0
    73f2:	0e 94 e1 00 	call	0x1c2	; 0x1c2 <_Z8syncWaitm>
				//presun figurku na pozici 14. hraciho pole z pozice 9
			}
			if (B == TL12_1)
    73f6:	20 91 09 04 	lds	r18, 0x0409
    73fa:	30 91 0a 04 	lds	r19, 0x040A
    73fe:	80 91 87 04 	lds	r24, 0x0487
    7402:	90 91 88 04 	lds	r25, 0x0488
    7406:	28 17       	cp	r18, r24
    7408:	39 07       	cpc	r19, r25
    740a:	81 f4       	brne	.+32     	; 0x742c <_Z20kalkulace_tahu_robotv+0x1706>
			{
				naber_na_pozici10();
    740c:	0e 94 b0 28 	call	0x5160	; 0x5160 <_Z17naber_na_pozici10v>
				syncWait(2000000);
    7410:	60 e8       	ldi	r22, 0x80	; 128
    7412:	74 e8       	ldi	r23, 0x84	; 132
    7414:	8e e1       	ldi	r24, 0x1E	; 30
    7416:	90 e0       	ldi	r25, 0x00	; 0
    7418:	0e 94 e1 00 	call	0x1c2	; 0x1c2 <_Z8syncWaitm>
				vyloz_na_pozici14();
    741c:	0e 94 57 23 	call	0x46ae	; 0x46ae <_Z17vyloz_na_pozici14v>
				syncWait(2000000);
    7420:	60 e8       	ldi	r22, 0x80	; 128
    7422:	74 e8       	ldi	r23, 0x84	; 132
    7424:	8e e1       	ldi	r24, 0x1E	; 30
    7426:	90 e0       	ldi	r25, 0x00	; 0
    7428:	0e 94 e1 00 	call	0x1c2	; 0x1c2 <_Z8syncWaitm>
				//presun figurku na pozici 14. hraciho pole z pozice 10
			}
			if (B == TL13_1)
    742c:	20 91 09 04 	lds	r18, 0x0409
    7430:	30 91 0a 04 	lds	r19, 0x040A
    7434:	80 91 89 04 	lds	r24, 0x0489
    7438:	90 91 8a 04 	lds	r25, 0x048A
    743c:	28 17       	cp	r18, r24
    743e:	39 07       	cpc	r19, r25
    7440:	81 f4       	brne	.+32     	; 0x7462 <_Z20kalkulace_tahu_robotv+0x173c>
			{
				naber_na_pozici11();
    7442:	0e 94 96 28 	call	0x512c	; 0x512c <_Z17naber_na_pozici11v>
				syncWait(2000000);
    7446:	60 e8       	ldi	r22, 0x80	; 128
    7448:	74 e8       	ldi	r23, 0x84	; 132
    744a:	8e e1       	ldi	r24, 0x1E	; 30
    744c:	90 e0       	ldi	r25, 0x00	; 0
    744e:	0e 94 e1 00 	call	0x1c2	; 0x1c2 <_Z8syncWaitm>
				vyloz_na_pozici14();
    7452:	0e 94 57 23 	call	0x46ae	; 0x46ae <_Z17vyloz_na_pozici14v>
				syncWait(2000000);
    7456:	60 e8       	ldi	r22, 0x80	; 128
    7458:	74 e8       	ldi	r23, 0x84	; 132
    745a:	8e e1       	ldi	r24, 0x1E	; 30
    745c:	90 e0       	ldi	r25, 0x00	; 0
    745e:	0e 94 e1 00 	call	0x1c2	; 0x1c2 <_Z8syncWaitm>
				//presun figurku na pozici 14. hraciho pole z pozice 11
			}
			if (B == TL14_1)
    7462:	20 91 09 04 	lds	r18, 0x0409
    7466:	30 91 0a 04 	lds	r19, 0x040A
    746a:	80 91 8b 04 	lds	r24, 0x048B
    746e:	90 91 8c 04 	lds	r25, 0x048C
    7472:	28 17       	cp	r18, r24
    7474:	39 07       	cpc	r19, r25
    7476:	81 f4       	brne	.+32     	; 0x7498 <_Z20kalkulace_tahu_robotv+0x1772>
			{
				naber_na_pozici12();
    7478:	0e 94 7c 28 	call	0x50f8	; 0x50f8 <_Z17naber_na_pozici12v>
				syncWait(2000000);
    747c:	60 e8       	ldi	r22, 0x80	; 128
    747e:	74 e8       	ldi	r23, 0x84	; 132
    7480:	8e e1       	ldi	r24, 0x1E	; 30
    7482:	90 e0       	ldi	r25, 0x00	; 0
    7484:	0e 94 e1 00 	call	0x1c2	; 0x1c2 <_Z8syncWaitm>
				vyloz_na_pozici14();
    7488:	0e 94 57 23 	call	0x46ae	; 0x46ae <_Z17vyloz_na_pozici14v>
				syncWait(2000000);
    748c:	60 e8       	ldi	r22, 0x80	; 128
    748e:	74 e8       	ldi	r23, 0x84	; 132
    7490:	8e e1       	ldi	r24, 0x1E	; 30
    7492:	90 e0       	ldi	r25, 0x00	; 0
    7494:	0e 94 e1 00 	call	0x1c2	; 0x1c2 <_Z8syncWaitm>
				//presun figurku na pozici 14. hraciho pole z pozice 12
			}
			if (B == TL15_1)
    7498:	20 91 09 04 	lds	r18, 0x0409
    749c:	30 91 0a 04 	lds	r19, 0x040A
    74a0:	80 91 8d 04 	lds	r24, 0x048D
    74a4:	90 91 8e 04 	lds	r25, 0x048E
    74a8:	28 17       	cp	r18, r24
    74aa:	39 07       	cpc	r19, r25
    74ac:	81 f4       	brne	.+32     	; 0x74ce <_Z20kalkulace_tahu_robotv+0x17a8>
			{
				naber_na_pozici13();
    74ae:	0e 94 62 28 	call	0x50c4	; 0x50c4 <_Z17naber_na_pozici13v>
				syncWait(2000000);
    74b2:	60 e8       	ldi	r22, 0x80	; 128
    74b4:	74 e8       	ldi	r23, 0x84	; 132
    74b6:	8e e1       	ldi	r24, 0x1E	; 30
    74b8:	90 e0       	ldi	r25, 0x00	; 0
    74ba:	0e 94 e1 00 	call	0x1c2	; 0x1c2 <_Z8syncWaitm>
				vyloz_na_pozici14();
    74be:	0e 94 57 23 	call	0x46ae	; 0x46ae <_Z17vyloz_na_pozici14v>
				syncWait(2000000);
    74c2:	60 e8       	ldi	r22, 0x80	; 128
    74c4:	74 e8       	ldi	r23, 0x84	; 132
    74c6:	8e e1       	ldi	r24, 0x1E	; 30
    74c8:	90 e0       	ldi	r25, 0x00	; 0
    74ca:	0e 94 e1 00 	call	0x1c2	; 0x1c2 <_Z8syncWaitm>
				//presun figurku na pozici 14. hraciho pole z pozice 13
			}
		}
	}
	if (A == 17)
    74ce:	80 91 07 04 	lds	r24, 0x0407
    74d2:	90 91 08 04 	lds	r25, 0x0408
    74d6:	41 97       	sbiw	r24, 0x11	; 17
    74d8:	09 f0       	breq	.+2      	; 0x74dc <_Z20kalkulace_tahu_robotv+0x17b6>
    74da:	c4 c0       	rjmp	.+392    	; 0x7664 <_Z20kalkulace_tahu_robotv+0x193e>
	{
		if(A == TL17_1)
    74dc:	80 91 91 04 	lds	r24, 0x0491
    74e0:	90 91 92 04 	lds	r25, 0x0492
    74e4:	41 97       	sbiw	r24, 0x11	; 17
    74e6:	09 f0       	breq	.+2      	; 0x74ea <_Z20kalkulace_tahu_robotv+0x17c4>
    74e8:	bd c0       	rjmp	.+378    	; 0x7664 <_Z20kalkulace_tahu_robotv+0x193e>
			}
			if (B == TL9_1)
			{
				//presun figurku na pozici 15. hraciho pole z pozice 7
			}
			if (B == TL10_1)
    74ea:	20 91 09 04 	lds	r18, 0x0409
    74ee:	30 91 0a 04 	lds	r19, 0x040A
    74f2:	80 91 83 04 	lds	r24, 0x0483
    74f6:	90 91 84 04 	lds	r25, 0x0484
    74fa:	28 17       	cp	r18, r24
    74fc:	39 07       	cpc	r19, r25
    74fe:	81 f4       	brne	.+32     	; 0x7520 <_Z20kalkulace_tahu_robotv+0x17fa>
			{
				naber_na_pozici8();
    7500:	0e 94 e4 28 	call	0x51c8	; 0x51c8 <_Z16naber_na_pozici8v>
				syncWait(2000000);
    7504:	60 e8       	ldi	r22, 0x80	; 128
    7506:	74 e8       	ldi	r23, 0x84	; 132
    7508:	8e e1       	ldi	r24, 0x1E	; 30
    750a:	90 e0       	ldi	r25, 0x00	; 0
    750c:	0e 94 e1 00 	call	0x1c2	; 0x1c2 <_Z8syncWaitm>
				vyloz_na_pozici15();
    7510:	0e 94 3d 23 	call	0x467a	; 0x467a <_Z17vyloz_na_pozici15v>
				syncWait(2000000);
    7514:	60 e8       	ldi	r22, 0x80	; 128
    7516:	74 e8       	ldi	r23, 0x84	; 132
    7518:	8e e1       	ldi	r24, 0x1E	; 30
    751a:	90 e0       	ldi	r25, 0x00	; 0
    751c:	0e 94 e1 00 	call	0x1c2	; 0x1c2 <_Z8syncWaitm>
				//presun figurku na pozici 15. hraciho pole z pozice 8
			}
			if (B == TL11_1)
    7520:	20 91 09 04 	lds	r18, 0x0409
    7524:	30 91 0a 04 	lds	r19, 0x040A
    7528:	80 91 85 04 	lds	r24, 0x0485
    752c:	90 91 86 04 	lds	r25, 0x0486
    7530:	28 17       	cp	r18, r24
    7532:	39 07       	cpc	r19, r25
    7534:	81 f4       	brne	.+32     	; 0x7556 <_Z20kalkulace_tahu_robotv+0x1830>
			{
				naber_na_pozici9();
    7536:	0e 94 ca 28 	call	0x5194	; 0x5194 <_Z16naber_na_pozici9v>
				syncWait(2000000);
    753a:	60 e8       	ldi	r22, 0x80	; 128
    753c:	74 e8       	ldi	r23, 0x84	; 132
    753e:	8e e1       	ldi	r24, 0x1E	; 30
    7540:	90 e0       	ldi	r25, 0x00	; 0
    7542:	0e 94 e1 00 	call	0x1c2	; 0x1c2 <_Z8syncWaitm>
				vyloz_na_pozici15();
    7546:	0e 94 3d 23 	call	0x467a	; 0x467a <_Z17vyloz_na_pozici15v>
				syncWait(2000000);
    754a:	60 e8       	ldi	r22, 0x80	; 128
    754c:	74 e8       	ldi	r23, 0x84	; 132
    754e:	8e e1       	ldi	r24, 0x1E	; 30
    7550:	90 e0       	ldi	r25, 0x00	; 0
    7552:	0e 94 e1 00 	call	0x1c2	; 0x1c2 <_Z8syncWaitm>
				//presun figurku na pozici 15. hraciho pole z pozice 9
			}
			if (B == TL12_1)
    7556:	20 91 09 04 	lds	r18, 0x0409
    755a:	30 91 0a 04 	lds	r19, 0x040A
    755e:	80 91 87 04 	lds	r24, 0x0487
    7562:	90 91 88 04 	lds	r25, 0x0488
    7566:	28 17       	cp	r18, r24
    7568:	39 07       	cpc	r19, r25
    756a:	81 f4       	brne	.+32     	; 0x758c <_Z20kalkulace_tahu_robotv+0x1866>
			{
				naber_na_pozici10();
    756c:	0e 94 b0 28 	call	0x5160	; 0x5160 <_Z17naber_na_pozici10v>
				syncWait(2000000);
    7570:	60 e8       	ldi	r22, 0x80	; 128
    7572:	74 e8       	ldi	r23, 0x84	; 132
    7574:	8e e1       	ldi	r24, 0x1E	; 30
    7576:	90 e0       	ldi	r25, 0x00	; 0
    7578:	0e 94 e1 00 	call	0x1c2	; 0x1c2 <_Z8syncWaitm>
				vyloz_na_pozici15();
    757c:	0e 94 3d 23 	call	0x467a	; 0x467a <_Z17vyloz_na_pozici15v>
				syncWait(2000000);
    7580:	60 e8       	ldi	r22, 0x80	; 128
    7582:	74 e8       	ldi	r23, 0x84	; 132
    7584:	8e e1       	ldi	r24, 0x1E	; 30
    7586:	90 e0       	ldi	r25, 0x00	; 0
    7588:	0e 94 e1 00 	call	0x1c2	; 0x1c2 <_Z8syncWaitm>
				//presun figurku na pozici 15. hraciho pole z pozice 10
			}
			if (B == TL13_1)
    758c:	20 91 09 04 	lds	r18, 0x0409
    7590:	30 91 0a 04 	lds	r19, 0x040A
    7594:	80 91 89 04 	lds	r24, 0x0489
    7598:	90 91 8a 04 	lds	r25, 0x048A
    759c:	28 17       	cp	r18, r24
    759e:	39 07       	cpc	r19, r25
    75a0:	81 f4       	brne	.+32     	; 0x75c2 <_Z20kalkulace_tahu_robotv+0x189c>
			{
				naber_na_pozici11();
    75a2:	0e 94 96 28 	call	0x512c	; 0x512c <_Z17naber_na_pozici11v>
				syncWait(2000000);
    75a6:	60 e8       	ldi	r22, 0x80	; 128
    75a8:	74 e8       	ldi	r23, 0x84	; 132
    75aa:	8e e1       	ldi	r24, 0x1E	; 30
    75ac:	90 e0       	ldi	r25, 0x00	; 0
    75ae:	0e 94 e1 00 	call	0x1c2	; 0x1c2 <_Z8syncWaitm>
				vyloz_na_pozici15();
    75b2:	0e 94 3d 23 	call	0x467a	; 0x467a <_Z17vyloz_na_pozici15v>
				syncWait(2000000);
    75b6:	60 e8       	ldi	r22, 0x80	; 128
    75b8:	74 e8       	ldi	r23, 0x84	; 132
    75ba:	8e e1       	ldi	r24, 0x1E	; 30
    75bc:	90 e0       	ldi	r25, 0x00	; 0
    75be:	0e 94 e1 00 	call	0x1c2	; 0x1c2 <_Z8syncWaitm>
				//presun figurku na pozici 15. hraciho pole z pozice 11
			}
			if (B == TL14_1)
    75c2:	20 91 09 04 	lds	r18, 0x0409
    75c6:	30 91 0a 04 	lds	r19, 0x040A
    75ca:	80 91 8b 04 	lds	r24, 0x048B
    75ce:	90 91 8c 04 	lds	r25, 0x048C
    75d2:	28 17       	cp	r18, r24
    75d4:	39 07       	cpc	r19, r25
    75d6:	81 f4       	brne	.+32     	; 0x75f8 <_Z20kalkulace_tahu_robotv+0x18d2>
			{
				naber_na_pozici12();
    75d8:	0e 94 7c 28 	call	0x50f8	; 0x50f8 <_Z17naber_na_pozici12v>
				syncWait(2000000);
    75dc:	60 e8       	ldi	r22, 0x80	; 128
    75de:	74 e8       	ldi	r23, 0x84	; 132
    75e0:	8e e1       	ldi	r24, 0x1E	; 30
    75e2:	90 e0       	ldi	r25, 0x00	; 0
    75e4:	0e 94 e1 00 	call	0x1c2	; 0x1c2 <_Z8syncWaitm>
				vyloz_na_pozici15();
    75e8:	0e 94 3d 23 	call	0x467a	; 0x467a <_Z17vyloz_na_pozici15v>
				syncWait(2000000);
    75ec:	60 e8       	ldi	r22, 0x80	; 128
    75ee:	74 e8       	ldi	r23, 0x84	; 132
    75f0:	8e e1       	ldi	r24, 0x1E	; 30
    75f2:	90 e0       	ldi	r25, 0x00	; 0
    75f4:	0e 94 e1 00 	call	0x1c2	; 0x1c2 <_Z8syncWaitm>
				//presun figurku na pozici 15. hraciho pole z pozice 12
			}
			if (B == TL15_1)
    75f8:	20 91 09 04 	lds	r18, 0x0409
    75fc:	30 91 0a 04 	lds	r19, 0x040A
    7600:	80 91 8d 04 	lds	r24, 0x048D
    7604:	90 91 8e 04 	lds	r25, 0x048E
    7608:	28 17       	cp	r18, r24
    760a:	39 07       	cpc	r19, r25
    760c:	81 f4       	brne	.+32     	; 0x762e <_Z20kalkulace_tahu_robotv+0x1908>
			{
				naber_na_pozici13();
    760e:	0e 94 62 28 	call	0x50c4	; 0x50c4 <_Z17naber_na_pozici13v>
				syncWait(2000000);
    7612:	60 e8       	ldi	r22, 0x80	; 128
    7614:	74 e8       	ldi	r23, 0x84	; 132
    7616:	8e e1       	ldi	r24, 0x1E	; 30
    7618:	90 e0       	ldi	r25, 0x00	; 0
    761a:	0e 94 e1 00 	call	0x1c2	; 0x1c2 <_Z8syncWaitm>
				vyloz_na_pozici15();
    761e:	0e 94 3d 23 	call	0x467a	; 0x467a <_Z17vyloz_na_pozici15v>
				syncWait(2000000);
    7622:	60 e8       	ldi	r22, 0x80	; 128
    7624:	74 e8       	ldi	r23, 0x84	; 132
    7626:	8e e1       	ldi	r24, 0x1E	; 30
    7628:	90 e0       	ldi	r25, 0x00	; 0
    762a:	0e 94 e1 00 	call	0x1c2	; 0x1c2 <_Z8syncWaitm>
				//presun figurku na pozici 15. hraciho pole z pozice 13
			}
			if (B == TL16_1)
    762e:	20 91 09 04 	lds	r18, 0x0409
    7632:	30 91 0a 04 	lds	r19, 0x040A
    7636:	80 91 8f 04 	lds	r24, 0x048F
    763a:	90 91 90 04 	lds	r25, 0x0490
    763e:	28 17       	cp	r18, r24
    7640:	39 07       	cpc	r19, r25
    7642:	81 f4       	brne	.+32     	; 0x7664 <_Z20kalkulace_tahu_robotv+0x193e>
			{
				naber_na_pozici14();
    7644:	0e 94 48 28 	call	0x5090	; 0x5090 <_Z17naber_na_pozici14v>
				syncWait(2000000);
    7648:	60 e8       	ldi	r22, 0x80	; 128
    764a:	74 e8       	ldi	r23, 0x84	; 132
    764c:	8e e1       	ldi	r24, 0x1E	; 30
    764e:	90 e0       	ldi	r25, 0x00	; 0
    7650:	0e 94 e1 00 	call	0x1c2	; 0x1c2 <_Z8syncWaitm>
				vyloz_na_pozici15();
    7654:	0e 94 3d 23 	call	0x467a	; 0x467a <_Z17vyloz_na_pozici15v>
				syncWait(2000000);
    7658:	60 e8       	ldi	r22, 0x80	; 128
    765a:	74 e8       	ldi	r23, 0x84	; 132
    765c:	8e e1       	ldi	r24, 0x1E	; 30
    765e:	90 e0       	ldi	r25, 0x00	; 0
    7660:	0e 94 e1 00 	call	0x1c2	; 0x1c2 <_Z8syncWaitm>
				//presun figurku na pozici 15. hraciho pole z pozice 14
			}
		}
	}
	if (A == 18)
    7664:	80 91 07 04 	lds	r24, 0x0407
    7668:	90 91 08 04 	lds	r25, 0x0408
    766c:	42 97       	sbiw	r24, 0x12	; 18
    766e:	09 f0       	breq	.+2      	; 0x7672 <_Z20kalkulace_tahu_robotv+0x194c>
    7670:	c4 c0       	rjmp	.+392    	; 0x77fa <_Z20kalkulace_tahu_robotv+0x1ad4>
	{
		if(A == TL18_1)
    7672:	80 91 93 04 	lds	r24, 0x0493
    7676:	90 91 94 04 	lds	r25, 0x0494
    767a:	42 97       	sbiw	r24, 0x12	; 18
    767c:	09 f0       	breq	.+2      	; 0x7680 <_Z20kalkulace_tahu_robotv+0x195a>
    767e:	bd c0       	rjmp	.+378    	; 0x77fa <_Z20kalkulace_tahu_robotv+0x1ad4>
			}
			if (B == TL10_1)
			{
				//presun figurku na pozici 16. hraciho pole z pozice 8
			}
			if (B == TL11_1)
    7680:	20 91 09 04 	lds	r18, 0x0409
    7684:	30 91 0a 04 	lds	r19, 0x040A
    7688:	80 91 85 04 	lds	r24, 0x0485
    768c:	90 91 86 04 	lds	r25, 0x0486
    7690:	28 17       	cp	r18, r24
    7692:	39 07       	cpc	r19, r25
    7694:	81 f4       	brne	.+32     	; 0x76b6 <_Z20kalkulace_tahu_robotv+0x1990>
			{
				naber_na_pozici9();
    7696:	0e 94 ca 28 	call	0x5194	; 0x5194 <_Z16naber_na_pozici9v>
				syncWait(2000000);
    769a:	60 e8       	ldi	r22, 0x80	; 128
    769c:	74 e8       	ldi	r23, 0x84	; 132
    769e:	8e e1       	ldi	r24, 0x1E	; 30
    76a0:	90 e0       	ldi	r25, 0x00	; 0
    76a2:	0e 94 e1 00 	call	0x1c2	; 0x1c2 <_Z8syncWaitm>
				vyloz_na_pozici16();
    76a6:	0e 94 23 23 	call	0x4646	; 0x4646 <_Z17vyloz_na_pozici16v>
				syncWait(2000000);
    76aa:	60 e8       	ldi	r22, 0x80	; 128
    76ac:	74 e8       	ldi	r23, 0x84	; 132
    76ae:	8e e1       	ldi	r24, 0x1E	; 30
    76b0:	90 e0       	ldi	r25, 0x00	; 0
    76b2:	0e 94 e1 00 	call	0x1c2	; 0x1c2 <_Z8syncWaitm>
				//presun figurku na pozici 16. hraciho pole z pozice 9
			}
			if (B == TL12_1)
    76b6:	20 91 09 04 	lds	r18, 0x0409
    76ba:	30 91 0a 04 	lds	r19, 0x040A
    76be:	80 91 87 04 	lds	r24, 0x0487
    76c2:	90 91 88 04 	lds	r25, 0x0488
    76c6:	28 17       	cp	r18, r24
    76c8:	39 07       	cpc	r19, r25
    76ca:	81 f4       	brne	.+32     	; 0x76ec <_Z20kalkulace_tahu_robotv+0x19c6>
			{
				naber_na_pozici10();
    76cc:	0e 94 b0 28 	call	0x5160	; 0x5160 <_Z17naber_na_pozici10v>
				syncWait(2000000);
    76d0:	60 e8       	ldi	r22, 0x80	; 128
    76d2:	74 e8       	ldi	r23, 0x84	; 132
    76d4:	8e e1       	ldi	r24, 0x1E	; 30
    76d6:	90 e0       	ldi	r25, 0x00	; 0
    76d8:	0e 94 e1 00 	call	0x1c2	; 0x1c2 <_Z8syncWaitm>
				vyloz_na_pozici16();
    76dc:	0e 94 23 23 	call	0x4646	; 0x4646 <_Z17vyloz_na_pozici16v>
				syncWait(2000000);
    76e0:	60 e8       	ldi	r22, 0x80	; 128
    76e2:	74 e8       	ldi	r23, 0x84	; 132
    76e4:	8e e1       	ldi	r24, 0x1E	; 30
    76e6:	90 e0       	ldi	r25, 0x00	; 0
    76e8:	0e 94 e1 00 	call	0x1c2	; 0x1c2 <_Z8syncWaitm>
				//presun figurku na pozici 16. hraciho pole z pozice 10
			}
			if (B == TL13_1)
    76ec:	20 91 09 04 	lds	r18, 0x0409
    76f0:	30 91 0a 04 	lds	r19, 0x040A
    76f4:	80 91 89 04 	lds	r24, 0x0489
    76f8:	90 91 8a 04 	lds	r25, 0x048A
    76fc:	28 17       	cp	r18, r24
    76fe:	39 07       	cpc	r19, r25
    7700:	81 f4       	brne	.+32     	; 0x7722 <_Z20kalkulace_tahu_robotv+0x19fc>
			{
				naber_na_pozici11();
    7702:	0e 94 96 28 	call	0x512c	; 0x512c <_Z17naber_na_pozici11v>
				syncWait(2000000);
    7706:	60 e8       	ldi	r22, 0x80	; 128
    7708:	74 e8       	ldi	r23, 0x84	; 132
    770a:	8e e1       	ldi	r24, 0x1E	; 30
    770c:	90 e0       	ldi	r25, 0x00	; 0
    770e:	0e 94 e1 00 	call	0x1c2	; 0x1c2 <_Z8syncWaitm>
				vyloz_na_pozici16();
    7712:	0e 94 23 23 	call	0x4646	; 0x4646 <_Z17vyloz_na_pozici16v>
				syncWait(2000000);
    7716:	60 e8       	ldi	r22, 0x80	; 128
    7718:	74 e8       	ldi	r23, 0x84	; 132
    771a:	8e e1       	ldi	r24, 0x1E	; 30
    771c:	90 e0       	ldi	r25, 0x00	; 0
    771e:	0e 94 e1 00 	call	0x1c2	; 0x1c2 <_Z8syncWaitm>
				//presun figurku na pozici 16. hraciho pole z pozice 11
			}
			if (B == TL14_1)
    7722:	20 91 09 04 	lds	r18, 0x0409
    7726:	30 91 0a 04 	lds	r19, 0x040A
    772a:	80 91 8b 04 	lds	r24, 0x048B
    772e:	90 91 8c 04 	lds	r25, 0x048C
    7732:	28 17       	cp	r18, r24
    7734:	39 07       	cpc	r19, r25
    7736:	81 f4       	brne	.+32     	; 0x7758 <_Z20kalkulace_tahu_robotv+0x1a32>
			{
				naber_na_pozici12();
    7738:	0e 94 7c 28 	call	0x50f8	; 0x50f8 <_Z17naber_na_pozici12v>
				syncWait(2000000);
    773c:	60 e8       	ldi	r22, 0x80	; 128
    773e:	74 e8       	ldi	r23, 0x84	; 132
    7740:	8e e1       	ldi	r24, 0x1E	; 30
    7742:	90 e0       	ldi	r25, 0x00	; 0
    7744:	0e 94 e1 00 	call	0x1c2	; 0x1c2 <_Z8syncWaitm>
				vyloz_na_pozici16();
    7748:	0e 94 23 23 	call	0x4646	; 0x4646 <_Z17vyloz_na_pozici16v>
				syncWait(2000000);
    774c:	60 e8       	ldi	r22, 0x80	; 128
    774e:	74 e8       	ldi	r23, 0x84	; 132
    7750:	8e e1       	ldi	r24, 0x1E	; 30
    7752:	90 e0       	ldi	r25, 0x00	; 0
    7754:	0e 94 e1 00 	call	0x1c2	; 0x1c2 <_Z8syncWaitm>
				//presun figurku na pozici 16. hraciho pole z pozice 12
			}
			if (B == TL15_1)
    7758:	20 91 09 04 	lds	r18, 0x0409
    775c:	30 91 0a 04 	lds	r19, 0x040A
    7760:	80 91 8d 04 	lds	r24, 0x048D
    7764:	90 91 8e 04 	lds	r25, 0x048E
    7768:	28 17       	cp	r18, r24
    776a:	39 07       	cpc	r19, r25
    776c:	81 f4       	brne	.+32     	; 0x778e <_Z20kalkulace_tahu_robotv+0x1a68>
			{
				naber_na_pozici13();
    776e:	0e 94 62 28 	call	0x50c4	; 0x50c4 <_Z17naber_na_pozici13v>
				syncWait(2000000);
    7772:	60 e8       	ldi	r22, 0x80	; 128
    7774:	74 e8       	ldi	r23, 0x84	; 132
    7776:	8e e1       	ldi	r24, 0x1E	; 30
    7778:	90 e0       	ldi	r25, 0x00	; 0
    777a:	0e 94 e1 00 	call	0x1c2	; 0x1c2 <_Z8syncWaitm>
				vyloz_na_pozici16();
    777e:	0e 94 23 23 	call	0x4646	; 0x4646 <_Z17vyloz_na_pozici16v>
				syncWait(2000000);
    7782:	60 e8       	ldi	r22, 0x80	; 128
    7784:	74 e8       	ldi	r23, 0x84	; 132
    7786:	8e e1       	ldi	r24, 0x1E	; 30
    7788:	90 e0       	ldi	r25, 0x00	; 0
    778a:	0e 94 e1 00 	call	0x1c2	; 0x1c2 <_Z8syncWaitm>
				//presun figurku na pozici 16. hraciho pole z pozice 13
			}
			if (B == TL16_1)
    778e:	20 91 09 04 	lds	r18, 0x0409
    7792:	30 91 0a 04 	lds	r19, 0x040A
    7796:	80 91 8f 04 	lds	r24, 0x048F
    779a:	90 91 90 04 	lds	r25, 0x0490
    779e:	28 17       	cp	r18, r24
    77a0:	39 07       	cpc	r19, r25
    77a2:	81 f4       	brne	.+32     	; 0x77c4 <_Z20kalkulace_tahu_robotv+0x1a9e>
			{
				naber_na_pozici14();
    77a4:	0e 94 48 28 	call	0x5090	; 0x5090 <_Z17naber_na_pozici14v>
				syncWait(2000000);
    77a8:	60 e8       	ldi	r22, 0x80	; 128
    77aa:	74 e8       	ldi	r23, 0x84	; 132
    77ac:	8e e1       	ldi	r24, 0x1E	; 30
    77ae:	90 e0       	ldi	r25, 0x00	; 0
    77b0:	0e 94 e1 00 	call	0x1c2	; 0x1c2 <_Z8syncWaitm>
				vyloz_na_pozici16();
    77b4:	0e 94 23 23 	call	0x4646	; 0x4646 <_Z17vyloz_na_pozici16v>
				syncWait(2000000);
    77b8:	60 e8       	ldi	r22, 0x80	; 128
    77ba:	74 e8       	ldi	r23, 0x84	; 132
    77bc:	8e e1       	ldi	r24, 0x1E	; 30
    77be:	90 e0       	ldi	r25, 0x00	; 0
    77c0:	0e 94 e1 00 	call	0x1c2	; 0x1c2 <_Z8syncWaitm>
				//presun figurku na pozici 16. hraciho pole z pozice 14
			}
			if (B == TL17_1)
    77c4:	20 91 09 04 	lds	r18, 0x0409
    77c8:	30 91 0a 04 	lds	r19, 0x040A
    77cc:	80 91 91 04 	lds	r24, 0x0491
    77d0:	90 91 92 04 	lds	r25, 0x0492
    77d4:	28 17       	cp	r18, r24
    77d6:	39 07       	cpc	r19, r25
    77d8:	81 f4       	brne	.+32     	; 0x77fa <_Z20kalkulace_tahu_robotv+0x1ad4>
			{
				naber_na_pozici15();
    77da:	0e 94 2e 28 	call	0x505c	; 0x505c <_Z17naber_na_pozici15v>
				syncWait(2000000);
    77de:	60 e8       	ldi	r22, 0x80	; 128
    77e0:	74 e8       	ldi	r23, 0x84	; 132
    77e2:	8e e1       	ldi	r24, 0x1E	; 30
    77e4:	90 e0       	ldi	r25, 0x00	; 0
    77e6:	0e 94 e1 00 	call	0x1c2	; 0x1c2 <_Z8syncWaitm>
				vyloz_na_pozici16();
    77ea:	0e 94 23 23 	call	0x4646	; 0x4646 <_Z17vyloz_na_pozici16v>
				syncWait(2000000);
    77ee:	60 e8       	ldi	r22, 0x80	; 128
    77f0:	74 e8       	ldi	r23, 0x84	; 132
    77f2:	8e e1       	ldi	r24, 0x1E	; 30
    77f4:	90 e0       	ldi	r25, 0x00	; 0
    77f6:	0e 94 e1 00 	call	0x1c2	; 0x1c2 <_Z8syncWaitm>
				//presun figurku na pozici 16. hraciho pole z pozice 15
			}
		}
	}
	if (A == 19)
    77fa:	80 91 07 04 	lds	r24, 0x0407
    77fe:	90 91 08 04 	lds	r25, 0x0408
    7802:	43 97       	sbiw	r24, 0x13	; 19
    7804:	09 f0       	breq	.+2      	; 0x7808 <_Z20kalkulace_tahu_robotv+0x1ae2>
    7806:	c4 c0       	rjmp	.+392    	; 0x7990 <_Z20kalkulace_tahu_robotv+0x1c6a>
	{
		if(A == TL19_1)
    7808:	80 91 95 04 	lds	r24, 0x0495
    780c:	90 91 96 04 	lds	r25, 0x0496
    7810:	43 97       	sbiw	r24, 0x13	; 19
    7812:	09 f0       	breq	.+2      	; 0x7816 <_Z20kalkulace_tahu_robotv+0x1af0>
    7814:	bd c0       	rjmp	.+378    	; 0x7990 <_Z20kalkulace_tahu_robotv+0x1c6a>
			}
			if (B == TL11_1)
			{
				//presun figurku na pozici 17. hraciho pole z pozice 9
			}
			if (B == TL12_1)
    7816:	20 91 09 04 	lds	r18, 0x0409
    781a:	30 91 0a 04 	lds	r19, 0x040A
    781e:	80 91 87 04 	lds	r24, 0x0487
    7822:	90 91 88 04 	lds	r25, 0x0488
    7826:	28 17       	cp	r18, r24
    7828:	39 07       	cpc	r19, r25
    782a:	81 f4       	brne	.+32     	; 0x784c <_Z20kalkulace_tahu_robotv+0x1b26>
			{
				naber_na_pozici10();
    782c:	0e 94 b0 28 	call	0x5160	; 0x5160 <_Z17naber_na_pozici10v>
				syncWait(2000000);
    7830:	60 e8       	ldi	r22, 0x80	; 128
    7832:	74 e8       	ldi	r23, 0x84	; 132
    7834:	8e e1       	ldi	r24, 0x1E	; 30
    7836:	90 e0       	ldi	r25, 0x00	; 0
    7838:	0e 94 e1 00 	call	0x1c2	; 0x1c2 <_Z8syncWaitm>
				vyloz_na_pozici17();
    783c:	0e 94 09 23 	call	0x4612	; 0x4612 <_Z17vyloz_na_pozici17v>
				syncWait(2000000);
    7840:	60 e8       	ldi	r22, 0x80	; 128
    7842:	74 e8       	ldi	r23, 0x84	; 132
    7844:	8e e1       	ldi	r24, 0x1E	; 30
    7846:	90 e0       	ldi	r25, 0x00	; 0
    7848:	0e 94 e1 00 	call	0x1c2	; 0x1c2 <_Z8syncWaitm>
				//presun figurku na pozici 17. hraciho pole z pozice 10
			}
			if (B == TL13_1)
    784c:	20 91 09 04 	lds	r18, 0x0409
    7850:	30 91 0a 04 	lds	r19, 0x040A
    7854:	80 91 89 04 	lds	r24, 0x0489
    7858:	90 91 8a 04 	lds	r25, 0x048A
    785c:	28 17       	cp	r18, r24
    785e:	39 07       	cpc	r19, r25
    7860:	81 f4       	brne	.+32     	; 0x7882 <_Z20kalkulace_tahu_robotv+0x1b5c>
			{
				naber_na_pozici11();
    7862:	0e 94 96 28 	call	0x512c	; 0x512c <_Z17naber_na_pozici11v>
				syncWait(2000000);
    7866:	60 e8       	ldi	r22, 0x80	; 128
    7868:	74 e8       	ldi	r23, 0x84	; 132
    786a:	8e e1       	ldi	r24, 0x1E	; 30
    786c:	90 e0       	ldi	r25, 0x00	; 0
    786e:	0e 94 e1 00 	call	0x1c2	; 0x1c2 <_Z8syncWaitm>
				vyloz_na_pozici17();
    7872:	0e 94 09 23 	call	0x4612	; 0x4612 <_Z17vyloz_na_pozici17v>
				syncWait(2000000);
    7876:	60 e8       	ldi	r22, 0x80	; 128
    7878:	74 e8       	ldi	r23, 0x84	; 132
    787a:	8e e1       	ldi	r24, 0x1E	; 30
    787c:	90 e0       	ldi	r25, 0x00	; 0
    787e:	0e 94 e1 00 	call	0x1c2	; 0x1c2 <_Z8syncWaitm>
				//presun figurku na pozici 17. hraciho pole z pozice 11
			}
			if (B == TL14_1)
    7882:	20 91 09 04 	lds	r18, 0x0409
    7886:	30 91 0a 04 	lds	r19, 0x040A
    788a:	80 91 8b 04 	lds	r24, 0x048B
    788e:	90 91 8c 04 	lds	r25, 0x048C
    7892:	28 17       	cp	r18, r24
    7894:	39 07       	cpc	r19, r25
    7896:	81 f4       	brne	.+32     	; 0x78b8 <_Z20kalkulace_tahu_robotv+0x1b92>
			{
				naber_na_pozici12();
    7898:	0e 94 7c 28 	call	0x50f8	; 0x50f8 <_Z17naber_na_pozici12v>
				syncWait(2000000);
    789c:	60 e8       	ldi	r22, 0x80	; 128
    789e:	74 e8       	ldi	r23, 0x84	; 132
    78a0:	8e e1       	ldi	r24, 0x1E	; 30
    78a2:	90 e0       	ldi	r25, 0x00	; 0
    78a4:	0e 94 e1 00 	call	0x1c2	; 0x1c2 <_Z8syncWaitm>
				vyloz_na_pozici17();
    78a8:	0e 94 09 23 	call	0x4612	; 0x4612 <_Z17vyloz_na_pozici17v>
				syncWait(2000000);
    78ac:	60 e8       	ldi	r22, 0x80	; 128
    78ae:	74 e8       	ldi	r23, 0x84	; 132
    78b0:	8e e1       	ldi	r24, 0x1E	; 30
    78b2:	90 e0       	ldi	r25, 0x00	; 0
    78b4:	0e 94 e1 00 	call	0x1c2	; 0x1c2 <_Z8syncWaitm>
				//presun figurku na pozici 17. hraciho pole z pozice 12
			}
			if (B == TL15_1)
    78b8:	20 91 09 04 	lds	r18, 0x0409
    78bc:	30 91 0a 04 	lds	r19, 0x040A
    78c0:	80 91 8d 04 	lds	r24, 0x048D
    78c4:	90 91 8e 04 	lds	r25, 0x048E
    78c8:	28 17       	cp	r18, r24
    78ca:	39 07       	cpc	r19, r25
    78cc:	81 f4       	brne	.+32     	; 0x78ee <_Z20kalkulace_tahu_robotv+0x1bc8>
			{
				naber_na_pozici13();
    78ce:	0e 94 62 28 	call	0x50c4	; 0x50c4 <_Z17naber_na_pozici13v>
				syncWait(2000000);
    78d2:	60 e8       	ldi	r22, 0x80	; 128
    78d4:	74 e8       	ldi	r23, 0x84	; 132
    78d6:	8e e1       	ldi	r24, 0x1E	; 30
    78d8:	90 e0       	ldi	r25, 0x00	; 0
    78da:	0e 94 e1 00 	call	0x1c2	; 0x1c2 <_Z8syncWaitm>
				vyloz_na_pozici17();
    78de:	0e 94 09 23 	call	0x4612	; 0x4612 <_Z17vyloz_na_pozici17v>
				syncWait(2000000);
    78e2:	60 e8       	ldi	r22, 0x80	; 128
    78e4:	74 e8       	ldi	r23, 0x84	; 132
    78e6:	8e e1       	ldi	r24, 0x1E	; 30
    78e8:	90 e0       	ldi	r25, 0x00	; 0
    78ea:	0e 94 e1 00 	call	0x1c2	; 0x1c2 <_Z8syncWaitm>
				//presun figurku na pozici 17. hraciho pole z pozice 13
			}
			if (B == TL16_1)
    78ee:	20 91 09 04 	lds	r18, 0x0409
    78f2:	30 91 0a 04 	lds	r19, 0x040A
    78f6:	80 91 8f 04 	lds	r24, 0x048F
    78fa:	90 91 90 04 	lds	r25, 0x0490
    78fe:	28 17       	cp	r18, r24
    7900:	39 07       	cpc	r19, r25
    7902:	81 f4       	brne	.+32     	; 0x7924 <_Z20kalkulace_tahu_robotv+0x1bfe>
			{
				naber_na_pozici14();
    7904:	0e 94 48 28 	call	0x5090	; 0x5090 <_Z17naber_na_pozici14v>
				syncWait(2000000);
    7908:	60 e8       	ldi	r22, 0x80	; 128
    790a:	74 e8       	ldi	r23, 0x84	; 132
    790c:	8e e1       	ldi	r24, 0x1E	; 30
    790e:	90 e0       	ldi	r25, 0x00	; 0
    7910:	0e 94 e1 00 	call	0x1c2	; 0x1c2 <_Z8syncWaitm>
				vyloz_na_pozici17();
    7914:	0e 94 09 23 	call	0x4612	; 0x4612 <_Z17vyloz_na_pozici17v>
				syncWait(2000000);
    7918:	60 e8       	ldi	r22, 0x80	; 128
    791a:	74 e8       	ldi	r23, 0x84	; 132
    791c:	8e e1       	ldi	r24, 0x1E	; 30
    791e:	90 e0       	ldi	r25, 0x00	; 0
    7920:	0e 94 e1 00 	call	0x1c2	; 0x1c2 <_Z8syncWaitm>
				//presun figurku na pozici 17. hraciho pole z pozice 14
			}
			if (B == TL17_1)
    7924:	20 91 09 04 	lds	r18, 0x0409
    7928:	30 91 0a 04 	lds	r19, 0x040A
    792c:	80 91 91 04 	lds	r24, 0x0491
    7930:	90 91 92 04 	lds	r25, 0x0492
    7934:	28 17       	cp	r18, r24
    7936:	39 07       	cpc	r19, r25
    7938:	81 f4       	brne	.+32     	; 0x795a <_Z20kalkulace_tahu_robotv+0x1c34>
			{
				naber_na_pozici15();
    793a:	0e 94 2e 28 	call	0x505c	; 0x505c <_Z17naber_na_pozici15v>
				syncWait(2000000);
    793e:	60 e8       	ldi	r22, 0x80	; 128
    7940:	74 e8       	ldi	r23, 0x84	; 132
    7942:	8e e1       	ldi	r24, 0x1E	; 30
    7944:	90 e0       	ldi	r25, 0x00	; 0
    7946:	0e 94 e1 00 	call	0x1c2	; 0x1c2 <_Z8syncWaitm>
				vyloz_na_pozici17();
    794a:	0e 94 09 23 	call	0x4612	; 0x4612 <_Z17vyloz_na_pozici17v>
				syncWait(2000000);
    794e:	60 e8       	ldi	r22, 0x80	; 128
    7950:	74 e8       	ldi	r23, 0x84	; 132
    7952:	8e e1       	ldi	r24, 0x1E	; 30
    7954:	90 e0       	ldi	r25, 0x00	; 0
    7956:	0e 94 e1 00 	call	0x1c2	; 0x1c2 <_Z8syncWaitm>
				//presun figurku na pozici 17. hraciho pole z pozice 15
			}
			if (B == TL18_1)
    795a:	20 91 09 04 	lds	r18, 0x0409
    795e:	30 91 0a 04 	lds	r19, 0x040A
    7962:	80 91 93 04 	lds	r24, 0x0493
    7966:	90 91 94 04 	lds	r25, 0x0494
    796a:	28 17       	cp	r18, r24
    796c:	39 07       	cpc	r19, r25
    796e:	81 f4       	brne	.+32     	; 0x7990 <_Z20kalkulace_tahu_robotv+0x1c6a>
			{
				naber_na_pozici16();
    7970:	0e 94 14 28 	call	0x5028	; 0x5028 <_Z17naber_na_pozici16v>
				syncWait(2000000);
    7974:	60 e8       	ldi	r22, 0x80	; 128
    7976:	74 e8       	ldi	r23, 0x84	; 132
    7978:	8e e1       	ldi	r24, 0x1E	; 30
    797a:	90 e0       	ldi	r25, 0x00	; 0
    797c:	0e 94 e1 00 	call	0x1c2	; 0x1c2 <_Z8syncWaitm>
				vyloz_na_pozici17();
    7980:	0e 94 09 23 	call	0x4612	; 0x4612 <_Z17vyloz_na_pozici17v>
				syncWait(2000000);
    7984:	60 e8       	ldi	r22, 0x80	; 128
    7986:	74 e8       	ldi	r23, 0x84	; 132
    7988:	8e e1       	ldi	r24, 0x1E	; 30
    798a:	90 e0       	ldi	r25, 0x00	; 0
    798c:	0e 94 e1 00 	call	0x1c2	; 0x1c2 <_Z8syncWaitm>
				//presun figurku na pozici 17. hraciho pole z pozice 16
			}
		}
	}
	if (A == 20)
    7990:	80 91 07 04 	lds	r24, 0x0407
    7994:	90 91 08 04 	lds	r25, 0x0408
    7998:	44 97       	sbiw	r24, 0x14	; 20
    799a:	09 f0       	breq	.+2      	; 0x799e <_Z20kalkulace_tahu_robotv+0x1c78>
    799c:	c4 c0       	rjmp	.+392    	; 0x7b26 <_Z20kalkulace_tahu_robotv+0x1e00>
	{
		if(A == TL20_1)
    799e:	80 91 97 04 	lds	r24, 0x0497
    79a2:	90 91 98 04 	lds	r25, 0x0498
    79a6:	44 97       	sbiw	r24, 0x14	; 20
    79a8:	09 f0       	breq	.+2      	; 0x79ac <_Z20kalkulace_tahu_robotv+0x1c86>
    79aa:	bd c0       	rjmp	.+378    	; 0x7b26 <_Z20kalkulace_tahu_robotv+0x1e00>
			}
			if (B == TL12_1)
			{
				//presun figurku na pozici 18. hraciho pole z pozice 10
			}
			if (B == TL13_1)
    79ac:	20 91 09 04 	lds	r18, 0x0409
    79b0:	30 91 0a 04 	lds	r19, 0x040A
    79b4:	80 91 89 04 	lds	r24, 0x0489
    79b8:	90 91 8a 04 	lds	r25, 0x048A
    79bc:	28 17       	cp	r18, r24
    79be:	39 07       	cpc	r19, r25
    79c0:	81 f4       	brne	.+32     	; 0x79e2 <_Z20kalkulace_tahu_robotv+0x1cbc>
			{
				naber_na_pozici11();
    79c2:	0e 94 96 28 	call	0x512c	; 0x512c <_Z17naber_na_pozici11v>
				syncWait(2000000);
    79c6:	60 e8       	ldi	r22, 0x80	; 128
    79c8:	74 e8       	ldi	r23, 0x84	; 132
    79ca:	8e e1       	ldi	r24, 0x1E	; 30
    79cc:	90 e0       	ldi	r25, 0x00	; 0
    79ce:	0e 94 e1 00 	call	0x1c2	; 0x1c2 <_Z8syncWaitm>
				vyloz_na_pozici18();
    79d2:	0e 94 ef 22 	call	0x45de	; 0x45de <_Z17vyloz_na_pozici18v>
				syncWait(2000000);
    79d6:	60 e8       	ldi	r22, 0x80	; 128
    79d8:	74 e8       	ldi	r23, 0x84	; 132
    79da:	8e e1       	ldi	r24, 0x1E	; 30
    79dc:	90 e0       	ldi	r25, 0x00	; 0
    79de:	0e 94 e1 00 	call	0x1c2	; 0x1c2 <_Z8syncWaitm>
				//presun figurku na pozici 18. hraciho pole z pozice 11
			}
			if (B == TL14_1)
    79e2:	20 91 09 04 	lds	r18, 0x0409
    79e6:	30 91 0a 04 	lds	r19, 0x040A
    79ea:	80 91 8b 04 	lds	r24, 0x048B
    79ee:	90 91 8c 04 	lds	r25, 0x048C
    79f2:	28 17       	cp	r18, r24
    79f4:	39 07       	cpc	r19, r25
    79f6:	81 f4       	brne	.+32     	; 0x7a18 <_Z20kalkulace_tahu_robotv+0x1cf2>
			{
				naber_na_pozici12();
    79f8:	0e 94 7c 28 	call	0x50f8	; 0x50f8 <_Z17naber_na_pozici12v>
				syncWait(2000000);
    79fc:	60 e8       	ldi	r22, 0x80	; 128
    79fe:	74 e8       	ldi	r23, 0x84	; 132
    7a00:	8e e1       	ldi	r24, 0x1E	; 30
    7a02:	90 e0       	ldi	r25, 0x00	; 0
    7a04:	0e 94 e1 00 	call	0x1c2	; 0x1c2 <_Z8syncWaitm>
				vyloz_na_pozici18();
    7a08:	0e 94 ef 22 	call	0x45de	; 0x45de <_Z17vyloz_na_pozici18v>
				syncWait(2000000);
    7a0c:	60 e8       	ldi	r22, 0x80	; 128
    7a0e:	74 e8       	ldi	r23, 0x84	; 132
    7a10:	8e e1       	ldi	r24, 0x1E	; 30
    7a12:	90 e0       	ldi	r25, 0x00	; 0
    7a14:	0e 94 e1 00 	call	0x1c2	; 0x1c2 <_Z8syncWaitm>
				//presun figurku na pozici 18. hraciho pole z pozice 12
			}
			if (B == TL15_1)
    7a18:	20 91 09 04 	lds	r18, 0x0409
    7a1c:	30 91 0a 04 	lds	r19, 0x040A
    7a20:	80 91 8d 04 	lds	r24, 0x048D
    7a24:	90 91 8e 04 	lds	r25, 0x048E
    7a28:	28 17       	cp	r18, r24
    7a2a:	39 07       	cpc	r19, r25
    7a2c:	81 f4       	brne	.+32     	; 0x7a4e <_Z20kalkulace_tahu_robotv+0x1d28>
			{
				naber_na_pozici13();
    7a2e:	0e 94 62 28 	call	0x50c4	; 0x50c4 <_Z17naber_na_pozici13v>
				syncWait(2000000);
    7a32:	60 e8       	ldi	r22, 0x80	; 128
    7a34:	74 e8       	ldi	r23, 0x84	; 132
    7a36:	8e e1       	ldi	r24, 0x1E	; 30
    7a38:	90 e0       	ldi	r25, 0x00	; 0
    7a3a:	0e 94 e1 00 	call	0x1c2	; 0x1c2 <_Z8syncWaitm>
				vyloz_na_pozici18();
    7a3e:	0e 94 ef 22 	call	0x45de	; 0x45de <_Z17vyloz_na_pozici18v>
				syncWait(2000000);
    7a42:	60 e8       	ldi	r22, 0x80	; 128
    7a44:	74 e8       	ldi	r23, 0x84	; 132
    7a46:	8e e1       	ldi	r24, 0x1E	; 30
    7a48:	90 e0       	ldi	r25, 0x00	; 0
    7a4a:	0e 94 e1 00 	call	0x1c2	; 0x1c2 <_Z8syncWaitm>
				//presun figurku na pozici 18. hraciho pole z pozice 13
			}
			if (B == TL16_1)
    7a4e:	20 91 09 04 	lds	r18, 0x0409
    7a52:	30 91 0a 04 	lds	r19, 0x040A
    7a56:	80 91 8f 04 	lds	r24, 0x048F
    7a5a:	90 91 90 04 	lds	r25, 0x0490
    7a5e:	28 17       	cp	r18, r24
    7a60:	39 07       	cpc	r19, r25
    7a62:	81 f4       	brne	.+32     	; 0x7a84 <_Z20kalkulace_tahu_robotv+0x1d5e>
			{
				naber_na_pozici14();
    7a64:	0e 94 48 28 	call	0x5090	; 0x5090 <_Z17naber_na_pozici14v>
				syncWait(2000000);
    7a68:	60 e8       	ldi	r22, 0x80	; 128
    7a6a:	74 e8       	ldi	r23, 0x84	; 132
    7a6c:	8e e1       	ldi	r24, 0x1E	; 30
    7a6e:	90 e0       	ldi	r25, 0x00	; 0
    7a70:	0e 94 e1 00 	call	0x1c2	; 0x1c2 <_Z8syncWaitm>
				vyloz_na_pozici18();
    7a74:	0e 94 ef 22 	call	0x45de	; 0x45de <_Z17vyloz_na_pozici18v>
				syncWait(2000000);
    7a78:	60 e8       	ldi	r22, 0x80	; 128
    7a7a:	74 e8       	ldi	r23, 0x84	; 132
    7a7c:	8e e1       	ldi	r24, 0x1E	; 30
    7a7e:	90 e0       	ldi	r25, 0x00	; 0
    7a80:	0e 94 e1 00 	call	0x1c2	; 0x1c2 <_Z8syncWaitm>
				//presun figurku na pozici 18. hraciho pole z pozice 14
			}
			if (B == TL17_1)
    7a84:	20 91 09 04 	lds	r18, 0x0409
    7a88:	30 91 0a 04 	lds	r19, 0x040A
    7a8c:	80 91 91 04 	lds	r24, 0x0491
    7a90:	90 91 92 04 	lds	r25, 0x0492
    7a94:	28 17       	cp	r18, r24
    7a96:	39 07       	cpc	r19, r25
    7a98:	81 f4       	brne	.+32     	; 0x7aba <_Z20kalkulace_tahu_robotv+0x1d94>
			{
				naber_na_pozici15();
    7a9a:	0e 94 2e 28 	call	0x505c	; 0x505c <_Z17naber_na_pozici15v>
				syncWait(2000000);
    7a9e:	60 e8       	ldi	r22, 0x80	; 128
    7aa0:	74 e8       	ldi	r23, 0x84	; 132
    7aa2:	8e e1       	ldi	r24, 0x1E	; 30
    7aa4:	90 e0       	ldi	r25, 0x00	; 0
    7aa6:	0e 94 e1 00 	call	0x1c2	; 0x1c2 <_Z8syncWaitm>
				vyloz_na_pozici18();
    7aaa:	0e 94 ef 22 	call	0x45de	; 0x45de <_Z17vyloz_na_pozici18v>
				syncWait(2000000);
    7aae:	60 e8       	ldi	r22, 0x80	; 128
    7ab0:	74 e8       	ldi	r23, 0x84	; 132
    7ab2:	8e e1       	ldi	r24, 0x1E	; 30
    7ab4:	90 e0       	ldi	r25, 0x00	; 0
    7ab6:	0e 94 e1 00 	call	0x1c2	; 0x1c2 <_Z8syncWaitm>
				//presun figurku na pozici 18. hraciho pole z pozice 15
			}
			if (B == TL18_1)
    7aba:	20 91 09 04 	lds	r18, 0x0409
    7abe:	30 91 0a 04 	lds	r19, 0x040A
    7ac2:	80 91 93 04 	lds	r24, 0x0493
    7ac6:	90 91 94 04 	lds	r25, 0x0494
    7aca:	28 17       	cp	r18, r24
    7acc:	39 07       	cpc	r19, r25
    7ace:	81 f4       	brne	.+32     	; 0x7af0 <_Z20kalkulace_tahu_robotv+0x1dca>
			{
				naber_na_pozici16();
    7ad0:	0e 94 14 28 	call	0x5028	; 0x5028 <_Z17naber_na_pozici16v>
				syncWait(2000000);
    7ad4:	60 e8       	ldi	r22, 0x80	; 128
    7ad6:	74 e8       	ldi	r23, 0x84	; 132
    7ad8:	8e e1       	ldi	r24, 0x1E	; 30
    7ada:	90 e0       	ldi	r25, 0x00	; 0
    7adc:	0e 94 e1 00 	call	0x1c2	; 0x1c2 <_Z8syncWaitm>
				vyloz_na_pozici18();
    7ae0:	0e 94 ef 22 	call	0x45de	; 0x45de <_Z17vyloz_na_pozici18v>
				syncWait(2000000);
    7ae4:	60 e8       	ldi	r22, 0x80	; 128
    7ae6:	74 e8       	ldi	r23, 0x84	; 132
    7ae8:	8e e1       	ldi	r24, 0x1E	; 30
    7aea:	90 e0       	ldi	r25, 0x00	; 0
    7aec:	0e 94 e1 00 	call	0x1c2	; 0x1c2 <_Z8syncWaitm>
				//presun figurku na pozici 18. hraciho pole z pozice 16
			}
			if (B == TL19_1)
    7af0:	20 91 09 04 	lds	r18, 0x0409
    7af4:	30 91 0a 04 	lds	r19, 0x040A
    7af8:	80 91 95 04 	lds	r24, 0x0495
    7afc:	90 91 96 04 	lds	r25, 0x0496
    7b00:	28 17       	cp	r18, r24
    7b02:	39 07       	cpc	r19, r25
    7b04:	81 f4       	brne	.+32     	; 0x7b26 <_Z20kalkulace_tahu_robotv+0x1e00>
			{
				naber_na_pozici17();
    7b06:	0e 94 fa 27 	call	0x4ff4	; 0x4ff4 <_Z17naber_na_pozici17v>
				syncWait(2000000);
    7b0a:	60 e8       	ldi	r22, 0x80	; 128
    7b0c:	74 e8       	ldi	r23, 0x84	; 132
    7b0e:	8e e1       	ldi	r24, 0x1E	; 30
    7b10:	90 e0       	ldi	r25, 0x00	; 0
    7b12:	0e 94 e1 00 	call	0x1c2	; 0x1c2 <_Z8syncWaitm>
				vyloz_na_pozici18();
    7b16:	0e 94 ef 22 	call	0x45de	; 0x45de <_Z17vyloz_na_pozici18v>
				syncWait(2000000);
    7b1a:	60 e8       	ldi	r22, 0x80	; 128
    7b1c:	74 e8       	ldi	r23, 0x84	; 132
    7b1e:	8e e1       	ldi	r24, 0x1E	; 30
    7b20:	90 e0       	ldi	r25, 0x00	; 0
    7b22:	0e 94 e1 00 	call	0x1c2	; 0x1c2 <_Z8syncWaitm>
				//presun figurku na pozici 18. hraciho pole z pozice 17
			}
		}
	}
	if (A == 21)
    7b26:	80 91 07 04 	lds	r24, 0x0407
    7b2a:	90 91 08 04 	lds	r25, 0x0408
    7b2e:	45 97       	sbiw	r24, 0x15	; 21
    7b30:	09 f0       	breq	.+2      	; 0x7b34 <_Z20kalkulace_tahu_robotv+0x1e0e>
    7b32:	c4 c0       	rjmp	.+392    	; 0x7cbc <_Z20kalkulace_tahu_robotv+0x1f96>
	{
		if(A == TL21_1)
    7b34:	80 91 99 04 	lds	r24, 0x0499
    7b38:	90 91 9a 04 	lds	r25, 0x049A
    7b3c:	45 97       	sbiw	r24, 0x15	; 21
    7b3e:	09 f0       	breq	.+2      	; 0x7b42 <_Z20kalkulace_tahu_robotv+0x1e1c>
    7b40:	bd c0       	rjmp	.+378    	; 0x7cbc <_Z20kalkulace_tahu_robotv+0x1f96>
			}
			if (B == TL13_1)
			{
				//presun figurku na pozici 19. hraciho pole z pozice 11
			}
			if (B == TL14_1)
    7b42:	20 91 09 04 	lds	r18, 0x0409
    7b46:	30 91 0a 04 	lds	r19, 0x040A
    7b4a:	80 91 8b 04 	lds	r24, 0x048B
    7b4e:	90 91 8c 04 	lds	r25, 0x048C
    7b52:	28 17       	cp	r18, r24
    7b54:	39 07       	cpc	r19, r25
    7b56:	81 f4       	brne	.+32     	; 0x7b78 <_Z20kalkulace_tahu_robotv+0x1e52>
			{
				naber_na_pozici12();
    7b58:	0e 94 7c 28 	call	0x50f8	; 0x50f8 <_Z17naber_na_pozici12v>
				syncWait(2000000);
    7b5c:	60 e8       	ldi	r22, 0x80	; 128
    7b5e:	74 e8       	ldi	r23, 0x84	; 132
    7b60:	8e e1       	ldi	r24, 0x1E	; 30
    7b62:	90 e0       	ldi	r25, 0x00	; 0
    7b64:	0e 94 e1 00 	call	0x1c2	; 0x1c2 <_Z8syncWaitm>
				vyloz_na_pozici19();
    7b68:	0e 94 d5 22 	call	0x45aa	; 0x45aa <_Z17vyloz_na_pozici19v>
				syncWait(2000000);
    7b6c:	60 e8       	ldi	r22, 0x80	; 128
    7b6e:	74 e8       	ldi	r23, 0x84	; 132
    7b70:	8e e1       	ldi	r24, 0x1E	; 30
    7b72:	90 e0       	ldi	r25, 0x00	; 0
    7b74:	0e 94 e1 00 	call	0x1c2	; 0x1c2 <_Z8syncWaitm>
				//presun figurku na pozici 19. hraciho pole z pozice 12
			}
			if (B == TL15_1)
    7b78:	20 91 09 04 	lds	r18, 0x0409
    7b7c:	30 91 0a 04 	lds	r19, 0x040A
    7b80:	80 91 8d 04 	lds	r24, 0x048D
    7b84:	90 91 8e 04 	lds	r25, 0x048E
    7b88:	28 17       	cp	r18, r24
    7b8a:	39 07       	cpc	r19, r25
    7b8c:	81 f4       	brne	.+32     	; 0x7bae <_Z20kalkulace_tahu_robotv+0x1e88>
			{
				naber_na_pozici13();
    7b8e:	0e 94 62 28 	call	0x50c4	; 0x50c4 <_Z17naber_na_pozici13v>
				syncWait(2000000);
    7b92:	60 e8       	ldi	r22, 0x80	; 128
    7b94:	74 e8       	ldi	r23, 0x84	; 132
    7b96:	8e e1       	ldi	r24, 0x1E	; 30
    7b98:	90 e0       	ldi	r25, 0x00	; 0
    7b9a:	0e 94 e1 00 	call	0x1c2	; 0x1c2 <_Z8syncWaitm>
				vyloz_na_pozici19();
    7b9e:	0e 94 d5 22 	call	0x45aa	; 0x45aa <_Z17vyloz_na_pozici19v>
				syncWait(2000000);
    7ba2:	60 e8       	ldi	r22, 0x80	; 128
    7ba4:	74 e8       	ldi	r23, 0x84	; 132
    7ba6:	8e e1       	ldi	r24, 0x1E	; 30
    7ba8:	90 e0       	ldi	r25, 0x00	; 0
    7baa:	0e 94 e1 00 	call	0x1c2	; 0x1c2 <_Z8syncWaitm>
				//presun figurku na pozici 19. hraciho pole z pozice 13
			}
			if (B == TL16_1)
    7bae:	20 91 09 04 	lds	r18, 0x0409
    7bb2:	30 91 0a 04 	lds	r19, 0x040A
    7bb6:	80 91 8f 04 	lds	r24, 0x048F
    7bba:	90 91 90 04 	lds	r25, 0x0490
    7bbe:	28 17       	cp	r18, r24
    7bc0:	39 07       	cpc	r19, r25
    7bc2:	81 f4       	brne	.+32     	; 0x7be4 <_Z20kalkulace_tahu_robotv+0x1ebe>
			{
				naber_na_pozici14();
    7bc4:	0e 94 48 28 	call	0x5090	; 0x5090 <_Z17naber_na_pozici14v>
				syncWait(2000000);
    7bc8:	60 e8       	ldi	r22, 0x80	; 128
    7bca:	74 e8       	ldi	r23, 0x84	; 132
    7bcc:	8e e1       	ldi	r24, 0x1E	; 30
    7bce:	90 e0       	ldi	r25, 0x00	; 0
    7bd0:	0e 94 e1 00 	call	0x1c2	; 0x1c2 <_Z8syncWaitm>
				vyloz_na_pozici19();
    7bd4:	0e 94 d5 22 	call	0x45aa	; 0x45aa <_Z17vyloz_na_pozici19v>
				syncWait(2000000);
    7bd8:	60 e8       	ldi	r22, 0x80	; 128
    7bda:	74 e8       	ldi	r23, 0x84	; 132
    7bdc:	8e e1       	ldi	r24, 0x1E	; 30
    7bde:	90 e0       	ldi	r25, 0x00	; 0
    7be0:	0e 94 e1 00 	call	0x1c2	; 0x1c2 <_Z8syncWaitm>
				//presun figurku na pozici 19. hraciho pole z pozice 14
			}
			if (B == TL17_1)
    7be4:	20 91 09 04 	lds	r18, 0x0409
    7be8:	30 91 0a 04 	lds	r19, 0x040A
    7bec:	80 91 91 04 	lds	r24, 0x0491
    7bf0:	90 91 92 04 	lds	r25, 0x0492
    7bf4:	28 17       	cp	r18, r24
    7bf6:	39 07       	cpc	r19, r25
    7bf8:	81 f4       	brne	.+32     	; 0x7c1a <_Z20kalkulace_tahu_robotv+0x1ef4>
			{
				naber_na_pozici15();
    7bfa:	0e 94 2e 28 	call	0x505c	; 0x505c <_Z17naber_na_pozici15v>
				syncWait(2000000);
    7bfe:	60 e8       	ldi	r22, 0x80	; 128
    7c00:	74 e8       	ldi	r23, 0x84	; 132
    7c02:	8e e1       	ldi	r24, 0x1E	; 30
    7c04:	90 e0       	ldi	r25, 0x00	; 0
    7c06:	0e 94 e1 00 	call	0x1c2	; 0x1c2 <_Z8syncWaitm>
				vyloz_na_pozici19();
    7c0a:	0e 94 d5 22 	call	0x45aa	; 0x45aa <_Z17vyloz_na_pozici19v>
				syncWait(2000000);
    7c0e:	60 e8       	ldi	r22, 0x80	; 128
    7c10:	74 e8       	ldi	r23, 0x84	; 132
    7c12:	8e e1       	ldi	r24, 0x1E	; 30
    7c14:	90 e0       	ldi	r25, 0x00	; 0
    7c16:	0e 94 e1 00 	call	0x1c2	; 0x1c2 <_Z8syncWaitm>
				//presun figurku na pozici 19. hraciho pole z pozice 15
			}
			if (B == TL18_1)
    7c1a:	20 91 09 04 	lds	r18, 0x0409
    7c1e:	30 91 0a 04 	lds	r19, 0x040A
    7c22:	80 91 93 04 	lds	r24, 0x0493
    7c26:	90 91 94 04 	lds	r25, 0x0494
    7c2a:	28 17       	cp	r18, r24
    7c2c:	39 07       	cpc	r19, r25
    7c2e:	81 f4       	brne	.+32     	; 0x7c50 <_Z20kalkulace_tahu_robotv+0x1f2a>
			{
				naber_na_pozici16();
    7c30:	0e 94 14 28 	call	0x5028	; 0x5028 <_Z17naber_na_pozici16v>
				syncWait(2000000);
    7c34:	60 e8       	ldi	r22, 0x80	; 128
    7c36:	74 e8       	ldi	r23, 0x84	; 132
    7c38:	8e e1       	ldi	r24, 0x1E	; 30
    7c3a:	90 e0       	ldi	r25, 0x00	; 0
    7c3c:	0e 94 e1 00 	call	0x1c2	; 0x1c2 <_Z8syncWaitm>
				vyloz_na_pozici19();
    7c40:	0e 94 d5 22 	call	0x45aa	; 0x45aa <_Z17vyloz_na_pozici19v>
				syncWait(2000000);
    7c44:	60 e8       	ldi	r22, 0x80	; 128
    7c46:	74 e8       	ldi	r23, 0x84	; 132
    7c48:	8e e1       	ldi	r24, 0x1E	; 30
    7c4a:	90 e0       	ldi	r25, 0x00	; 0
    7c4c:	0e 94 e1 00 	call	0x1c2	; 0x1c2 <_Z8syncWaitm>
				//presun figurku na pozici 19. hraciho pole z pozice 16
			}
			if (B == TL19_1)
    7c50:	20 91 09 04 	lds	r18, 0x0409
    7c54:	30 91 0a 04 	lds	r19, 0x040A
    7c58:	80 91 95 04 	lds	r24, 0x0495
    7c5c:	90 91 96 04 	lds	r25, 0x0496
    7c60:	28 17       	cp	r18, r24
    7c62:	39 07       	cpc	r19, r25
    7c64:	81 f4       	brne	.+32     	; 0x7c86 <_Z20kalkulace_tahu_robotv+0x1f60>
			{
				naber_na_pozici17();
    7c66:	0e 94 fa 27 	call	0x4ff4	; 0x4ff4 <_Z17naber_na_pozici17v>
				syncWait(2000000);
    7c6a:	60 e8       	ldi	r22, 0x80	; 128
    7c6c:	74 e8       	ldi	r23, 0x84	; 132
    7c6e:	8e e1       	ldi	r24, 0x1E	; 30
    7c70:	90 e0       	ldi	r25, 0x00	; 0
    7c72:	0e 94 e1 00 	call	0x1c2	; 0x1c2 <_Z8syncWaitm>
				vyloz_na_pozici19();
    7c76:	0e 94 d5 22 	call	0x45aa	; 0x45aa <_Z17vyloz_na_pozici19v>
				syncWait(2000000);
    7c7a:	60 e8       	ldi	r22, 0x80	; 128
    7c7c:	74 e8       	ldi	r23, 0x84	; 132
    7c7e:	8e e1       	ldi	r24, 0x1E	; 30
    7c80:	90 e0       	ldi	r25, 0x00	; 0
    7c82:	0e 94 e1 00 	call	0x1c2	; 0x1c2 <_Z8syncWaitm>
				//presun figurku na pozici 19. hraciho pole z pozice 17
			}
			if (B == TL20_1)
    7c86:	20 91 09 04 	lds	r18, 0x0409
    7c8a:	30 91 0a 04 	lds	r19, 0x040A
    7c8e:	80 91 97 04 	lds	r24, 0x0497
    7c92:	90 91 98 04 	lds	r25, 0x0498
    7c96:	28 17       	cp	r18, r24
    7c98:	39 07       	cpc	r19, r25
    7c9a:	81 f4       	brne	.+32     	; 0x7cbc <_Z20kalkulace_tahu_robotv+0x1f96>
			{
				naber_na_pozici18();
    7c9c:	0e 94 e0 27 	call	0x4fc0	; 0x4fc0 <_Z17naber_na_pozici18v>
				syncWait(2000000);
    7ca0:	60 e8       	ldi	r22, 0x80	; 128
    7ca2:	74 e8       	ldi	r23, 0x84	; 132
    7ca4:	8e e1       	ldi	r24, 0x1E	; 30
    7ca6:	90 e0       	ldi	r25, 0x00	; 0
    7ca8:	0e 94 e1 00 	call	0x1c2	; 0x1c2 <_Z8syncWaitm>
				vyloz_na_pozici19();
    7cac:	0e 94 d5 22 	call	0x45aa	; 0x45aa <_Z17vyloz_na_pozici19v>
				syncWait(2000000);
    7cb0:	60 e8       	ldi	r22, 0x80	; 128
    7cb2:	74 e8       	ldi	r23, 0x84	; 132
    7cb4:	8e e1       	ldi	r24, 0x1E	; 30
    7cb6:	90 e0       	ldi	r25, 0x00	; 0
    7cb8:	0e 94 e1 00 	call	0x1c2	; 0x1c2 <_Z8syncWaitm>
				//presun figurku na pozici 19. hraciho pole z pozice 18
			}
		}
	}
	if (A == 22)
    7cbc:	80 91 07 04 	lds	r24, 0x0407
    7cc0:	90 91 08 04 	lds	r25, 0x0408
    7cc4:	46 97       	sbiw	r24, 0x16	; 22
    7cc6:	09 f0       	breq	.+2      	; 0x7cca <_Z20kalkulace_tahu_robotv+0x1fa4>
    7cc8:	c4 c0       	rjmp	.+392    	; 0x7e52 <_Z20kalkulace_tahu_robotv+0x212c>
	{
		if(A == TL22_1)
    7cca:	80 91 9b 04 	lds	r24, 0x049B
    7cce:	90 91 9c 04 	lds	r25, 0x049C
    7cd2:	46 97       	sbiw	r24, 0x16	; 22
    7cd4:	09 f0       	breq	.+2      	; 0x7cd8 <_Z20kalkulace_tahu_robotv+0x1fb2>
    7cd6:	bd c0       	rjmp	.+378    	; 0x7e52 <_Z20kalkulace_tahu_robotv+0x212c>
			}
			if (B == TL14_1)
			{
				//presun figurku na pozici 20. hraciho pole z pozice 12
			}
			if (B == TL15_1)
    7cd8:	20 91 09 04 	lds	r18, 0x0409
    7cdc:	30 91 0a 04 	lds	r19, 0x040A
    7ce0:	80 91 8d 04 	lds	r24, 0x048D
    7ce4:	90 91 8e 04 	lds	r25, 0x048E
    7ce8:	28 17       	cp	r18, r24
    7cea:	39 07       	cpc	r19, r25
    7cec:	81 f4       	brne	.+32     	; 0x7d0e <_Z20kalkulace_tahu_robotv+0x1fe8>
			{
				naber_na_pozici13();
    7cee:	0e 94 62 28 	call	0x50c4	; 0x50c4 <_Z17naber_na_pozici13v>
				syncWait(2000000);
    7cf2:	60 e8       	ldi	r22, 0x80	; 128
    7cf4:	74 e8       	ldi	r23, 0x84	; 132
    7cf6:	8e e1       	ldi	r24, 0x1E	; 30
    7cf8:	90 e0       	ldi	r25, 0x00	; 0
    7cfa:	0e 94 e1 00 	call	0x1c2	; 0x1c2 <_Z8syncWaitm>
				vyloz_na_pozici20();
    7cfe:	0e 94 bb 22 	call	0x4576	; 0x4576 <_Z17vyloz_na_pozici20v>
				syncWait(2000000);
    7d02:	60 e8       	ldi	r22, 0x80	; 128
    7d04:	74 e8       	ldi	r23, 0x84	; 132
    7d06:	8e e1       	ldi	r24, 0x1E	; 30
    7d08:	90 e0       	ldi	r25, 0x00	; 0
    7d0a:	0e 94 e1 00 	call	0x1c2	; 0x1c2 <_Z8syncWaitm>
				//presun figurku na pozici 20. hraciho pole z pozice 13
			}
			if (B == TL16_1)
    7d0e:	20 91 09 04 	lds	r18, 0x0409
    7d12:	30 91 0a 04 	lds	r19, 0x040A
    7d16:	80 91 8f 04 	lds	r24, 0x048F
    7d1a:	90 91 90 04 	lds	r25, 0x0490
    7d1e:	28 17       	cp	r18, r24
    7d20:	39 07       	cpc	r19, r25
    7d22:	81 f4       	brne	.+32     	; 0x7d44 <_Z20kalkulace_tahu_robotv+0x201e>
			{
				naber_na_pozici14();
    7d24:	0e 94 48 28 	call	0x5090	; 0x5090 <_Z17naber_na_pozici14v>
				syncWait(2000000);
    7d28:	60 e8       	ldi	r22, 0x80	; 128
    7d2a:	74 e8       	ldi	r23, 0x84	; 132
    7d2c:	8e e1       	ldi	r24, 0x1E	; 30
    7d2e:	90 e0       	ldi	r25, 0x00	; 0
    7d30:	0e 94 e1 00 	call	0x1c2	; 0x1c2 <_Z8syncWaitm>
				vyloz_na_pozici20();
    7d34:	0e 94 bb 22 	call	0x4576	; 0x4576 <_Z17vyloz_na_pozici20v>
				syncWait(2000000);
    7d38:	60 e8       	ldi	r22, 0x80	; 128
    7d3a:	74 e8       	ldi	r23, 0x84	; 132
    7d3c:	8e e1       	ldi	r24, 0x1E	; 30
    7d3e:	90 e0       	ldi	r25, 0x00	; 0
    7d40:	0e 94 e1 00 	call	0x1c2	; 0x1c2 <_Z8syncWaitm>
				//presun figurku na pozici 20. hraciho pole z pozice 14
			}
			if (B == TL17_1)
    7d44:	20 91 09 04 	lds	r18, 0x0409
    7d48:	30 91 0a 04 	lds	r19, 0x040A
    7d4c:	80 91 91 04 	lds	r24, 0x0491
    7d50:	90 91 92 04 	lds	r25, 0x0492
    7d54:	28 17       	cp	r18, r24
    7d56:	39 07       	cpc	r19, r25
    7d58:	81 f4       	brne	.+32     	; 0x7d7a <_Z20kalkulace_tahu_robotv+0x2054>
			{
				naber_na_pozici15();
    7d5a:	0e 94 2e 28 	call	0x505c	; 0x505c <_Z17naber_na_pozici15v>
				syncWait(2000000);
    7d5e:	60 e8       	ldi	r22, 0x80	; 128
    7d60:	74 e8       	ldi	r23, 0x84	; 132
    7d62:	8e e1       	ldi	r24, 0x1E	; 30
    7d64:	90 e0       	ldi	r25, 0x00	; 0
    7d66:	0e 94 e1 00 	call	0x1c2	; 0x1c2 <_Z8syncWaitm>
				vyloz_na_pozici20();
    7d6a:	0e 94 bb 22 	call	0x4576	; 0x4576 <_Z17vyloz_na_pozici20v>
				syncWait(2000000);
    7d6e:	60 e8       	ldi	r22, 0x80	; 128
    7d70:	74 e8       	ldi	r23, 0x84	; 132
    7d72:	8e e1       	ldi	r24, 0x1E	; 30
    7d74:	90 e0       	ldi	r25, 0x00	; 0
    7d76:	0e 94 e1 00 	call	0x1c2	; 0x1c2 <_Z8syncWaitm>
				//presun figurku na pozici 20. hraciho pole z pozice 15
			}
			if (B == TL18_1)
    7d7a:	20 91 09 04 	lds	r18, 0x0409
    7d7e:	30 91 0a 04 	lds	r19, 0x040A
    7d82:	80 91 93 04 	lds	r24, 0x0493
    7d86:	90 91 94 04 	lds	r25, 0x0494
    7d8a:	28 17       	cp	r18, r24
    7d8c:	39 07       	cpc	r19, r25
    7d8e:	81 f4       	brne	.+32     	; 0x7db0 <_Z20kalkulace_tahu_robotv+0x208a>
			{
				naber_na_pozici16();
    7d90:	0e 94 14 28 	call	0x5028	; 0x5028 <_Z17naber_na_pozici16v>
				syncWait(2000000);
    7d94:	60 e8       	ldi	r22, 0x80	; 128
    7d96:	74 e8       	ldi	r23, 0x84	; 132
    7d98:	8e e1       	ldi	r24, 0x1E	; 30
    7d9a:	90 e0       	ldi	r25, 0x00	; 0
    7d9c:	0e 94 e1 00 	call	0x1c2	; 0x1c2 <_Z8syncWaitm>
				vyloz_na_pozici20();
    7da0:	0e 94 bb 22 	call	0x4576	; 0x4576 <_Z17vyloz_na_pozici20v>
				syncWait(2000000);
    7da4:	60 e8       	ldi	r22, 0x80	; 128
    7da6:	74 e8       	ldi	r23, 0x84	; 132
    7da8:	8e e1       	ldi	r24, 0x1E	; 30
    7daa:	90 e0       	ldi	r25, 0x00	; 0
    7dac:	0e 94 e1 00 	call	0x1c2	; 0x1c2 <_Z8syncWaitm>
				//presun figurku na pozici 20. hraciho pole z pozice 16
			}
			if (B == TL19_1)
    7db0:	20 91 09 04 	lds	r18, 0x0409
    7db4:	30 91 0a 04 	lds	r19, 0x040A
    7db8:	80 91 95 04 	lds	r24, 0x0495
    7dbc:	90 91 96 04 	lds	r25, 0x0496
    7dc0:	28 17       	cp	r18, r24
    7dc2:	39 07       	cpc	r19, r25
    7dc4:	81 f4       	brne	.+32     	; 0x7de6 <_Z20kalkulace_tahu_robotv+0x20c0>
			{
				naber_na_pozici17();
    7dc6:	0e 94 fa 27 	call	0x4ff4	; 0x4ff4 <_Z17naber_na_pozici17v>
				syncWait(2000000);
    7dca:	60 e8       	ldi	r22, 0x80	; 128
    7dcc:	74 e8       	ldi	r23, 0x84	; 132
    7dce:	8e e1       	ldi	r24, 0x1E	; 30
    7dd0:	90 e0       	ldi	r25, 0x00	; 0
    7dd2:	0e 94 e1 00 	call	0x1c2	; 0x1c2 <_Z8syncWaitm>
				vyloz_na_pozici20();
    7dd6:	0e 94 bb 22 	call	0x4576	; 0x4576 <_Z17vyloz_na_pozici20v>
				syncWait(2000000);
    7dda:	60 e8       	ldi	r22, 0x80	; 128
    7ddc:	74 e8       	ldi	r23, 0x84	; 132
    7dde:	8e e1       	ldi	r24, 0x1E	; 30
    7de0:	90 e0       	ldi	r25, 0x00	; 0
    7de2:	0e 94 e1 00 	call	0x1c2	; 0x1c2 <_Z8syncWaitm>
				//presun figurku na pozici 20. hraciho pole z pozice 17
			}
			if (B == TL20_1)
    7de6:	20 91 09 04 	lds	r18, 0x0409
    7dea:	30 91 0a 04 	lds	r19, 0x040A
    7dee:	80 91 97 04 	lds	r24, 0x0497
    7df2:	90 91 98 04 	lds	r25, 0x0498
    7df6:	28 17       	cp	r18, r24
    7df8:	39 07       	cpc	r19, r25
    7dfa:	81 f4       	brne	.+32     	; 0x7e1c <_Z20kalkulace_tahu_robotv+0x20f6>
			{
				naber_na_pozici18();
    7dfc:	0e 94 e0 27 	call	0x4fc0	; 0x4fc0 <_Z17naber_na_pozici18v>
				syncWait(2000000);
    7e00:	60 e8       	ldi	r22, 0x80	; 128
    7e02:	74 e8       	ldi	r23, 0x84	; 132
    7e04:	8e e1       	ldi	r24, 0x1E	; 30
    7e06:	90 e0       	ldi	r25, 0x00	; 0
    7e08:	0e 94 e1 00 	call	0x1c2	; 0x1c2 <_Z8syncWaitm>
				vyloz_na_pozici20();
    7e0c:	0e 94 bb 22 	call	0x4576	; 0x4576 <_Z17vyloz_na_pozici20v>
				syncWait(2000000);
    7e10:	60 e8       	ldi	r22, 0x80	; 128
    7e12:	74 e8       	ldi	r23, 0x84	; 132
    7e14:	8e e1       	ldi	r24, 0x1E	; 30
    7e16:	90 e0       	ldi	r25, 0x00	; 0
    7e18:	0e 94 e1 00 	call	0x1c2	; 0x1c2 <_Z8syncWaitm>
				//presun figurku na pozici 20. hraciho pole z pozice 18
			}
			if (B == TL21_1)
    7e1c:	20 91 09 04 	lds	r18, 0x0409
    7e20:	30 91 0a 04 	lds	r19, 0x040A
    7e24:	80 91 99 04 	lds	r24, 0x0499
    7e28:	90 91 9a 04 	lds	r25, 0x049A
    7e2c:	28 17       	cp	r18, r24
    7e2e:	39 07       	cpc	r19, r25
    7e30:	81 f4       	brne	.+32     	; 0x7e52 <_Z20kalkulace_tahu_robotv+0x212c>
			{
				naber_na_pozici19();
    7e32:	0e 94 c6 27 	call	0x4f8c	; 0x4f8c <_Z17naber_na_pozici19v>
				syncWait(2000000);
    7e36:	60 e8       	ldi	r22, 0x80	; 128
    7e38:	74 e8       	ldi	r23, 0x84	; 132
    7e3a:	8e e1       	ldi	r24, 0x1E	; 30
    7e3c:	90 e0       	ldi	r25, 0x00	; 0
    7e3e:	0e 94 e1 00 	call	0x1c2	; 0x1c2 <_Z8syncWaitm>
				vyloz_na_pozici20();
    7e42:	0e 94 bb 22 	call	0x4576	; 0x4576 <_Z17vyloz_na_pozici20v>
				syncWait(2000000);
    7e46:	60 e8       	ldi	r22, 0x80	; 128
    7e48:	74 e8       	ldi	r23, 0x84	; 132
    7e4a:	8e e1       	ldi	r24, 0x1E	; 30
    7e4c:	90 e0       	ldi	r25, 0x00	; 0
    7e4e:	0e 94 e1 00 	call	0x1c2	; 0x1c2 <_Z8syncWaitm>
				//presun figurku na pozici 20. hraciho pole z pozice 19
			}
		}
	}
	if (A == 23)
    7e52:	80 91 07 04 	lds	r24, 0x0407
    7e56:	90 91 08 04 	lds	r25, 0x0408
    7e5a:	47 97       	sbiw	r24, 0x17	; 23
    7e5c:	09 f0       	breq	.+2      	; 0x7e60 <_Z20kalkulace_tahu_robotv+0x213a>
    7e5e:	c4 c0       	rjmp	.+392    	; 0x7fe8 <_Z20kalkulace_tahu_robotv+0x22c2>
	{
		if(A == TL23_1)
    7e60:	80 91 9d 04 	lds	r24, 0x049D
    7e64:	90 91 9e 04 	lds	r25, 0x049E
    7e68:	47 97       	sbiw	r24, 0x17	; 23
    7e6a:	09 f0       	breq	.+2      	; 0x7e6e <_Z20kalkulace_tahu_robotv+0x2148>
    7e6c:	bd c0       	rjmp	.+378    	; 0x7fe8 <_Z20kalkulace_tahu_robotv+0x22c2>
			}
			if (B == TL15_1)
			{
				//presun figurku na pozici 21. hraciho pole z pozice 13
			}
			if (B == TL16_1)
    7e6e:	20 91 09 04 	lds	r18, 0x0409
    7e72:	30 91 0a 04 	lds	r19, 0x040A
    7e76:	80 91 8f 04 	lds	r24, 0x048F
    7e7a:	90 91 90 04 	lds	r25, 0x0490
    7e7e:	28 17       	cp	r18, r24
    7e80:	39 07       	cpc	r19, r25
    7e82:	81 f4       	brne	.+32     	; 0x7ea4 <_Z20kalkulace_tahu_robotv+0x217e>
			{
				naber_na_pozici14();
    7e84:	0e 94 48 28 	call	0x5090	; 0x5090 <_Z17naber_na_pozici14v>
				syncWait(2000000);
    7e88:	60 e8       	ldi	r22, 0x80	; 128
    7e8a:	74 e8       	ldi	r23, 0x84	; 132
    7e8c:	8e e1       	ldi	r24, 0x1E	; 30
    7e8e:	90 e0       	ldi	r25, 0x00	; 0
    7e90:	0e 94 e1 00 	call	0x1c2	; 0x1c2 <_Z8syncWaitm>
				vyloz_na_pozici21();
    7e94:	0e 94 a1 22 	call	0x4542	; 0x4542 <_Z17vyloz_na_pozici21v>
				syncWait(2000000);
    7e98:	60 e8       	ldi	r22, 0x80	; 128
    7e9a:	74 e8       	ldi	r23, 0x84	; 132
    7e9c:	8e e1       	ldi	r24, 0x1E	; 30
    7e9e:	90 e0       	ldi	r25, 0x00	; 0
    7ea0:	0e 94 e1 00 	call	0x1c2	; 0x1c2 <_Z8syncWaitm>
				//presun figurku na pozici 21. hraciho pole z pozice 14
			}
			if (B == TL17_1)
    7ea4:	20 91 09 04 	lds	r18, 0x0409
    7ea8:	30 91 0a 04 	lds	r19, 0x040A
    7eac:	80 91 91 04 	lds	r24, 0x0491
    7eb0:	90 91 92 04 	lds	r25, 0x0492
    7eb4:	28 17       	cp	r18, r24
    7eb6:	39 07       	cpc	r19, r25
    7eb8:	81 f4       	brne	.+32     	; 0x7eda <_Z20kalkulace_tahu_robotv+0x21b4>
			{
				naber_na_pozici15();
    7eba:	0e 94 2e 28 	call	0x505c	; 0x505c <_Z17naber_na_pozici15v>
				syncWait(2000000);
    7ebe:	60 e8       	ldi	r22, 0x80	; 128
    7ec0:	74 e8       	ldi	r23, 0x84	; 132
    7ec2:	8e e1       	ldi	r24, 0x1E	; 30
    7ec4:	90 e0       	ldi	r25, 0x00	; 0
    7ec6:	0e 94 e1 00 	call	0x1c2	; 0x1c2 <_Z8syncWaitm>
				vyloz_na_pozici21();
    7eca:	0e 94 a1 22 	call	0x4542	; 0x4542 <_Z17vyloz_na_pozici21v>
				syncWait(2000000);
    7ece:	60 e8       	ldi	r22, 0x80	; 128
    7ed0:	74 e8       	ldi	r23, 0x84	; 132
    7ed2:	8e e1       	ldi	r24, 0x1E	; 30
    7ed4:	90 e0       	ldi	r25, 0x00	; 0
    7ed6:	0e 94 e1 00 	call	0x1c2	; 0x1c2 <_Z8syncWaitm>
				//presun figurku na pozici 21. hraciho pole z pozice 15
			}
			if (B == TL18_1)
    7eda:	20 91 09 04 	lds	r18, 0x0409
    7ede:	30 91 0a 04 	lds	r19, 0x040A
    7ee2:	80 91 93 04 	lds	r24, 0x0493
    7ee6:	90 91 94 04 	lds	r25, 0x0494
    7eea:	28 17       	cp	r18, r24
    7eec:	39 07       	cpc	r19, r25
    7eee:	81 f4       	brne	.+32     	; 0x7f10 <_Z20kalkulace_tahu_robotv+0x21ea>
			{
				naber_na_pozici16();
    7ef0:	0e 94 14 28 	call	0x5028	; 0x5028 <_Z17naber_na_pozici16v>
				syncWait(2000000);
    7ef4:	60 e8       	ldi	r22, 0x80	; 128
    7ef6:	74 e8       	ldi	r23, 0x84	; 132
    7ef8:	8e e1       	ldi	r24, 0x1E	; 30
    7efa:	90 e0       	ldi	r25, 0x00	; 0
    7efc:	0e 94 e1 00 	call	0x1c2	; 0x1c2 <_Z8syncWaitm>
				vyloz_na_pozici21();
    7f00:	0e 94 a1 22 	call	0x4542	; 0x4542 <_Z17vyloz_na_pozici21v>
				syncWait(2000000);
    7f04:	60 e8       	ldi	r22, 0x80	; 128
    7f06:	74 e8       	ldi	r23, 0x84	; 132
    7f08:	8e e1       	ldi	r24, 0x1E	; 30
    7f0a:	90 e0       	ldi	r25, 0x00	; 0
    7f0c:	0e 94 e1 00 	call	0x1c2	; 0x1c2 <_Z8syncWaitm>
				//presun figurku na pozici 21. hraciho pole z pozice 16
			}
			if (B == TL19_1)
    7f10:	20 91 09 04 	lds	r18, 0x0409
    7f14:	30 91 0a 04 	lds	r19, 0x040A
    7f18:	80 91 95 04 	lds	r24, 0x0495
    7f1c:	90 91 96 04 	lds	r25, 0x0496
    7f20:	28 17       	cp	r18, r24
    7f22:	39 07       	cpc	r19, r25
    7f24:	81 f4       	brne	.+32     	; 0x7f46 <_Z20kalkulace_tahu_robotv+0x2220>
			{
				naber_na_pozici17();
    7f26:	0e 94 fa 27 	call	0x4ff4	; 0x4ff4 <_Z17naber_na_pozici17v>
				syncWait(2000000);
    7f2a:	60 e8       	ldi	r22, 0x80	; 128
    7f2c:	74 e8       	ldi	r23, 0x84	; 132
    7f2e:	8e e1       	ldi	r24, 0x1E	; 30
    7f30:	90 e0       	ldi	r25, 0x00	; 0
    7f32:	0e 94 e1 00 	call	0x1c2	; 0x1c2 <_Z8syncWaitm>
				vyloz_na_pozici21();
    7f36:	0e 94 a1 22 	call	0x4542	; 0x4542 <_Z17vyloz_na_pozici21v>
				syncWait(2000000);
    7f3a:	60 e8       	ldi	r22, 0x80	; 128
    7f3c:	74 e8       	ldi	r23, 0x84	; 132
    7f3e:	8e e1       	ldi	r24, 0x1E	; 30
    7f40:	90 e0       	ldi	r25, 0x00	; 0
    7f42:	0e 94 e1 00 	call	0x1c2	; 0x1c2 <_Z8syncWaitm>
				//presun figurku na pozici 21. hraciho pole z pozice 17
			}
			if (B == TL20_1)
    7f46:	20 91 09 04 	lds	r18, 0x0409
    7f4a:	30 91 0a 04 	lds	r19, 0x040A
    7f4e:	80 91 97 04 	lds	r24, 0x0497
    7f52:	90 91 98 04 	lds	r25, 0x0498
    7f56:	28 17       	cp	r18, r24
    7f58:	39 07       	cpc	r19, r25
    7f5a:	81 f4       	brne	.+32     	; 0x7f7c <_Z20kalkulace_tahu_robotv+0x2256>
			{
				naber_na_pozici18();
    7f5c:	0e 94 e0 27 	call	0x4fc0	; 0x4fc0 <_Z17naber_na_pozici18v>
				syncWait(2000000);
    7f60:	60 e8       	ldi	r22, 0x80	; 128
    7f62:	74 e8       	ldi	r23, 0x84	; 132
    7f64:	8e e1       	ldi	r24, 0x1E	; 30
    7f66:	90 e0       	ldi	r25, 0x00	; 0
    7f68:	0e 94 e1 00 	call	0x1c2	; 0x1c2 <_Z8syncWaitm>
				vyloz_na_pozici21();
    7f6c:	0e 94 a1 22 	call	0x4542	; 0x4542 <_Z17vyloz_na_pozici21v>
				syncWait(2000000);
    7f70:	60 e8       	ldi	r22, 0x80	; 128
    7f72:	74 e8       	ldi	r23, 0x84	; 132
    7f74:	8e e1       	ldi	r24, 0x1E	; 30
    7f76:	90 e0       	ldi	r25, 0x00	; 0
    7f78:	0e 94 e1 00 	call	0x1c2	; 0x1c2 <_Z8syncWaitm>
				//presun figurku na pozici 21. hraciho pole z pozice 18
			}
			if (B == TL21_1)
    7f7c:	20 91 09 04 	lds	r18, 0x0409
    7f80:	30 91 0a 04 	lds	r19, 0x040A
    7f84:	80 91 99 04 	lds	r24, 0x0499
    7f88:	90 91 9a 04 	lds	r25, 0x049A
    7f8c:	28 17       	cp	r18, r24
    7f8e:	39 07       	cpc	r19, r25
    7f90:	81 f4       	brne	.+32     	; 0x7fb2 <_Z20kalkulace_tahu_robotv+0x228c>
			{
				naber_na_pozici19();
    7f92:	0e 94 c6 27 	call	0x4f8c	; 0x4f8c <_Z17naber_na_pozici19v>
				syncWait(2000000);
    7f96:	60 e8       	ldi	r22, 0x80	; 128
    7f98:	74 e8       	ldi	r23, 0x84	; 132
    7f9a:	8e e1       	ldi	r24, 0x1E	; 30
    7f9c:	90 e0       	ldi	r25, 0x00	; 0
    7f9e:	0e 94 e1 00 	call	0x1c2	; 0x1c2 <_Z8syncWaitm>
				vyloz_na_pozici21();
    7fa2:	0e 94 a1 22 	call	0x4542	; 0x4542 <_Z17vyloz_na_pozici21v>
				syncWait(2000000);
    7fa6:	60 e8       	ldi	r22, 0x80	; 128
    7fa8:	74 e8       	ldi	r23, 0x84	; 132
    7faa:	8e e1       	ldi	r24, 0x1E	; 30
    7fac:	90 e0       	ldi	r25, 0x00	; 0
    7fae:	0e 94 e1 00 	call	0x1c2	; 0x1c2 <_Z8syncWaitm>
				//presun figurku na pozici 21. hraciho pole z pozice 19
			}
			if (B == TL22_1)
    7fb2:	20 91 09 04 	lds	r18, 0x0409
    7fb6:	30 91 0a 04 	lds	r19, 0x040A
    7fba:	80 91 9b 04 	lds	r24, 0x049B
    7fbe:	90 91 9c 04 	lds	r25, 0x049C
    7fc2:	28 17       	cp	r18, r24
    7fc4:	39 07       	cpc	r19, r25
    7fc6:	81 f4       	brne	.+32     	; 0x7fe8 <_Z20kalkulace_tahu_robotv+0x22c2>
			{
				naber_na_pozici20();
    7fc8:	0e 94 ac 27 	call	0x4f58	; 0x4f58 <_Z17naber_na_pozici20v>
				syncWait(2000000);
    7fcc:	60 e8       	ldi	r22, 0x80	; 128
    7fce:	74 e8       	ldi	r23, 0x84	; 132
    7fd0:	8e e1       	ldi	r24, 0x1E	; 30
    7fd2:	90 e0       	ldi	r25, 0x00	; 0
    7fd4:	0e 94 e1 00 	call	0x1c2	; 0x1c2 <_Z8syncWaitm>
				vyloz_na_pozici21();
    7fd8:	0e 94 a1 22 	call	0x4542	; 0x4542 <_Z17vyloz_na_pozici21v>
				syncWait(2000000);
    7fdc:	60 e8       	ldi	r22, 0x80	; 128
    7fde:	74 e8       	ldi	r23, 0x84	; 132
    7fe0:	8e e1       	ldi	r24, 0x1E	; 30
    7fe2:	90 e0       	ldi	r25, 0x00	; 0
    7fe4:	0e 94 e1 00 	call	0x1c2	; 0x1c2 <_Z8syncWaitm>
				//presun figurku na pozici 21. hraciho pole z pozice 20
			}
		}
	}
	if (A == 24)
    7fe8:	80 91 07 04 	lds	r24, 0x0407
    7fec:	90 91 08 04 	lds	r25, 0x0408
    7ff0:	48 97       	sbiw	r24, 0x18	; 24
    7ff2:	09 f0       	breq	.+2      	; 0x7ff6 <_Z20kalkulace_tahu_robotv+0x22d0>
    7ff4:	c4 c0       	rjmp	.+392    	; 0x817e <_Z20kalkulace_tahu_robotv+0x2458>
	{
		if(A == TL24_1)
    7ff6:	80 91 9f 04 	lds	r24, 0x049F
    7ffa:	90 91 a0 04 	lds	r25, 0x04A0
    7ffe:	48 97       	sbiw	r24, 0x18	; 24
    8000:	09 f0       	breq	.+2      	; 0x8004 <_Z20kalkulace_tahu_robotv+0x22de>
    8002:	bd c0       	rjmp	.+378    	; 0x817e <_Z20kalkulace_tahu_robotv+0x2458>
			}
			if (B == TL16_1)
			{
				//presun figurku na pozici 22. hraciho pole z pozice 14
			}
			if (B == TL17_1)
    8004:	20 91 09 04 	lds	r18, 0x0409
    8008:	30 91 0a 04 	lds	r19, 0x040A
    800c:	80 91 91 04 	lds	r24, 0x0491
    8010:	90 91 92 04 	lds	r25, 0x0492
    8014:	28 17       	cp	r18, r24
    8016:	39 07       	cpc	r19, r25
    8018:	81 f4       	brne	.+32     	; 0x803a <_Z20kalkulace_tahu_robotv+0x2314>
			{
				naber_na_pozici15();
    801a:	0e 94 2e 28 	call	0x505c	; 0x505c <_Z17naber_na_pozici15v>
				syncWait(2000000);
    801e:	60 e8       	ldi	r22, 0x80	; 128
    8020:	74 e8       	ldi	r23, 0x84	; 132
    8022:	8e e1       	ldi	r24, 0x1E	; 30
    8024:	90 e0       	ldi	r25, 0x00	; 0
    8026:	0e 94 e1 00 	call	0x1c2	; 0x1c2 <_Z8syncWaitm>
				vyloz_na_pozici22();
    802a:	0e 94 87 22 	call	0x450e	; 0x450e <_Z17vyloz_na_pozici22v>
				syncWait(2000000);
    802e:	60 e8       	ldi	r22, 0x80	; 128
    8030:	74 e8       	ldi	r23, 0x84	; 132
    8032:	8e e1       	ldi	r24, 0x1E	; 30
    8034:	90 e0       	ldi	r25, 0x00	; 0
    8036:	0e 94 e1 00 	call	0x1c2	; 0x1c2 <_Z8syncWaitm>
				//presun figurku na pozici 22. hraciho pole z pozice 15
			}
			if (B == TL18_1)
    803a:	20 91 09 04 	lds	r18, 0x0409
    803e:	30 91 0a 04 	lds	r19, 0x040A
    8042:	80 91 93 04 	lds	r24, 0x0493
    8046:	90 91 94 04 	lds	r25, 0x0494
    804a:	28 17       	cp	r18, r24
    804c:	39 07       	cpc	r19, r25
    804e:	81 f4       	brne	.+32     	; 0x8070 <_Z20kalkulace_tahu_robotv+0x234a>
			{
				naber_na_pozici16();
    8050:	0e 94 14 28 	call	0x5028	; 0x5028 <_Z17naber_na_pozici16v>
				syncWait(2000000);
    8054:	60 e8       	ldi	r22, 0x80	; 128
    8056:	74 e8       	ldi	r23, 0x84	; 132
    8058:	8e e1       	ldi	r24, 0x1E	; 30
    805a:	90 e0       	ldi	r25, 0x00	; 0
    805c:	0e 94 e1 00 	call	0x1c2	; 0x1c2 <_Z8syncWaitm>
				vyloz_na_pozici22();
    8060:	0e 94 87 22 	call	0x450e	; 0x450e <_Z17vyloz_na_pozici22v>
				syncWait(2000000);
    8064:	60 e8       	ldi	r22, 0x80	; 128
    8066:	74 e8       	ldi	r23, 0x84	; 132
    8068:	8e e1       	ldi	r24, 0x1E	; 30
    806a:	90 e0       	ldi	r25, 0x00	; 0
    806c:	0e 94 e1 00 	call	0x1c2	; 0x1c2 <_Z8syncWaitm>
				//presun figurku na pozici 22. hraciho pole z pozice 16
			}
			if (B == TL19_1)
    8070:	20 91 09 04 	lds	r18, 0x0409
    8074:	30 91 0a 04 	lds	r19, 0x040A
    8078:	80 91 95 04 	lds	r24, 0x0495
    807c:	90 91 96 04 	lds	r25, 0x0496
    8080:	28 17       	cp	r18, r24
    8082:	39 07       	cpc	r19, r25
    8084:	81 f4       	brne	.+32     	; 0x80a6 <_Z20kalkulace_tahu_robotv+0x2380>
			{
				naber_na_pozici17();
    8086:	0e 94 fa 27 	call	0x4ff4	; 0x4ff4 <_Z17naber_na_pozici17v>
				syncWait(2000000);
    808a:	60 e8       	ldi	r22, 0x80	; 128
    808c:	74 e8       	ldi	r23, 0x84	; 132
    808e:	8e e1       	ldi	r24, 0x1E	; 30
    8090:	90 e0       	ldi	r25, 0x00	; 0
    8092:	0e 94 e1 00 	call	0x1c2	; 0x1c2 <_Z8syncWaitm>
				vyloz_na_pozici22();
    8096:	0e 94 87 22 	call	0x450e	; 0x450e <_Z17vyloz_na_pozici22v>
				syncWait(2000000);
    809a:	60 e8       	ldi	r22, 0x80	; 128
    809c:	74 e8       	ldi	r23, 0x84	; 132
    809e:	8e e1       	ldi	r24, 0x1E	; 30
    80a0:	90 e0       	ldi	r25, 0x00	; 0
    80a2:	0e 94 e1 00 	call	0x1c2	; 0x1c2 <_Z8syncWaitm>
				//presun figurku na pozici 22. hraciho pole z pozice 17
			}
			if (B == TL20_1)
    80a6:	20 91 09 04 	lds	r18, 0x0409
    80aa:	30 91 0a 04 	lds	r19, 0x040A
    80ae:	80 91 97 04 	lds	r24, 0x0497
    80b2:	90 91 98 04 	lds	r25, 0x0498
    80b6:	28 17       	cp	r18, r24
    80b8:	39 07       	cpc	r19, r25
    80ba:	81 f4       	brne	.+32     	; 0x80dc <_Z20kalkulace_tahu_robotv+0x23b6>
			{
				naber_na_pozici18();
    80bc:	0e 94 e0 27 	call	0x4fc0	; 0x4fc0 <_Z17naber_na_pozici18v>
				syncWait(2000000);
    80c0:	60 e8       	ldi	r22, 0x80	; 128
    80c2:	74 e8       	ldi	r23, 0x84	; 132
    80c4:	8e e1       	ldi	r24, 0x1E	; 30
    80c6:	90 e0       	ldi	r25, 0x00	; 0
    80c8:	0e 94 e1 00 	call	0x1c2	; 0x1c2 <_Z8syncWaitm>
				vyloz_na_pozici22();
    80cc:	0e 94 87 22 	call	0x450e	; 0x450e <_Z17vyloz_na_pozici22v>
				syncWait(2000000);
    80d0:	60 e8       	ldi	r22, 0x80	; 128
    80d2:	74 e8       	ldi	r23, 0x84	; 132
    80d4:	8e e1       	ldi	r24, 0x1E	; 30
    80d6:	90 e0       	ldi	r25, 0x00	; 0
    80d8:	0e 94 e1 00 	call	0x1c2	; 0x1c2 <_Z8syncWaitm>
				//presun figurku na pozici 22. hraciho pole z pozice 18
			}
			if (B == TL21_1)
    80dc:	20 91 09 04 	lds	r18, 0x0409
    80e0:	30 91 0a 04 	lds	r19, 0x040A
    80e4:	80 91 99 04 	lds	r24, 0x0499
    80e8:	90 91 9a 04 	lds	r25, 0x049A
    80ec:	28 17       	cp	r18, r24
    80ee:	39 07       	cpc	r19, r25
    80f0:	81 f4       	brne	.+32     	; 0x8112 <_Z20kalkulace_tahu_robotv+0x23ec>
			{
				naber_na_pozici19();
    80f2:	0e 94 c6 27 	call	0x4f8c	; 0x4f8c <_Z17naber_na_pozici19v>
				syncWait(2000000);
    80f6:	60 e8       	ldi	r22, 0x80	; 128
    80f8:	74 e8       	ldi	r23, 0x84	; 132
    80fa:	8e e1       	ldi	r24, 0x1E	; 30
    80fc:	90 e0       	ldi	r25, 0x00	; 0
    80fe:	0e 94 e1 00 	call	0x1c2	; 0x1c2 <_Z8syncWaitm>
				vyloz_na_pozici22();
    8102:	0e 94 87 22 	call	0x450e	; 0x450e <_Z17vyloz_na_pozici22v>
				syncWait(2000000);
    8106:	60 e8       	ldi	r22, 0x80	; 128
    8108:	74 e8       	ldi	r23, 0x84	; 132
    810a:	8e e1       	ldi	r24, 0x1E	; 30
    810c:	90 e0       	ldi	r25, 0x00	; 0
    810e:	0e 94 e1 00 	call	0x1c2	; 0x1c2 <_Z8syncWaitm>
				//presun figurku na pozici 22. hraciho pole z pozice 19
			}
			if (B == TL22_1)
    8112:	20 91 09 04 	lds	r18, 0x0409
    8116:	30 91 0a 04 	lds	r19, 0x040A
    811a:	80 91 9b 04 	lds	r24, 0x049B
    811e:	90 91 9c 04 	lds	r25, 0x049C
    8122:	28 17       	cp	r18, r24
    8124:	39 07       	cpc	r19, r25
    8126:	81 f4       	brne	.+32     	; 0x8148 <_Z20kalkulace_tahu_robotv+0x2422>
			{
				naber_na_pozici20();
    8128:	0e 94 ac 27 	call	0x4f58	; 0x4f58 <_Z17naber_na_pozici20v>
				syncWait(2000000);
    812c:	60 e8       	ldi	r22, 0x80	; 128
    812e:	74 e8       	ldi	r23, 0x84	; 132
    8130:	8e e1       	ldi	r24, 0x1E	; 30
    8132:	90 e0       	ldi	r25, 0x00	; 0
    8134:	0e 94 e1 00 	call	0x1c2	; 0x1c2 <_Z8syncWaitm>
				vyloz_na_pozici22();
    8138:	0e 94 87 22 	call	0x450e	; 0x450e <_Z17vyloz_na_pozici22v>
				syncWait(2000000);
    813c:	60 e8       	ldi	r22, 0x80	; 128
    813e:	74 e8       	ldi	r23, 0x84	; 132
    8140:	8e e1       	ldi	r24, 0x1E	; 30
    8142:	90 e0       	ldi	r25, 0x00	; 0
    8144:	0e 94 e1 00 	call	0x1c2	; 0x1c2 <_Z8syncWaitm>
				//presun figurku na pozici 22. hraciho pole z pozice 20
			}
			if (B == TL23_1)
    8148:	20 91 09 04 	lds	r18, 0x0409
    814c:	30 91 0a 04 	lds	r19, 0x040A
    8150:	80 91 9d 04 	lds	r24, 0x049D
    8154:	90 91 9e 04 	lds	r25, 0x049E
    8158:	28 17       	cp	r18, r24
    815a:	39 07       	cpc	r19, r25
    815c:	81 f4       	brne	.+32     	; 0x817e <_Z20kalkulace_tahu_robotv+0x2458>
			{
				naber_na_pozici21();
    815e:	0e 94 92 27 	call	0x4f24	; 0x4f24 <_Z17naber_na_pozici21v>
				syncWait(2000000);
    8162:	60 e8       	ldi	r22, 0x80	; 128
    8164:	74 e8       	ldi	r23, 0x84	; 132
    8166:	8e e1       	ldi	r24, 0x1E	; 30
    8168:	90 e0       	ldi	r25, 0x00	; 0
    816a:	0e 94 e1 00 	call	0x1c2	; 0x1c2 <_Z8syncWaitm>
				vyloz_na_pozici22();
    816e:	0e 94 87 22 	call	0x450e	; 0x450e <_Z17vyloz_na_pozici22v>
				syncWait(2000000);
    8172:	60 e8       	ldi	r22, 0x80	; 128
    8174:	74 e8       	ldi	r23, 0x84	; 132
    8176:	8e e1       	ldi	r24, 0x1E	; 30
    8178:	90 e0       	ldi	r25, 0x00	; 0
    817a:	0e 94 e1 00 	call	0x1c2	; 0x1c2 <_Z8syncWaitm>
				//presun figurku na pozici 22. hraciho pole z pozice 21
			}
		}
	}
	if (A == 25)
    817e:	80 91 07 04 	lds	r24, 0x0407
    8182:	90 91 08 04 	lds	r25, 0x0408
    8186:	49 97       	sbiw	r24, 0x19	; 25
    8188:	09 f0       	breq	.+2      	; 0x818c <_Z20kalkulace_tahu_robotv+0x2466>
    818a:	c4 c0       	rjmp	.+392    	; 0x8314 <_Z20kalkulace_tahu_robotv+0x25ee>
	{
		if(A == TL25_1)
    818c:	80 91 a1 04 	lds	r24, 0x04A1
    8190:	90 91 a2 04 	lds	r25, 0x04A2
    8194:	49 97       	sbiw	r24, 0x19	; 25
    8196:	09 f0       	breq	.+2      	; 0x819a <_Z20kalkulace_tahu_robotv+0x2474>
    8198:	bd c0       	rjmp	.+378    	; 0x8314 <_Z20kalkulace_tahu_robotv+0x25ee>
			}
			if (B == TL17_1)
			{
				//presun figurku na pozici 23. hraciho pole z pozice 15
			}
			if (B == TL18_1)
    819a:	20 91 09 04 	lds	r18, 0x0409
    819e:	30 91 0a 04 	lds	r19, 0x040A
    81a2:	80 91 93 04 	lds	r24, 0x0493
    81a6:	90 91 94 04 	lds	r25, 0x0494
    81aa:	28 17       	cp	r18, r24
    81ac:	39 07       	cpc	r19, r25
    81ae:	81 f4       	brne	.+32     	; 0x81d0 <_Z20kalkulace_tahu_robotv+0x24aa>
			{
				naber_na_pozici16();
    81b0:	0e 94 14 28 	call	0x5028	; 0x5028 <_Z17naber_na_pozici16v>
				syncWait(2000000);
    81b4:	60 e8       	ldi	r22, 0x80	; 128
    81b6:	74 e8       	ldi	r23, 0x84	; 132
    81b8:	8e e1       	ldi	r24, 0x1E	; 30
    81ba:	90 e0       	ldi	r25, 0x00	; 0
    81bc:	0e 94 e1 00 	call	0x1c2	; 0x1c2 <_Z8syncWaitm>
				vyloz_na_pozici23();
    81c0:	0e 94 6d 22 	call	0x44da	; 0x44da <_Z17vyloz_na_pozici23v>
				syncWait(2000000);
    81c4:	60 e8       	ldi	r22, 0x80	; 128
    81c6:	74 e8       	ldi	r23, 0x84	; 132
    81c8:	8e e1       	ldi	r24, 0x1E	; 30
    81ca:	90 e0       	ldi	r25, 0x00	; 0
    81cc:	0e 94 e1 00 	call	0x1c2	; 0x1c2 <_Z8syncWaitm>
				//presun figurku na pozici 23. hraciho pole z pozice 16
			}
			if (B == TL19_1)
    81d0:	20 91 09 04 	lds	r18, 0x0409
    81d4:	30 91 0a 04 	lds	r19, 0x040A
    81d8:	80 91 95 04 	lds	r24, 0x0495
    81dc:	90 91 96 04 	lds	r25, 0x0496
    81e0:	28 17       	cp	r18, r24
    81e2:	39 07       	cpc	r19, r25
    81e4:	81 f4       	brne	.+32     	; 0x8206 <_Z20kalkulace_tahu_robotv+0x24e0>
			{
				naber_na_pozici17();
    81e6:	0e 94 fa 27 	call	0x4ff4	; 0x4ff4 <_Z17naber_na_pozici17v>
				syncWait(2000000);
    81ea:	60 e8       	ldi	r22, 0x80	; 128
    81ec:	74 e8       	ldi	r23, 0x84	; 132
    81ee:	8e e1       	ldi	r24, 0x1E	; 30
    81f0:	90 e0       	ldi	r25, 0x00	; 0
    81f2:	0e 94 e1 00 	call	0x1c2	; 0x1c2 <_Z8syncWaitm>
				vyloz_na_pozici23();
    81f6:	0e 94 6d 22 	call	0x44da	; 0x44da <_Z17vyloz_na_pozici23v>
				syncWait(2000000);
    81fa:	60 e8       	ldi	r22, 0x80	; 128
    81fc:	74 e8       	ldi	r23, 0x84	; 132
    81fe:	8e e1       	ldi	r24, 0x1E	; 30
    8200:	90 e0       	ldi	r25, 0x00	; 0
    8202:	0e 94 e1 00 	call	0x1c2	; 0x1c2 <_Z8syncWaitm>
				//presun figurku na pozici 23. hraciho pole z pozice 17
			}
			if (B == TL20_1)
    8206:	20 91 09 04 	lds	r18, 0x0409
    820a:	30 91 0a 04 	lds	r19, 0x040A
    820e:	80 91 97 04 	lds	r24, 0x0497
    8212:	90 91 98 04 	lds	r25, 0x0498
    8216:	28 17       	cp	r18, r24
    8218:	39 07       	cpc	r19, r25
    821a:	81 f4       	brne	.+32     	; 0x823c <_Z20kalkulace_tahu_robotv+0x2516>
			{
				naber_na_pozici18();
    821c:	0e 94 e0 27 	call	0x4fc0	; 0x4fc0 <_Z17naber_na_pozici18v>
				syncWait(2000000);
    8220:	60 e8       	ldi	r22, 0x80	; 128
    8222:	74 e8       	ldi	r23, 0x84	; 132
    8224:	8e e1       	ldi	r24, 0x1E	; 30
    8226:	90 e0       	ldi	r25, 0x00	; 0
    8228:	0e 94 e1 00 	call	0x1c2	; 0x1c2 <_Z8syncWaitm>
				vyloz_na_pozici23();
    822c:	0e 94 6d 22 	call	0x44da	; 0x44da <_Z17vyloz_na_pozici23v>
				syncWait(2000000);
    8230:	60 e8       	ldi	r22, 0x80	; 128
    8232:	74 e8       	ldi	r23, 0x84	; 132
    8234:	8e e1       	ldi	r24, 0x1E	; 30
    8236:	90 e0       	ldi	r25, 0x00	; 0
    8238:	0e 94 e1 00 	call	0x1c2	; 0x1c2 <_Z8syncWaitm>
				//presun figurku na pozici 23. hraciho pole z pozice 18
			}
			if (B == TL21_1)
    823c:	20 91 09 04 	lds	r18, 0x0409
    8240:	30 91 0a 04 	lds	r19, 0x040A
    8244:	80 91 99 04 	lds	r24, 0x0499
    8248:	90 91 9a 04 	lds	r25, 0x049A
    824c:	28 17       	cp	r18, r24
    824e:	39 07       	cpc	r19, r25
    8250:	81 f4       	brne	.+32     	; 0x8272 <_Z20kalkulace_tahu_robotv+0x254c>
			{
				naber_na_pozici19();
    8252:	0e 94 c6 27 	call	0x4f8c	; 0x4f8c <_Z17naber_na_pozici19v>
				syncWait(2000000);
    8256:	60 e8       	ldi	r22, 0x80	; 128
    8258:	74 e8       	ldi	r23, 0x84	; 132
    825a:	8e e1       	ldi	r24, 0x1E	; 30
    825c:	90 e0       	ldi	r25, 0x00	; 0
    825e:	0e 94 e1 00 	call	0x1c2	; 0x1c2 <_Z8syncWaitm>
				vyloz_na_pozici23();
    8262:	0e 94 6d 22 	call	0x44da	; 0x44da <_Z17vyloz_na_pozici23v>
				syncWait(2000000);
    8266:	60 e8       	ldi	r22, 0x80	; 128
    8268:	74 e8       	ldi	r23, 0x84	; 132
    826a:	8e e1       	ldi	r24, 0x1E	; 30
    826c:	90 e0       	ldi	r25, 0x00	; 0
    826e:	0e 94 e1 00 	call	0x1c2	; 0x1c2 <_Z8syncWaitm>
				//presun figurku na pozici 23. hraciho pole z pozice 19
			}
			if (B == TL22_1)
    8272:	20 91 09 04 	lds	r18, 0x0409
    8276:	30 91 0a 04 	lds	r19, 0x040A
    827a:	80 91 9b 04 	lds	r24, 0x049B
    827e:	90 91 9c 04 	lds	r25, 0x049C
    8282:	28 17       	cp	r18, r24
    8284:	39 07       	cpc	r19, r25
    8286:	81 f4       	brne	.+32     	; 0x82a8 <_Z20kalkulace_tahu_robotv+0x2582>
			{
				naber_na_pozici20();
    8288:	0e 94 ac 27 	call	0x4f58	; 0x4f58 <_Z17naber_na_pozici20v>
				syncWait(2000000);
    828c:	60 e8       	ldi	r22, 0x80	; 128
    828e:	74 e8       	ldi	r23, 0x84	; 132
    8290:	8e e1       	ldi	r24, 0x1E	; 30
    8292:	90 e0       	ldi	r25, 0x00	; 0
    8294:	0e 94 e1 00 	call	0x1c2	; 0x1c2 <_Z8syncWaitm>
				vyloz_na_pozici23();
    8298:	0e 94 6d 22 	call	0x44da	; 0x44da <_Z17vyloz_na_pozici23v>
				syncWait(2000000);
    829c:	60 e8       	ldi	r22, 0x80	; 128
    829e:	74 e8       	ldi	r23, 0x84	; 132
    82a0:	8e e1       	ldi	r24, 0x1E	; 30
    82a2:	90 e0       	ldi	r25, 0x00	; 0
    82a4:	0e 94 e1 00 	call	0x1c2	; 0x1c2 <_Z8syncWaitm>
				//presun figurku na pozici 23. hraciho pole z pozice 20
			}
			if (B == TL23_1)
    82a8:	20 91 09 04 	lds	r18, 0x0409
    82ac:	30 91 0a 04 	lds	r19, 0x040A
    82b0:	80 91 9d 04 	lds	r24, 0x049D
    82b4:	90 91 9e 04 	lds	r25, 0x049E
    82b8:	28 17       	cp	r18, r24
    82ba:	39 07       	cpc	r19, r25
    82bc:	81 f4       	brne	.+32     	; 0x82de <_Z20kalkulace_tahu_robotv+0x25b8>
			{
				naber_na_pozici21();
    82be:	0e 94 92 27 	call	0x4f24	; 0x4f24 <_Z17naber_na_pozici21v>
				syncWait(2000000);
    82c2:	60 e8       	ldi	r22, 0x80	; 128
    82c4:	74 e8       	ldi	r23, 0x84	; 132
    82c6:	8e e1       	ldi	r24, 0x1E	; 30
    82c8:	90 e0       	ldi	r25, 0x00	; 0
    82ca:	0e 94 e1 00 	call	0x1c2	; 0x1c2 <_Z8syncWaitm>
				vyloz_na_pozici23();
    82ce:	0e 94 6d 22 	call	0x44da	; 0x44da <_Z17vyloz_na_pozici23v>
				syncWait(2000000);
    82d2:	60 e8       	ldi	r22, 0x80	; 128
    82d4:	74 e8       	ldi	r23, 0x84	; 132
    82d6:	8e e1       	ldi	r24, 0x1E	; 30
    82d8:	90 e0       	ldi	r25, 0x00	; 0
    82da:	0e 94 e1 00 	call	0x1c2	; 0x1c2 <_Z8syncWaitm>
				//presun figurku na pozici 23. hraciho pole z pozice 21
			}
			if (B == TL24_1)
    82de:	20 91 09 04 	lds	r18, 0x0409
    82e2:	30 91 0a 04 	lds	r19, 0x040A
    82e6:	80 91 9f 04 	lds	r24, 0x049F
    82ea:	90 91 a0 04 	lds	r25, 0x04A0
    82ee:	28 17       	cp	r18, r24
    82f0:	39 07       	cpc	r19, r25
    82f2:	81 f4       	brne	.+32     	; 0x8314 <_Z20kalkulace_tahu_robotv+0x25ee>
			{
				naber_na_pozici22();
    82f4:	0e 94 5d 27 	call	0x4eba	; 0x4eba <_Z17naber_na_pozici22v>
				syncWait(2000000);
    82f8:	60 e8       	ldi	r22, 0x80	; 128
    82fa:	74 e8       	ldi	r23, 0x84	; 132
    82fc:	8e e1       	ldi	r24, 0x1E	; 30
    82fe:	90 e0       	ldi	r25, 0x00	; 0
    8300:	0e 94 e1 00 	call	0x1c2	; 0x1c2 <_Z8syncWaitm>
				vyloz_na_pozici23();
    8304:	0e 94 6d 22 	call	0x44da	; 0x44da <_Z17vyloz_na_pozici23v>
				syncWait(2000000);
    8308:	60 e8       	ldi	r22, 0x80	; 128
    830a:	74 e8       	ldi	r23, 0x84	; 132
    830c:	8e e1       	ldi	r24, 0x1E	; 30
    830e:	90 e0       	ldi	r25, 0x00	; 0
    8310:	0e 94 e1 00 	call	0x1c2	; 0x1c2 <_Z8syncWaitm>
				//presun figurku na pozici 23. hraciho pole z pozice 22
			}
		}
	}
	if (A == 26)
    8314:	80 91 07 04 	lds	r24, 0x0407
    8318:	90 91 08 04 	lds	r25, 0x0408
    831c:	4a 97       	sbiw	r24, 0x1a	; 26
    831e:	09 f0       	breq	.+2      	; 0x8322 <_Z20kalkulace_tahu_robotv+0x25fc>
    8320:	c4 c0       	rjmp	.+392    	; 0x84aa <_Z20kalkulace_tahu_robotv+0x2784>
	{
		if(A == TL26_1)
    8322:	80 91 a3 04 	lds	r24, 0x04A3
    8326:	90 91 a4 04 	lds	r25, 0x04A4
    832a:	4a 97       	sbiw	r24, 0x1a	; 26
    832c:	09 f0       	breq	.+2      	; 0x8330 <_Z20kalkulace_tahu_robotv+0x260a>
    832e:	bd c0       	rjmp	.+378    	; 0x84aa <_Z20kalkulace_tahu_robotv+0x2784>
			}
			if (B == TL18_1)
			{
				//presun figurku na pozici 24. hraciho pole z pozice 16
			}
			if (B == TL19_1)
    8330:	20 91 09 04 	lds	r18, 0x0409
    8334:	30 91 0a 04 	lds	r19, 0x040A
    8338:	80 91 95 04 	lds	r24, 0x0495
    833c:	90 91 96 04 	lds	r25, 0x0496
    8340:	28 17       	cp	r18, r24
    8342:	39 07       	cpc	r19, r25
    8344:	81 f4       	brne	.+32     	; 0x8366 <_Z20kalkulace_tahu_robotv+0x2640>
			{
				naber_na_pozici17();
    8346:	0e 94 fa 27 	call	0x4ff4	; 0x4ff4 <_Z17naber_na_pozici17v>
				syncWait(2000000);
    834a:	60 e8       	ldi	r22, 0x80	; 128
    834c:	74 e8       	ldi	r23, 0x84	; 132
    834e:	8e e1       	ldi	r24, 0x1E	; 30
    8350:	90 e0       	ldi	r25, 0x00	; 0
    8352:	0e 94 e1 00 	call	0x1c2	; 0x1c2 <_Z8syncWaitm>
				vyloz_na_pozici24();
    8356:	0e 94 53 22 	call	0x44a6	; 0x44a6 <_Z17vyloz_na_pozici24v>
				syncWait(2000000);
    835a:	60 e8       	ldi	r22, 0x80	; 128
    835c:	74 e8       	ldi	r23, 0x84	; 132
    835e:	8e e1       	ldi	r24, 0x1E	; 30
    8360:	90 e0       	ldi	r25, 0x00	; 0
    8362:	0e 94 e1 00 	call	0x1c2	; 0x1c2 <_Z8syncWaitm>
				//presun figurku na pozici 24. hraciho pole z pozice 17
			}
			if (B == TL20_1)
    8366:	20 91 09 04 	lds	r18, 0x0409
    836a:	30 91 0a 04 	lds	r19, 0x040A
    836e:	80 91 97 04 	lds	r24, 0x0497
    8372:	90 91 98 04 	lds	r25, 0x0498
    8376:	28 17       	cp	r18, r24
    8378:	39 07       	cpc	r19, r25
    837a:	81 f4       	brne	.+32     	; 0x839c <_Z20kalkulace_tahu_robotv+0x2676>
			{
				naber_na_pozici18();
    837c:	0e 94 e0 27 	call	0x4fc0	; 0x4fc0 <_Z17naber_na_pozici18v>
				syncWait(2000000);
    8380:	60 e8       	ldi	r22, 0x80	; 128
    8382:	74 e8       	ldi	r23, 0x84	; 132
    8384:	8e e1       	ldi	r24, 0x1E	; 30
    8386:	90 e0       	ldi	r25, 0x00	; 0
    8388:	0e 94 e1 00 	call	0x1c2	; 0x1c2 <_Z8syncWaitm>
				vyloz_na_pozici24();
    838c:	0e 94 53 22 	call	0x44a6	; 0x44a6 <_Z17vyloz_na_pozici24v>
				syncWait(2000000);
    8390:	60 e8       	ldi	r22, 0x80	; 128
    8392:	74 e8       	ldi	r23, 0x84	; 132
    8394:	8e e1       	ldi	r24, 0x1E	; 30
    8396:	90 e0       	ldi	r25, 0x00	; 0
    8398:	0e 94 e1 00 	call	0x1c2	; 0x1c2 <_Z8syncWaitm>
				//presun figurku na pozici 24. hraciho pole z pozice 18
			}
			if (B == TL21_1)
    839c:	20 91 09 04 	lds	r18, 0x0409
    83a0:	30 91 0a 04 	lds	r19, 0x040A
    83a4:	80 91 99 04 	lds	r24, 0x0499
    83a8:	90 91 9a 04 	lds	r25, 0x049A
    83ac:	28 17       	cp	r18, r24
    83ae:	39 07       	cpc	r19, r25
    83b0:	81 f4       	brne	.+32     	; 0x83d2 <_Z20kalkulace_tahu_robotv+0x26ac>
			{
				naber_na_pozici19();
    83b2:	0e 94 c6 27 	call	0x4f8c	; 0x4f8c <_Z17naber_na_pozici19v>
				syncWait(2000000);
    83b6:	60 e8       	ldi	r22, 0x80	; 128
    83b8:	74 e8       	ldi	r23, 0x84	; 132
    83ba:	8e e1       	ldi	r24, 0x1E	; 30
    83bc:	90 e0       	ldi	r25, 0x00	; 0
    83be:	0e 94 e1 00 	call	0x1c2	; 0x1c2 <_Z8syncWaitm>
				vyloz_na_pozici24();
    83c2:	0e 94 53 22 	call	0x44a6	; 0x44a6 <_Z17vyloz_na_pozici24v>
				syncWait(2000000);
    83c6:	60 e8       	ldi	r22, 0x80	; 128
    83c8:	74 e8       	ldi	r23, 0x84	; 132
    83ca:	8e e1       	ldi	r24, 0x1E	; 30
    83cc:	90 e0       	ldi	r25, 0x00	; 0
    83ce:	0e 94 e1 00 	call	0x1c2	; 0x1c2 <_Z8syncWaitm>
				//presun figurku na pozici 24. hraciho pole z pozice 19
			}
			if (B == TL22_1)
    83d2:	20 91 09 04 	lds	r18, 0x0409
    83d6:	30 91 0a 04 	lds	r19, 0x040A
    83da:	80 91 9b 04 	lds	r24, 0x049B
    83de:	90 91 9c 04 	lds	r25, 0x049C
    83e2:	28 17       	cp	r18, r24
    83e4:	39 07       	cpc	r19, r25
    83e6:	81 f4       	brne	.+32     	; 0x8408 <_Z20kalkulace_tahu_robotv+0x26e2>
			{
				naber_na_pozici20();
    83e8:	0e 94 ac 27 	call	0x4f58	; 0x4f58 <_Z17naber_na_pozici20v>
				syncWait(2000000);
    83ec:	60 e8       	ldi	r22, 0x80	; 128
    83ee:	74 e8       	ldi	r23, 0x84	; 132
    83f0:	8e e1       	ldi	r24, 0x1E	; 30
    83f2:	90 e0       	ldi	r25, 0x00	; 0
    83f4:	0e 94 e1 00 	call	0x1c2	; 0x1c2 <_Z8syncWaitm>
				vyloz_na_pozici24();
    83f8:	0e 94 53 22 	call	0x44a6	; 0x44a6 <_Z17vyloz_na_pozici24v>
				syncWait(2000000);
    83fc:	60 e8       	ldi	r22, 0x80	; 128
    83fe:	74 e8       	ldi	r23, 0x84	; 132
    8400:	8e e1       	ldi	r24, 0x1E	; 30
    8402:	90 e0       	ldi	r25, 0x00	; 0
    8404:	0e 94 e1 00 	call	0x1c2	; 0x1c2 <_Z8syncWaitm>
				//presun figurku na pozici 24. hraciho pole z pozice 20
			}
			if (B == TL23_1)
    8408:	20 91 09 04 	lds	r18, 0x0409
    840c:	30 91 0a 04 	lds	r19, 0x040A
    8410:	80 91 9d 04 	lds	r24, 0x049D
    8414:	90 91 9e 04 	lds	r25, 0x049E
    8418:	28 17       	cp	r18, r24
    841a:	39 07       	cpc	r19, r25
    841c:	81 f4       	brne	.+32     	; 0x843e <_Z20kalkulace_tahu_robotv+0x2718>
			{
				naber_na_pozici21();
    841e:	0e 94 92 27 	call	0x4f24	; 0x4f24 <_Z17naber_na_pozici21v>
				syncWait(2000000);
    8422:	60 e8       	ldi	r22, 0x80	; 128
    8424:	74 e8       	ldi	r23, 0x84	; 132
    8426:	8e e1       	ldi	r24, 0x1E	; 30
    8428:	90 e0       	ldi	r25, 0x00	; 0
    842a:	0e 94 e1 00 	call	0x1c2	; 0x1c2 <_Z8syncWaitm>
				vyloz_na_pozici24();
    842e:	0e 94 53 22 	call	0x44a6	; 0x44a6 <_Z17vyloz_na_pozici24v>
				syncWait(2000000);
    8432:	60 e8       	ldi	r22, 0x80	; 128
    8434:	74 e8       	ldi	r23, 0x84	; 132
    8436:	8e e1       	ldi	r24, 0x1E	; 30
    8438:	90 e0       	ldi	r25, 0x00	; 0
    843a:	0e 94 e1 00 	call	0x1c2	; 0x1c2 <_Z8syncWaitm>
				//presun figurku na pozici 24. hraciho pole z pozice 21
			}
			if (B == TL24_1)
    843e:	20 91 09 04 	lds	r18, 0x0409
    8442:	30 91 0a 04 	lds	r19, 0x040A
    8446:	80 91 9f 04 	lds	r24, 0x049F
    844a:	90 91 a0 04 	lds	r25, 0x04A0
    844e:	28 17       	cp	r18, r24
    8450:	39 07       	cpc	r19, r25
    8452:	81 f4       	brne	.+32     	; 0x8474 <_Z20kalkulace_tahu_robotv+0x274e>
			{
				naber_na_pozici22();
    8454:	0e 94 5d 27 	call	0x4eba	; 0x4eba <_Z17naber_na_pozici22v>
				syncWait(2000000);
    8458:	60 e8       	ldi	r22, 0x80	; 128
    845a:	74 e8       	ldi	r23, 0x84	; 132
    845c:	8e e1       	ldi	r24, 0x1E	; 30
    845e:	90 e0       	ldi	r25, 0x00	; 0
    8460:	0e 94 e1 00 	call	0x1c2	; 0x1c2 <_Z8syncWaitm>
				vyloz_na_pozici24();
    8464:	0e 94 53 22 	call	0x44a6	; 0x44a6 <_Z17vyloz_na_pozici24v>
				syncWait(2000000);
    8468:	60 e8       	ldi	r22, 0x80	; 128
    846a:	74 e8       	ldi	r23, 0x84	; 132
    846c:	8e e1       	ldi	r24, 0x1E	; 30
    846e:	90 e0       	ldi	r25, 0x00	; 0
    8470:	0e 94 e1 00 	call	0x1c2	; 0x1c2 <_Z8syncWaitm>
				//presun figurku na pozici 24. hraciho pole z pozice 22
			}
			if (B == TL25_1)
    8474:	20 91 09 04 	lds	r18, 0x0409
    8478:	30 91 0a 04 	lds	r19, 0x040A
    847c:	80 91 a1 04 	lds	r24, 0x04A1
    8480:	90 91 a2 04 	lds	r25, 0x04A2
    8484:	28 17       	cp	r18, r24
    8486:	39 07       	cpc	r19, r25
    8488:	81 f4       	brne	.+32     	; 0x84aa <_Z20kalkulace_tahu_robotv+0x2784>
			{
				naber_na_pozici23();
    848a:	0e 94 43 27 	call	0x4e86	; 0x4e86 <_Z17naber_na_pozici23v>
				syncWait(2000000);
    848e:	60 e8       	ldi	r22, 0x80	; 128
    8490:	74 e8       	ldi	r23, 0x84	; 132
    8492:	8e e1       	ldi	r24, 0x1E	; 30
    8494:	90 e0       	ldi	r25, 0x00	; 0
    8496:	0e 94 e1 00 	call	0x1c2	; 0x1c2 <_Z8syncWaitm>
				vyloz_na_pozici24();
    849a:	0e 94 53 22 	call	0x44a6	; 0x44a6 <_Z17vyloz_na_pozici24v>
				syncWait(2000000);
    849e:	60 e8       	ldi	r22, 0x80	; 128
    84a0:	74 e8       	ldi	r23, 0x84	; 132
    84a2:	8e e1       	ldi	r24, 0x1E	; 30
    84a4:	90 e0       	ldi	r25, 0x00	; 0
    84a6:	0e 94 e1 00 	call	0x1c2	; 0x1c2 <_Z8syncWaitm>
				//presun figurku na pozici 24. hraciho pole z pozice 23
			}
		}
	}
	if (A == 27)
    84aa:	80 91 07 04 	lds	r24, 0x0407
    84ae:	90 91 08 04 	lds	r25, 0x0408
    84b2:	4b 97       	sbiw	r24, 0x1b	; 27
    84b4:	09 f0       	breq	.+2      	; 0x84b8 <_Z20kalkulace_tahu_robotv+0x2792>
    84b6:	c4 c0       	rjmp	.+392    	; 0x8640 <_Z20kalkulace_tahu_robotv+0x291a>
	{
		if(A == TL27_1)
    84b8:	80 91 a5 04 	lds	r24, 0x04A5
    84bc:	90 91 a6 04 	lds	r25, 0x04A6
    84c0:	4b 97       	sbiw	r24, 0x1b	; 27
    84c2:	09 f0       	breq	.+2      	; 0x84c6 <_Z20kalkulace_tahu_robotv+0x27a0>
    84c4:	bd c0       	rjmp	.+378    	; 0x8640 <_Z20kalkulace_tahu_robotv+0x291a>
			}
			if (B == TL19_1)
			{
				//presun figurku na pozici 25. hraciho pole z pozice 17
			}
			if (B == TL20_1)
    84c6:	20 91 09 04 	lds	r18, 0x0409
    84ca:	30 91 0a 04 	lds	r19, 0x040A
    84ce:	80 91 97 04 	lds	r24, 0x0497
    84d2:	90 91 98 04 	lds	r25, 0x0498
    84d6:	28 17       	cp	r18, r24
    84d8:	39 07       	cpc	r19, r25
    84da:	81 f4       	brne	.+32     	; 0x84fc <_Z20kalkulace_tahu_robotv+0x27d6>
			{
				naber_na_pozici18();
    84dc:	0e 94 e0 27 	call	0x4fc0	; 0x4fc0 <_Z17naber_na_pozici18v>
				syncWait(2000000);
    84e0:	60 e8       	ldi	r22, 0x80	; 128
    84e2:	74 e8       	ldi	r23, 0x84	; 132
    84e4:	8e e1       	ldi	r24, 0x1E	; 30
    84e6:	90 e0       	ldi	r25, 0x00	; 0
    84e8:	0e 94 e1 00 	call	0x1c2	; 0x1c2 <_Z8syncWaitm>
				vyloz_na_pozici25();
    84ec:	0e 94 39 22 	call	0x4472	; 0x4472 <_Z17vyloz_na_pozici25v>
				syncWait(2000000);
    84f0:	60 e8       	ldi	r22, 0x80	; 128
    84f2:	74 e8       	ldi	r23, 0x84	; 132
    84f4:	8e e1       	ldi	r24, 0x1E	; 30
    84f6:	90 e0       	ldi	r25, 0x00	; 0
    84f8:	0e 94 e1 00 	call	0x1c2	; 0x1c2 <_Z8syncWaitm>
				//presun figurku na pozici 25. hraciho pole z pozice 18
			}
			if (B == TL21_1)
    84fc:	20 91 09 04 	lds	r18, 0x0409
    8500:	30 91 0a 04 	lds	r19, 0x040A
    8504:	80 91 99 04 	lds	r24, 0x0499
    8508:	90 91 9a 04 	lds	r25, 0x049A
    850c:	28 17       	cp	r18, r24
    850e:	39 07       	cpc	r19, r25
    8510:	81 f4       	brne	.+32     	; 0x8532 <_Z20kalkulace_tahu_robotv+0x280c>
			{
				naber_na_pozici19();
    8512:	0e 94 c6 27 	call	0x4f8c	; 0x4f8c <_Z17naber_na_pozici19v>
				syncWait(2000000);
    8516:	60 e8       	ldi	r22, 0x80	; 128
    8518:	74 e8       	ldi	r23, 0x84	; 132
    851a:	8e e1       	ldi	r24, 0x1E	; 30
    851c:	90 e0       	ldi	r25, 0x00	; 0
    851e:	0e 94 e1 00 	call	0x1c2	; 0x1c2 <_Z8syncWaitm>
				vyloz_na_pozici25();
    8522:	0e 94 39 22 	call	0x4472	; 0x4472 <_Z17vyloz_na_pozici25v>
				syncWait(2000000);
    8526:	60 e8       	ldi	r22, 0x80	; 128
    8528:	74 e8       	ldi	r23, 0x84	; 132
    852a:	8e e1       	ldi	r24, 0x1E	; 30
    852c:	90 e0       	ldi	r25, 0x00	; 0
    852e:	0e 94 e1 00 	call	0x1c2	; 0x1c2 <_Z8syncWaitm>
				//presun figurku na pozici 25. hraciho pole z pozice 19
			}
			if (B == TL22_1)
    8532:	20 91 09 04 	lds	r18, 0x0409
    8536:	30 91 0a 04 	lds	r19, 0x040A
    853a:	80 91 9b 04 	lds	r24, 0x049B
    853e:	90 91 9c 04 	lds	r25, 0x049C
    8542:	28 17       	cp	r18, r24
    8544:	39 07       	cpc	r19, r25
    8546:	81 f4       	brne	.+32     	; 0x8568 <_Z20kalkulace_tahu_robotv+0x2842>
			{
				naber_na_pozici20();
    8548:	0e 94 ac 27 	call	0x4f58	; 0x4f58 <_Z17naber_na_pozici20v>
				syncWait(2000000);
    854c:	60 e8       	ldi	r22, 0x80	; 128
    854e:	74 e8       	ldi	r23, 0x84	; 132
    8550:	8e e1       	ldi	r24, 0x1E	; 30
    8552:	90 e0       	ldi	r25, 0x00	; 0
    8554:	0e 94 e1 00 	call	0x1c2	; 0x1c2 <_Z8syncWaitm>
				vyloz_na_pozici25();
    8558:	0e 94 39 22 	call	0x4472	; 0x4472 <_Z17vyloz_na_pozici25v>
				syncWait(2000000);
    855c:	60 e8       	ldi	r22, 0x80	; 128
    855e:	74 e8       	ldi	r23, 0x84	; 132
    8560:	8e e1       	ldi	r24, 0x1E	; 30
    8562:	90 e0       	ldi	r25, 0x00	; 0
    8564:	0e 94 e1 00 	call	0x1c2	; 0x1c2 <_Z8syncWaitm>
				//presun figurku na pozici 25. hraciho pole z pozice 20
			}
			if (B == TL23_1)
    8568:	20 91 09 04 	lds	r18, 0x0409
    856c:	30 91 0a 04 	lds	r19, 0x040A
    8570:	80 91 9d 04 	lds	r24, 0x049D
    8574:	90 91 9e 04 	lds	r25, 0x049E
    8578:	28 17       	cp	r18, r24
    857a:	39 07       	cpc	r19, r25
    857c:	81 f4       	brne	.+32     	; 0x859e <_Z20kalkulace_tahu_robotv+0x2878>
			{
				naber_na_pozici21();
    857e:	0e 94 92 27 	call	0x4f24	; 0x4f24 <_Z17naber_na_pozici21v>
				syncWait(2000000);
    8582:	60 e8       	ldi	r22, 0x80	; 128
    8584:	74 e8       	ldi	r23, 0x84	; 132
    8586:	8e e1       	ldi	r24, 0x1E	; 30
    8588:	90 e0       	ldi	r25, 0x00	; 0
    858a:	0e 94 e1 00 	call	0x1c2	; 0x1c2 <_Z8syncWaitm>
				vyloz_na_pozici25();
    858e:	0e 94 39 22 	call	0x4472	; 0x4472 <_Z17vyloz_na_pozici25v>
				syncWait(2000000);
    8592:	60 e8       	ldi	r22, 0x80	; 128
    8594:	74 e8       	ldi	r23, 0x84	; 132
    8596:	8e e1       	ldi	r24, 0x1E	; 30
    8598:	90 e0       	ldi	r25, 0x00	; 0
    859a:	0e 94 e1 00 	call	0x1c2	; 0x1c2 <_Z8syncWaitm>
				//presun figurku na pozici 25. hraciho pole z pozice 21
			}
			if (B == TL24_1)
    859e:	20 91 09 04 	lds	r18, 0x0409
    85a2:	30 91 0a 04 	lds	r19, 0x040A
    85a6:	80 91 9f 04 	lds	r24, 0x049F
    85aa:	90 91 a0 04 	lds	r25, 0x04A0
    85ae:	28 17       	cp	r18, r24
    85b0:	39 07       	cpc	r19, r25
    85b2:	81 f4       	brne	.+32     	; 0x85d4 <_Z20kalkulace_tahu_robotv+0x28ae>
			{
				naber_na_pozici22();
    85b4:	0e 94 5d 27 	call	0x4eba	; 0x4eba <_Z17naber_na_pozici22v>
				syncWait(2000000);
    85b8:	60 e8       	ldi	r22, 0x80	; 128
    85ba:	74 e8       	ldi	r23, 0x84	; 132
    85bc:	8e e1       	ldi	r24, 0x1E	; 30
    85be:	90 e0       	ldi	r25, 0x00	; 0
    85c0:	0e 94 e1 00 	call	0x1c2	; 0x1c2 <_Z8syncWaitm>
				vyloz_na_pozici25();
    85c4:	0e 94 39 22 	call	0x4472	; 0x4472 <_Z17vyloz_na_pozici25v>
				syncWait(2000000);
    85c8:	60 e8       	ldi	r22, 0x80	; 128
    85ca:	74 e8       	ldi	r23, 0x84	; 132
    85cc:	8e e1       	ldi	r24, 0x1E	; 30
    85ce:	90 e0       	ldi	r25, 0x00	; 0
    85d0:	0e 94 e1 00 	call	0x1c2	; 0x1c2 <_Z8syncWaitm>
				//presun figurku na pozici 25. hraciho pole z pozice 22
			}
			if (B == TL25_1)
    85d4:	20 91 09 04 	lds	r18, 0x0409
    85d8:	30 91 0a 04 	lds	r19, 0x040A
    85dc:	80 91 a1 04 	lds	r24, 0x04A1
    85e0:	90 91 a2 04 	lds	r25, 0x04A2
    85e4:	28 17       	cp	r18, r24
    85e6:	39 07       	cpc	r19, r25
    85e8:	81 f4       	brne	.+32     	; 0x860a <_Z20kalkulace_tahu_robotv+0x28e4>
			{
				naber_na_pozici23();
    85ea:	0e 94 43 27 	call	0x4e86	; 0x4e86 <_Z17naber_na_pozici23v>
				syncWait(2000000);
    85ee:	60 e8       	ldi	r22, 0x80	; 128
    85f0:	74 e8       	ldi	r23, 0x84	; 132
    85f2:	8e e1       	ldi	r24, 0x1E	; 30
    85f4:	90 e0       	ldi	r25, 0x00	; 0
    85f6:	0e 94 e1 00 	call	0x1c2	; 0x1c2 <_Z8syncWaitm>
				vyloz_na_pozici25();
    85fa:	0e 94 39 22 	call	0x4472	; 0x4472 <_Z17vyloz_na_pozici25v>
				syncWait(2000000);
    85fe:	60 e8       	ldi	r22, 0x80	; 128
    8600:	74 e8       	ldi	r23, 0x84	; 132
    8602:	8e e1       	ldi	r24, 0x1E	; 30
    8604:	90 e0       	ldi	r25, 0x00	; 0
    8606:	0e 94 e1 00 	call	0x1c2	; 0x1c2 <_Z8syncWaitm>
				//presun figurku na pozici 25. hraciho pole z pozice 23
			}
			if (B == TL26_1)
    860a:	20 91 09 04 	lds	r18, 0x0409
    860e:	30 91 0a 04 	lds	r19, 0x040A
    8612:	80 91 a3 04 	lds	r24, 0x04A3
    8616:	90 91 a4 04 	lds	r25, 0x04A4
    861a:	28 17       	cp	r18, r24
    861c:	39 07       	cpc	r19, r25
    861e:	81 f4       	brne	.+32     	; 0x8640 <_Z20kalkulace_tahu_robotv+0x291a>
			{
				naber_na_pozici24();
    8620:	0e 94 29 27 	call	0x4e52	; 0x4e52 <_Z17naber_na_pozici24v>
				syncWait(2000000);
    8624:	60 e8       	ldi	r22, 0x80	; 128
    8626:	74 e8       	ldi	r23, 0x84	; 132
    8628:	8e e1       	ldi	r24, 0x1E	; 30
    862a:	90 e0       	ldi	r25, 0x00	; 0
    862c:	0e 94 e1 00 	call	0x1c2	; 0x1c2 <_Z8syncWaitm>
				vyloz_na_pozici25();
    8630:	0e 94 39 22 	call	0x4472	; 0x4472 <_Z17vyloz_na_pozici25v>
				syncWait(2000000);
    8634:	60 e8       	ldi	r22, 0x80	; 128
    8636:	74 e8       	ldi	r23, 0x84	; 132
    8638:	8e e1       	ldi	r24, 0x1E	; 30
    863a:	90 e0       	ldi	r25, 0x00	; 0
    863c:	0e 94 e1 00 	call	0x1c2	; 0x1c2 <_Z8syncWaitm>
				//presun figurku na pozici 25. hraciho pole z pozice 24
			}
		}
	}
	if (A == 28)
    8640:	80 91 07 04 	lds	r24, 0x0407
    8644:	90 91 08 04 	lds	r25, 0x0408
    8648:	4c 97       	sbiw	r24, 0x1c	; 28
    864a:	09 f0       	breq	.+2      	; 0x864e <_Z20kalkulace_tahu_robotv+0x2928>
    864c:	c4 c0       	rjmp	.+392    	; 0x87d6 <_Z20kalkulace_tahu_robotv+0x2ab0>
	{
		if(A == TL28_1)
    864e:	80 91 a7 04 	lds	r24, 0x04A7
    8652:	90 91 a8 04 	lds	r25, 0x04A8
    8656:	4c 97       	sbiw	r24, 0x1c	; 28
    8658:	09 f0       	breq	.+2      	; 0x865c <_Z20kalkulace_tahu_robotv+0x2936>
    865a:	bd c0       	rjmp	.+378    	; 0x87d6 <_Z20kalkulace_tahu_robotv+0x2ab0>
			}
			if (B == TL20_1)
			{
				//presun figurku na pozici 26. hraciho pole z pozice 18
			}
			if (B == TL21_1)
    865c:	20 91 09 04 	lds	r18, 0x0409
    8660:	30 91 0a 04 	lds	r19, 0x040A
    8664:	80 91 99 04 	lds	r24, 0x0499
    8668:	90 91 9a 04 	lds	r25, 0x049A
    866c:	28 17       	cp	r18, r24
    866e:	39 07       	cpc	r19, r25
    8670:	81 f4       	brne	.+32     	; 0x8692 <_Z20kalkulace_tahu_robotv+0x296c>
			{
				naber_na_pozici19();
    8672:	0e 94 c6 27 	call	0x4f8c	; 0x4f8c <_Z17naber_na_pozici19v>
				syncWait(2000000);
    8676:	60 e8       	ldi	r22, 0x80	; 128
    8678:	74 e8       	ldi	r23, 0x84	; 132
    867a:	8e e1       	ldi	r24, 0x1E	; 30
    867c:	90 e0       	ldi	r25, 0x00	; 0
    867e:	0e 94 e1 00 	call	0x1c2	; 0x1c2 <_Z8syncWaitm>
				vyloz_na_pozici26();
    8682:	0e 94 1f 22 	call	0x443e	; 0x443e <_Z17vyloz_na_pozici26v>
				syncWait(2000000);
    8686:	60 e8       	ldi	r22, 0x80	; 128
    8688:	74 e8       	ldi	r23, 0x84	; 132
    868a:	8e e1       	ldi	r24, 0x1E	; 30
    868c:	90 e0       	ldi	r25, 0x00	; 0
    868e:	0e 94 e1 00 	call	0x1c2	; 0x1c2 <_Z8syncWaitm>
				//presun figurku na pozici 26. hraciho pole z pozice 19
			}
			if (B == TL22_1)
    8692:	20 91 09 04 	lds	r18, 0x0409
    8696:	30 91 0a 04 	lds	r19, 0x040A
    869a:	80 91 9b 04 	lds	r24, 0x049B
    869e:	90 91 9c 04 	lds	r25, 0x049C
    86a2:	28 17       	cp	r18, r24
    86a4:	39 07       	cpc	r19, r25
    86a6:	81 f4       	brne	.+32     	; 0x86c8 <_Z20kalkulace_tahu_robotv+0x29a2>
			{
				naber_na_pozici20();
    86a8:	0e 94 ac 27 	call	0x4f58	; 0x4f58 <_Z17naber_na_pozici20v>
				syncWait(2000000);
    86ac:	60 e8       	ldi	r22, 0x80	; 128
    86ae:	74 e8       	ldi	r23, 0x84	; 132
    86b0:	8e e1       	ldi	r24, 0x1E	; 30
    86b2:	90 e0       	ldi	r25, 0x00	; 0
    86b4:	0e 94 e1 00 	call	0x1c2	; 0x1c2 <_Z8syncWaitm>
				vyloz_na_pozici26();
    86b8:	0e 94 1f 22 	call	0x443e	; 0x443e <_Z17vyloz_na_pozici26v>
				syncWait(2000000);
    86bc:	60 e8       	ldi	r22, 0x80	; 128
    86be:	74 e8       	ldi	r23, 0x84	; 132
    86c0:	8e e1       	ldi	r24, 0x1E	; 30
    86c2:	90 e0       	ldi	r25, 0x00	; 0
    86c4:	0e 94 e1 00 	call	0x1c2	; 0x1c2 <_Z8syncWaitm>
				//presun figurku na pozici 26. hraciho pole z pozice 20
			}
			if (B == TL23_1)
    86c8:	20 91 09 04 	lds	r18, 0x0409
    86cc:	30 91 0a 04 	lds	r19, 0x040A
    86d0:	80 91 9d 04 	lds	r24, 0x049D
    86d4:	90 91 9e 04 	lds	r25, 0x049E
    86d8:	28 17       	cp	r18, r24
    86da:	39 07       	cpc	r19, r25
    86dc:	81 f4       	brne	.+32     	; 0x86fe <_Z20kalkulace_tahu_robotv+0x29d8>
			{
				naber_na_pozici21();
    86de:	0e 94 92 27 	call	0x4f24	; 0x4f24 <_Z17naber_na_pozici21v>
				syncWait(2000000);
    86e2:	60 e8       	ldi	r22, 0x80	; 128
    86e4:	74 e8       	ldi	r23, 0x84	; 132
    86e6:	8e e1       	ldi	r24, 0x1E	; 30
    86e8:	90 e0       	ldi	r25, 0x00	; 0
    86ea:	0e 94 e1 00 	call	0x1c2	; 0x1c2 <_Z8syncWaitm>
				vyloz_na_pozici26();
    86ee:	0e 94 1f 22 	call	0x443e	; 0x443e <_Z17vyloz_na_pozici26v>
				syncWait(2000000);
    86f2:	60 e8       	ldi	r22, 0x80	; 128
    86f4:	74 e8       	ldi	r23, 0x84	; 132
    86f6:	8e e1       	ldi	r24, 0x1E	; 30
    86f8:	90 e0       	ldi	r25, 0x00	; 0
    86fa:	0e 94 e1 00 	call	0x1c2	; 0x1c2 <_Z8syncWaitm>
				//presun figurku na pozici 26. hraciho pole z pozice 21
			}
			if (B == TL24_1)
    86fe:	20 91 09 04 	lds	r18, 0x0409
    8702:	30 91 0a 04 	lds	r19, 0x040A
    8706:	80 91 9f 04 	lds	r24, 0x049F
    870a:	90 91 a0 04 	lds	r25, 0x04A0
    870e:	28 17       	cp	r18, r24
    8710:	39 07       	cpc	r19, r25
    8712:	81 f4       	brne	.+32     	; 0x8734 <_Z20kalkulace_tahu_robotv+0x2a0e>
			{
				naber_na_pozici22();
    8714:	0e 94 5d 27 	call	0x4eba	; 0x4eba <_Z17naber_na_pozici22v>
				syncWait(2000000);
    8718:	60 e8       	ldi	r22, 0x80	; 128
    871a:	74 e8       	ldi	r23, 0x84	; 132
    871c:	8e e1       	ldi	r24, 0x1E	; 30
    871e:	90 e0       	ldi	r25, 0x00	; 0
    8720:	0e 94 e1 00 	call	0x1c2	; 0x1c2 <_Z8syncWaitm>
				vyloz_na_pozici26();
    8724:	0e 94 1f 22 	call	0x443e	; 0x443e <_Z17vyloz_na_pozici26v>
				syncWait(2000000);
    8728:	60 e8       	ldi	r22, 0x80	; 128
    872a:	74 e8       	ldi	r23, 0x84	; 132
    872c:	8e e1       	ldi	r24, 0x1E	; 30
    872e:	90 e0       	ldi	r25, 0x00	; 0
    8730:	0e 94 e1 00 	call	0x1c2	; 0x1c2 <_Z8syncWaitm>
				//presun figurku na pozici 26. hraciho pole z pozice 22
			}
			if (B == TL25_1)
    8734:	20 91 09 04 	lds	r18, 0x0409
    8738:	30 91 0a 04 	lds	r19, 0x040A
    873c:	80 91 a1 04 	lds	r24, 0x04A1
    8740:	90 91 a2 04 	lds	r25, 0x04A2
    8744:	28 17       	cp	r18, r24
    8746:	39 07       	cpc	r19, r25
    8748:	81 f4       	brne	.+32     	; 0x876a <_Z20kalkulace_tahu_robotv+0x2a44>
			{
				naber_na_pozici23();
    874a:	0e 94 43 27 	call	0x4e86	; 0x4e86 <_Z17naber_na_pozici23v>
				syncWait(2000000);
    874e:	60 e8       	ldi	r22, 0x80	; 128
    8750:	74 e8       	ldi	r23, 0x84	; 132
    8752:	8e e1       	ldi	r24, 0x1E	; 30
    8754:	90 e0       	ldi	r25, 0x00	; 0
    8756:	0e 94 e1 00 	call	0x1c2	; 0x1c2 <_Z8syncWaitm>
				vyloz_na_pozici26();
    875a:	0e 94 1f 22 	call	0x443e	; 0x443e <_Z17vyloz_na_pozici26v>
				syncWait(2000000);
    875e:	60 e8       	ldi	r22, 0x80	; 128
    8760:	74 e8       	ldi	r23, 0x84	; 132
    8762:	8e e1       	ldi	r24, 0x1E	; 30
    8764:	90 e0       	ldi	r25, 0x00	; 0
    8766:	0e 94 e1 00 	call	0x1c2	; 0x1c2 <_Z8syncWaitm>
				//presun figurku na pozici 26. hraciho pole z pozice 23
			}
			if (B == TL26_1)
    876a:	20 91 09 04 	lds	r18, 0x0409
    876e:	30 91 0a 04 	lds	r19, 0x040A
    8772:	80 91 a3 04 	lds	r24, 0x04A3
    8776:	90 91 a4 04 	lds	r25, 0x04A4
    877a:	28 17       	cp	r18, r24
    877c:	39 07       	cpc	r19, r25
    877e:	81 f4       	brne	.+32     	; 0x87a0 <_Z20kalkulace_tahu_robotv+0x2a7a>
			{
				naber_na_pozici24();
    8780:	0e 94 29 27 	call	0x4e52	; 0x4e52 <_Z17naber_na_pozici24v>
				syncWait(2000000);
    8784:	60 e8       	ldi	r22, 0x80	; 128
    8786:	74 e8       	ldi	r23, 0x84	; 132
    8788:	8e e1       	ldi	r24, 0x1E	; 30
    878a:	90 e0       	ldi	r25, 0x00	; 0
    878c:	0e 94 e1 00 	call	0x1c2	; 0x1c2 <_Z8syncWaitm>
				vyloz_na_pozici26();
    8790:	0e 94 1f 22 	call	0x443e	; 0x443e <_Z17vyloz_na_pozici26v>
				syncWait(2000000);
    8794:	60 e8       	ldi	r22, 0x80	; 128
    8796:	74 e8       	ldi	r23, 0x84	; 132
    8798:	8e e1       	ldi	r24, 0x1E	; 30
    879a:	90 e0       	ldi	r25, 0x00	; 0
    879c:	0e 94 e1 00 	call	0x1c2	; 0x1c2 <_Z8syncWaitm>
				//presun figurku na pozici 26. hraciho pole z pozice 24
			}
			if (B == TL27_1)
    87a0:	20 91 09 04 	lds	r18, 0x0409
    87a4:	30 91 0a 04 	lds	r19, 0x040A
    87a8:	80 91 a5 04 	lds	r24, 0x04A5
    87ac:	90 91 a6 04 	lds	r25, 0x04A6
    87b0:	28 17       	cp	r18, r24
    87b2:	39 07       	cpc	r19, r25
    87b4:	81 f4       	brne	.+32     	; 0x87d6 <_Z20kalkulace_tahu_robotv+0x2ab0>
			{
				naber_na_pozici25();
    87b6:	0e 94 0f 27 	call	0x4e1e	; 0x4e1e <_Z17naber_na_pozici25v>
				syncWait(2000000);
    87ba:	60 e8       	ldi	r22, 0x80	; 128
    87bc:	74 e8       	ldi	r23, 0x84	; 132
    87be:	8e e1       	ldi	r24, 0x1E	; 30
    87c0:	90 e0       	ldi	r25, 0x00	; 0
    87c2:	0e 94 e1 00 	call	0x1c2	; 0x1c2 <_Z8syncWaitm>
				vyloz_na_pozici26();
    87c6:	0e 94 1f 22 	call	0x443e	; 0x443e <_Z17vyloz_na_pozici26v>
				syncWait(2000000);
    87ca:	60 e8       	ldi	r22, 0x80	; 128
    87cc:	74 e8       	ldi	r23, 0x84	; 132
    87ce:	8e e1       	ldi	r24, 0x1E	; 30
    87d0:	90 e0       	ldi	r25, 0x00	; 0
    87d2:	0e 94 e1 00 	call	0x1c2	; 0x1c2 <_Z8syncWaitm>
				//presun figurku na pozici 26. hraciho pole z pozice 25
			}
		}
	}
	if (A == 29)
    87d6:	80 91 07 04 	lds	r24, 0x0407
    87da:	90 91 08 04 	lds	r25, 0x0408
    87de:	4d 97       	sbiw	r24, 0x1d	; 29
    87e0:	09 f0       	breq	.+2      	; 0x87e4 <_Z20kalkulace_tahu_robotv+0x2abe>
    87e2:	c4 c0       	rjmp	.+392    	; 0x896c <_Z20kalkulace_tahu_robotv+0x2c46>
	{
		if(A == TL29_1)
    87e4:	80 91 a9 04 	lds	r24, 0x04A9
    87e8:	90 91 aa 04 	lds	r25, 0x04AA
    87ec:	4d 97       	sbiw	r24, 0x1d	; 29
    87ee:	09 f0       	breq	.+2      	; 0x87f2 <_Z20kalkulace_tahu_robotv+0x2acc>
    87f0:	bd c0       	rjmp	.+378    	; 0x896c <_Z20kalkulace_tahu_robotv+0x2c46>
			}
			if (B == TL21_1)
			{
				//presun figurku na pozici 27. hraciho pole z pozice 19
			}
			if (B == TL22_1)
    87f2:	20 91 09 04 	lds	r18, 0x0409
    87f6:	30 91 0a 04 	lds	r19, 0x040A
    87fa:	80 91 9b 04 	lds	r24, 0x049B
    87fe:	90 91 9c 04 	lds	r25, 0x049C
    8802:	28 17       	cp	r18, r24
    8804:	39 07       	cpc	r19, r25
    8806:	81 f4       	brne	.+32     	; 0x8828 <_Z20kalkulace_tahu_robotv+0x2b02>
			{
				naber_na_pozici20();
    8808:	0e 94 ac 27 	call	0x4f58	; 0x4f58 <_Z17naber_na_pozici20v>
				syncWait(2000000);
    880c:	60 e8       	ldi	r22, 0x80	; 128
    880e:	74 e8       	ldi	r23, 0x84	; 132
    8810:	8e e1       	ldi	r24, 0x1E	; 30
    8812:	90 e0       	ldi	r25, 0x00	; 0
    8814:	0e 94 e1 00 	call	0x1c2	; 0x1c2 <_Z8syncWaitm>
				vyloz_na_pozici27();
    8818:	0e 94 05 22 	call	0x440a	; 0x440a <_Z17vyloz_na_pozici27v>
				syncWait(2000000);
    881c:	60 e8       	ldi	r22, 0x80	; 128
    881e:	74 e8       	ldi	r23, 0x84	; 132
    8820:	8e e1       	ldi	r24, 0x1E	; 30
    8822:	90 e0       	ldi	r25, 0x00	; 0
    8824:	0e 94 e1 00 	call	0x1c2	; 0x1c2 <_Z8syncWaitm>
				//presun figurku na pozici 27. hraciho pole z pozice 20
			}
			if (B == TL23_1)
    8828:	20 91 09 04 	lds	r18, 0x0409
    882c:	30 91 0a 04 	lds	r19, 0x040A
    8830:	80 91 9d 04 	lds	r24, 0x049D
    8834:	90 91 9e 04 	lds	r25, 0x049E
    8838:	28 17       	cp	r18, r24
    883a:	39 07       	cpc	r19, r25
    883c:	81 f4       	brne	.+32     	; 0x885e <_Z20kalkulace_tahu_robotv+0x2b38>
			{
				naber_na_pozici21();
    883e:	0e 94 92 27 	call	0x4f24	; 0x4f24 <_Z17naber_na_pozici21v>
				syncWait(2000000);
    8842:	60 e8       	ldi	r22, 0x80	; 128
    8844:	74 e8       	ldi	r23, 0x84	; 132
    8846:	8e e1       	ldi	r24, 0x1E	; 30
    8848:	90 e0       	ldi	r25, 0x00	; 0
    884a:	0e 94 e1 00 	call	0x1c2	; 0x1c2 <_Z8syncWaitm>
				vyloz_na_pozici27();
    884e:	0e 94 05 22 	call	0x440a	; 0x440a <_Z17vyloz_na_pozici27v>
				syncWait(2000000);
    8852:	60 e8       	ldi	r22, 0x80	; 128
    8854:	74 e8       	ldi	r23, 0x84	; 132
    8856:	8e e1       	ldi	r24, 0x1E	; 30
    8858:	90 e0       	ldi	r25, 0x00	; 0
    885a:	0e 94 e1 00 	call	0x1c2	; 0x1c2 <_Z8syncWaitm>
				//presun figurku na pozici 27. hraciho pole z pozice 21
			}
			if (B == TL24_1)
    885e:	20 91 09 04 	lds	r18, 0x0409
    8862:	30 91 0a 04 	lds	r19, 0x040A
    8866:	80 91 9f 04 	lds	r24, 0x049F
    886a:	90 91 a0 04 	lds	r25, 0x04A0
    886e:	28 17       	cp	r18, r24
    8870:	39 07       	cpc	r19, r25
    8872:	81 f4       	brne	.+32     	; 0x8894 <_Z20kalkulace_tahu_robotv+0x2b6e>
			{
				naber_na_pozici22();
    8874:	0e 94 5d 27 	call	0x4eba	; 0x4eba <_Z17naber_na_pozici22v>
				syncWait(2000000);
    8878:	60 e8       	ldi	r22, 0x80	; 128
    887a:	74 e8       	ldi	r23, 0x84	; 132
    887c:	8e e1       	ldi	r24, 0x1E	; 30
    887e:	90 e0       	ldi	r25, 0x00	; 0
    8880:	0e 94 e1 00 	call	0x1c2	; 0x1c2 <_Z8syncWaitm>
				vyloz_na_pozici27();
    8884:	0e 94 05 22 	call	0x440a	; 0x440a <_Z17vyloz_na_pozici27v>
				syncWait(2000000);
    8888:	60 e8       	ldi	r22, 0x80	; 128
    888a:	74 e8       	ldi	r23, 0x84	; 132
    888c:	8e e1       	ldi	r24, 0x1E	; 30
    888e:	90 e0       	ldi	r25, 0x00	; 0
    8890:	0e 94 e1 00 	call	0x1c2	; 0x1c2 <_Z8syncWaitm>
				//presun figurku na pozici 27. hraciho pole z pozice 22
			}
			if (B == TL25_1)
    8894:	20 91 09 04 	lds	r18, 0x0409
    8898:	30 91 0a 04 	lds	r19, 0x040A
    889c:	80 91 a1 04 	lds	r24, 0x04A1
    88a0:	90 91 a2 04 	lds	r25, 0x04A2
    88a4:	28 17       	cp	r18, r24
    88a6:	39 07       	cpc	r19, r25
    88a8:	81 f4       	brne	.+32     	; 0x88ca <_Z20kalkulace_tahu_robotv+0x2ba4>
			{
				naber_na_pozici23();
    88aa:	0e 94 43 27 	call	0x4e86	; 0x4e86 <_Z17naber_na_pozici23v>
				syncWait(2000000);
    88ae:	60 e8       	ldi	r22, 0x80	; 128
    88b0:	74 e8       	ldi	r23, 0x84	; 132
    88b2:	8e e1       	ldi	r24, 0x1E	; 30
    88b4:	90 e0       	ldi	r25, 0x00	; 0
    88b6:	0e 94 e1 00 	call	0x1c2	; 0x1c2 <_Z8syncWaitm>
				vyloz_na_pozici27();
    88ba:	0e 94 05 22 	call	0x440a	; 0x440a <_Z17vyloz_na_pozici27v>
				syncWait(2000000);
    88be:	60 e8       	ldi	r22, 0x80	; 128
    88c0:	74 e8       	ldi	r23, 0x84	; 132
    88c2:	8e e1       	ldi	r24, 0x1E	; 30
    88c4:	90 e0       	ldi	r25, 0x00	; 0
    88c6:	0e 94 e1 00 	call	0x1c2	; 0x1c2 <_Z8syncWaitm>
				//presun figurku na pozici 27. hraciho pole z pozice 23
			}
			if (B == TL26_1)
    88ca:	20 91 09 04 	lds	r18, 0x0409
    88ce:	30 91 0a 04 	lds	r19, 0x040A
    88d2:	80 91 a3 04 	lds	r24, 0x04A3
    88d6:	90 91 a4 04 	lds	r25, 0x04A4
    88da:	28 17       	cp	r18, r24
    88dc:	39 07       	cpc	r19, r25
    88de:	81 f4       	brne	.+32     	; 0x8900 <_Z20kalkulace_tahu_robotv+0x2bda>
			{
				naber_na_pozici24();
    88e0:	0e 94 29 27 	call	0x4e52	; 0x4e52 <_Z17naber_na_pozici24v>
				syncWait(2000000);
    88e4:	60 e8       	ldi	r22, 0x80	; 128
    88e6:	74 e8       	ldi	r23, 0x84	; 132
    88e8:	8e e1       	ldi	r24, 0x1E	; 30
    88ea:	90 e0       	ldi	r25, 0x00	; 0
    88ec:	0e 94 e1 00 	call	0x1c2	; 0x1c2 <_Z8syncWaitm>
				vyloz_na_pozici27();
    88f0:	0e 94 05 22 	call	0x440a	; 0x440a <_Z17vyloz_na_pozici27v>
				syncWait(2000000);
    88f4:	60 e8       	ldi	r22, 0x80	; 128
    88f6:	74 e8       	ldi	r23, 0x84	; 132
    88f8:	8e e1       	ldi	r24, 0x1E	; 30
    88fa:	90 e0       	ldi	r25, 0x00	; 0
    88fc:	0e 94 e1 00 	call	0x1c2	; 0x1c2 <_Z8syncWaitm>
				//presun figurku na pozici 27. hraciho pole z pozice 24
			}
			if (B == TL27_1)
    8900:	20 91 09 04 	lds	r18, 0x0409
    8904:	30 91 0a 04 	lds	r19, 0x040A
    8908:	80 91 a5 04 	lds	r24, 0x04A5
    890c:	90 91 a6 04 	lds	r25, 0x04A6
    8910:	28 17       	cp	r18, r24
    8912:	39 07       	cpc	r19, r25
    8914:	81 f4       	brne	.+32     	; 0x8936 <_Z20kalkulace_tahu_robotv+0x2c10>
			{
				naber_na_pozici25();
    8916:	0e 94 0f 27 	call	0x4e1e	; 0x4e1e <_Z17naber_na_pozici25v>
				syncWait(2000000);
    891a:	60 e8       	ldi	r22, 0x80	; 128
    891c:	74 e8       	ldi	r23, 0x84	; 132
    891e:	8e e1       	ldi	r24, 0x1E	; 30
    8920:	90 e0       	ldi	r25, 0x00	; 0
    8922:	0e 94 e1 00 	call	0x1c2	; 0x1c2 <_Z8syncWaitm>
				vyloz_na_pozici27();
    8926:	0e 94 05 22 	call	0x440a	; 0x440a <_Z17vyloz_na_pozici27v>
				syncWait(2000000);
    892a:	60 e8       	ldi	r22, 0x80	; 128
    892c:	74 e8       	ldi	r23, 0x84	; 132
    892e:	8e e1       	ldi	r24, 0x1E	; 30
    8930:	90 e0       	ldi	r25, 0x00	; 0
    8932:	0e 94 e1 00 	call	0x1c2	; 0x1c2 <_Z8syncWaitm>
				//presun figurku na pozici 27. hraciho pole z pozice 25
			}
			if (B == TL28_1)
    8936:	20 91 09 04 	lds	r18, 0x0409
    893a:	30 91 0a 04 	lds	r19, 0x040A
    893e:	80 91 a7 04 	lds	r24, 0x04A7
    8942:	90 91 a8 04 	lds	r25, 0x04A8
    8946:	28 17       	cp	r18, r24
    8948:	39 07       	cpc	r19, r25
    894a:	81 f4       	brne	.+32     	; 0x896c <_Z20kalkulace_tahu_robotv+0x2c46>
			{
				naber_na_pozici26();
    894c:	0e 94 f5 26 	call	0x4dea	; 0x4dea <_Z17naber_na_pozici26v>
				syncWait(2000000);
    8950:	60 e8       	ldi	r22, 0x80	; 128
    8952:	74 e8       	ldi	r23, 0x84	; 132
    8954:	8e e1       	ldi	r24, 0x1E	; 30
    8956:	90 e0       	ldi	r25, 0x00	; 0
    8958:	0e 94 e1 00 	call	0x1c2	; 0x1c2 <_Z8syncWaitm>
				vyloz_na_pozici27();
    895c:	0e 94 05 22 	call	0x440a	; 0x440a <_Z17vyloz_na_pozici27v>
				syncWait(2000000);
    8960:	60 e8       	ldi	r22, 0x80	; 128
    8962:	74 e8       	ldi	r23, 0x84	; 132
    8964:	8e e1       	ldi	r24, 0x1E	; 30
    8966:	90 e0       	ldi	r25, 0x00	; 0
    8968:	0e 94 e1 00 	call	0x1c2	; 0x1c2 <_Z8syncWaitm>
				//presun figurku na pozici 27. hraciho pole z pozice 26
			}
		}
	}
	if (A == 30)
    896c:	80 91 07 04 	lds	r24, 0x0407
    8970:	90 91 08 04 	lds	r25, 0x0408
    8974:	4e 97       	sbiw	r24, 0x1e	; 30
    8976:	09 f0       	breq	.+2      	; 0x897a <_Z20kalkulace_tahu_robotv+0x2c54>
    8978:	c4 c0       	rjmp	.+392    	; 0x8b02 <_Z20kalkulace_tahu_robotv+0x2ddc>
	{
		if(A == TL30_1)
    897a:	80 91 ab 04 	lds	r24, 0x04AB
    897e:	90 91 ac 04 	lds	r25, 0x04AC
    8982:	4e 97       	sbiw	r24, 0x1e	; 30
    8984:	09 f0       	breq	.+2      	; 0x8988 <_Z20kalkulace_tahu_robotv+0x2c62>
    8986:	bd c0       	rjmp	.+378    	; 0x8b02 <_Z20kalkulace_tahu_robotv+0x2ddc>
			}
			if (B == TL22_1)
			{
				//presun figurku na pozici 28. hraciho pole z pozice 20
			}
			if (B == TL23_1)
    8988:	20 91 09 04 	lds	r18, 0x0409
    898c:	30 91 0a 04 	lds	r19, 0x040A
    8990:	80 91 9d 04 	lds	r24, 0x049D
    8994:	90 91 9e 04 	lds	r25, 0x049E
    8998:	28 17       	cp	r18, r24
    899a:	39 07       	cpc	r19, r25
    899c:	81 f4       	brne	.+32     	; 0x89be <_Z20kalkulace_tahu_robotv+0x2c98>
			{
				naber_na_pozici21();
    899e:	0e 94 92 27 	call	0x4f24	; 0x4f24 <_Z17naber_na_pozici21v>
				syncWait(2000000);
    89a2:	60 e8       	ldi	r22, 0x80	; 128
    89a4:	74 e8       	ldi	r23, 0x84	; 132
    89a6:	8e e1       	ldi	r24, 0x1E	; 30
    89a8:	90 e0       	ldi	r25, 0x00	; 0
    89aa:	0e 94 e1 00 	call	0x1c2	; 0x1c2 <_Z8syncWaitm>
				vyloz_na_pozici28();
    89ae:	0e 94 eb 21 	call	0x43d6	; 0x43d6 <_Z17vyloz_na_pozici28v>
				syncWait(2000000);
    89b2:	60 e8       	ldi	r22, 0x80	; 128
    89b4:	74 e8       	ldi	r23, 0x84	; 132
    89b6:	8e e1       	ldi	r24, 0x1E	; 30
    89b8:	90 e0       	ldi	r25, 0x00	; 0
    89ba:	0e 94 e1 00 	call	0x1c2	; 0x1c2 <_Z8syncWaitm>
				//presun figurku na pozici 28. hraciho pole z pozice 21
			}
			if (B == TL24_1)
    89be:	20 91 09 04 	lds	r18, 0x0409
    89c2:	30 91 0a 04 	lds	r19, 0x040A
    89c6:	80 91 9f 04 	lds	r24, 0x049F
    89ca:	90 91 a0 04 	lds	r25, 0x04A0
    89ce:	28 17       	cp	r18, r24
    89d0:	39 07       	cpc	r19, r25
    89d2:	81 f4       	brne	.+32     	; 0x89f4 <_Z20kalkulace_tahu_robotv+0x2cce>
			{
				naber_na_pozici22();
    89d4:	0e 94 5d 27 	call	0x4eba	; 0x4eba <_Z17naber_na_pozici22v>
				syncWait(2000000);
    89d8:	60 e8       	ldi	r22, 0x80	; 128
    89da:	74 e8       	ldi	r23, 0x84	; 132
    89dc:	8e e1       	ldi	r24, 0x1E	; 30
    89de:	90 e0       	ldi	r25, 0x00	; 0
    89e0:	0e 94 e1 00 	call	0x1c2	; 0x1c2 <_Z8syncWaitm>
				vyloz_na_pozici28();
    89e4:	0e 94 eb 21 	call	0x43d6	; 0x43d6 <_Z17vyloz_na_pozici28v>
				syncWait(2000000);
    89e8:	60 e8       	ldi	r22, 0x80	; 128
    89ea:	74 e8       	ldi	r23, 0x84	; 132
    89ec:	8e e1       	ldi	r24, 0x1E	; 30
    89ee:	90 e0       	ldi	r25, 0x00	; 0
    89f0:	0e 94 e1 00 	call	0x1c2	; 0x1c2 <_Z8syncWaitm>
				//presun figurku na pozici 28. hraciho pole z pozice 22
			}
			if (B == TL25_1)
    89f4:	20 91 09 04 	lds	r18, 0x0409
    89f8:	30 91 0a 04 	lds	r19, 0x040A
    89fc:	80 91 a1 04 	lds	r24, 0x04A1
    8a00:	90 91 a2 04 	lds	r25, 0x04A2
    8a04:	28 17       	cp	r18, r24
    8a06:	39 07       	cpc	r19, r25
    8a08:	81 f4       	brne	.+32     	; 0x8a2a <_Z20kalkulace_tahu_robotv+0x2d04>
			{
				naber_na_pozici23();
    8a0a:	0e 94 43 27 	call	0x4e86	; 0x4e86 <_Z17naber_na_pozici23v>
				syncWait(2000000);
    8a0e:	60 e8       	ldi	r22, 0x80	; 128
    8a10:	74 e8       	ldi	r23, 0x84	; 132
    8a12:	8e e1       	ldi	r24, 0x1E	; 30
    8a14:	90 e0       	ldi	r25, 0x00	; 0
    8a16:	0e 94 e1 00 	call	0x1c2	; 0x1c2 <_Z8syncWaitm>
				vyloz_na_pozici28();
    8a1a:	0e 94 eb 21 	call	0x43d6	; 0x43d6 <_Z17vyloz_na_pozici28v>
				syncWait(2000000);
    8a1e:	60 e8       	ldi	r22, 0x80	; 128
    8a20:	74 e8       	ldi	r23, 0x84	; 132
    8a22:	8e e1       	ldi	r24, 0x1E	; 30
    8a24:	90 e0       	ldi	r25, 0x00	; 0
    8a26:	0e 94 e1 00 	call	0x1c2	; 0x1c2 <_Z8syncWaitm>
				//presun figurku na pozici 28. hraciho pole z pozice 23
			}
			if (B == TL26_1)
    8a2a:	20 91 09 04 	lds	r18, 0x0409
    8a2e:	30 91 0a 04 	lds	r19, 0x040A
    8a32:	80 91 a3 04 	lds	r24, 0x04A3
    8a36:	90 91 a4 04 	lds	r25, 0x04A4
    8a3a:	28 17       	cp	r18, r24
    8a3c:	39 07       	cpc	r19, r25
    8a3e:	81 f4       	brne	.+32     	; 0x8a60 <_Z20kalkulace_tahu_robotv+0x2d3a>
			{
				naber_na_pozici24();
    8a40:	0e 94 29 27 	call	0x4e52	; 0x4e52 <_Z17naber_na_pozici24v>
				syncWait(2000000);
    8a44:	60 e8       	ldi	r22, 0x80	; 128
    8a46:	74 e8       	ldi	r23, 0x84	; 132
    8a48:	8e e1       	ldi	r24, 0x1E	; 30
    8a4a:	90 e0       	ldi	r25, 0x00	; 0
    8a4c:	0e 94 e1 00 	call	0x1c2	; 0x1c2 <_Z8syncWaitm>
				vyloz_na_pozici28();
    8a50:	0e 94 eb 21 	call	0x43d6	; 0x43d6 <_Z17vyloz_na_pozici28v>
				syncWait(2000000);
    8a54:	60 e8       	ldi	r22, 0x80	; 128
    8a56:	74 e8       	ldi	r23, 0x84	; 132
    8a58:	8e e1       	ldi	r24, 0x1E	; 30
    8a5a:	90 e0       	ldi	r25, 0x00	; 0
    8a5c:	0e 94 e1 00 	call	0x1c2	; 0x1c2 <_Z8syncWaitm>
				//presun figurku na pozici 28. hraciho pole z pozice 24
			}
			if (B == TL27_1)
    8a60:	20 91 09 04 	lds	r18, 0x0409
    8a64:	30 91 0a 04 	lds	r19, 0x040A
    8a68:	80 91 a5 04 	lds	r24, 0x04A5
    8a6c:	90 91 a6 04 	lds	r25, 0x04A6
    8a70:	28 17       	cp	r18, r24
    8a72:	39 07       	cpc	r19, r25
    8a74:	81 f4       	brne	.+32     	; 0x8a96 <_Z20kalkulace_tahu_robotv+0x2d70>
			{
				naber_na_pozici25();
    8a76:	0e 94 0f 27 	call	0x4e1e	; 0x4e1e <_Z17naber_na_pozici25v>
				syncWait(2000000);
    8a7a:	60 e8       	ldi	r22, 0x80	; 128
    8a7c:	74 e8       	ldi	r23, 0x84	; 132
    8a7e:	8e e1       	ldi	r24, 0x1E	; 30
    8a80:	90 e0       	ldi	r25, 0x00	; 0
    8a82:	0e 94 e1 00 	call	0x1c2	; 0x1c2 <_Z8syncWaitm>
				vyloz_na_pozici28();
    8a86:	0e 94 eb 21 	call	0x43d6	; 0x43d6 <_Z17vyloz_na_pozici28v>
				syncWait(2000000);
    8a8a:	60 e8       	ldi	r22, 0x80	; 128
    8a8c:	74 e8       	ldi	r23, 0x84	; 132
    8a8e:	8e e1       	ldi	r24, 0x1E	; 30
    8a90:	90 e0       	ldi	r25, 0x00	; 0
    8a92:	0e 94 e1 00 	call	0x1c2	; 0x1c2 <_Z8syncWaitm>
				//presun figurku na pozici 28. hraciho pole z pozice 25
			}
			if (B == TL28_1)
    8a96:	20 91 09 04 	lds	r18, 0x0409
    8a9a:	30 91 0a 04 	lds	r19, 0x040A
    8a9e:	80 91 a7 04 	lds	r24, 0x04A7
    8aa2:	90 91 a8 04 	lds	r25, 0x04A8
    8aa6:	28 17       	cp	r18, r24
    8aa8:	39 07       	cpc	r19, r25
    8aaa:	81 f4       	brne	.+32     	; 0x8acc <_Z20kalkulace_tahu_robotv+0x2da6>
			{
				naber_na_pozici26();
    8aac:	0e 94 f5 26 	call	0x4dea	; 0x4dea <_Z17naber_na_pozici26v>
				syncWait(2000000);
    8ab0:	60 e8       	ldi	r22, 0x80	; 128
    8ab2:	74 e8       	ldi	r23, 0x84	; 132
    8ab4:	8e e1       	ldi	r24, 0x1E	; 30
    8ab6:	90 e0       	ldi	r25, 0x00	; 0
    8ab8:	0e 94 e1 00 	call	0x1c2	; 0x1c2 <_Z8syncWaitm>
				vyloz_na_pozici28();
    8abc:	0e 94 eb 21 	call	0x43d6	; 0x43d6 <_Z17vyloz_na_pozici28v>
				syncWait(2000000);
    8ac0:	60 e8       	ldi	r22, 0x80	; 128
    8ac2:	74 e8       	ldi	r23, 0x84	; 132
    8ac4:	8e e1       	ldi	r24, 0x1E	; 30
    8ac6:	90 e0       	ldi	r25, 0x00	; 0
    8ac8:	0e 94 e1 00 	call	0x1c2	; 0x1c2 <_Z8syncWaitm>
				//presun figurku na pozici 28. hraciho pole z pozice 26
			}
			if (B == TL29_1)
    8acc:	20 91 09 04 	lds	r18, 0x0409
    8ad0:	30 91 0a 04 	lds	r19, 0x040A
    8ad4:	80 91 a9 04 	lds	r24, 0x04A9
    8ad8:	90 91 aa 04 	lds	r25, 0x04AA
    8adc:	28 17       	cp	r18, r24
    8ade:	39 07       	cpc	r19, r25
    8ae0:	81 f4       	brne	.+32     	; 0x8b02 <_Z20kalkulace_tahu_robotv+0x2ddc>
			{
				naber_na_pozici27();
    8ae2:	0e 94 db 26 	call	0x4db6	; 0x4db6 <_Z17naber_na_pozici27v>
				syncWait(2000000);
    8ae6:	60 e8       	ldi	r22, 0x80	; 128
    8ae8:	74 e8       	ldi	r23, 0x84	; 132
    8aea:	8e e1       	ldi	r24, 0x1E	; 30
    8aec:	90 e0       	ldi	r25, 0x00	; 0
    8aee:	0e 94 e1 00 	call	0x1c2	; 0x1c2 <_Z8syncWaitm>
				vyloz_na_pozici28();
    8af2:	0e 94 eb 21 	call	0x43d6	; 0x43d6 <_Z17vyloz_na_pozici28v>
				syncWait(2000000);
    8af6:	60 e8       	ldi	r22, 0x80	; 128
    8af8:	74 e8       	ldi	r23, 0x84	; 132
    8afa:	8e e1       	ldi	r24, 0x1E	; 30
    8afc:	90 e0       	ldi	r25, 0x00	; 0
    8afe:	0e 94 e1 00 	call	0x1c2	; 0x1c2 <_Z8syncWaitm>
				//presun figurku na pozici 28. hraciho pole z pozice 27
			}
		}
	}
	if (A == 31)
    8b02:	80 91 07 04 	lds	r24, 0x0407
    8b06:	90 91 08 04 	lds	r25, 0x0408
    8b0a:	4f 97       	sbiw	r24, 0x1f	; 31
    8b0c:	09 f0       	breq	.+2      	; 0x8b10 <_Z20kalkulace_tahu_robotv+0x2dea>
    8b0e:	c4 c0       	rjmp	.+392    	; 0x8c98 <_Z20kalkulace_tahu_robotv+0x2f72>
	{
		if(A == TL31_1)
    8b10:	80 91 ad 04 	lds	r24, 0x04AD
    8b14:	90 91 ae 04 	lds	r25, 0x04AE
    8b18:	4f 97       	sbiw	r24, 0x1f	; 31
    8b1a:	09 f0       	breq	.+2      	; 0x8b1e <_Z20kalkulace_tahu_robotv+0x2df8>
    8b1c:	bd c0       	rjmp	.+378    	; 0x8c98 <_Z20kalkulace_tahu_robotv+0x2f72>
			}
			if (B == TL23_1)
			{
				//presun figurku na pozici 29. hraciho pole z pozice 21
			}
			if (B == TL24_1)
    8b1e:	20 91 09 04 	lds	r18, 0x0409
    8b22:	30 91 0a 04 	lds	r19, 0x040A
    8b26:	80 91 9f 04 	lds	r24, 0x049F
    8b2a:	90 91 a0 04 	lds	r25, 0x04A0
    8b2e:	28 17       	cp	r18, r24
    8b30:	39 07       	cpc	r19, r25
    8b32:	81 f4       	brne	.+32     	; 0x8b54 <_Z20kalkulace_tahu_robotv+0x2e2e>
			{
				naber_na_pozici22();
    8b34:	0e 94 5d 27 	call	0x4eba	; 0x4eba <_Z17naber_na_pozici22v>
				syncWait(2000000);
    8b38:	60 e8       	ldi	r22, 0x80	; 128
    8b3a:	74 e8       	ldi	r23, 0x84	; 132
    8b3c:	8e e1       	ldi	r24, 0x1E	; 30
    8b3e:	90 e0       	ldi	r25, 0x00	; 0
    8b40:	0e 94 e1 00 	call	0x1c2	; 0x1c2 <_Z8syncWaitm>
				vyloz_na_pozici29();
    8b44:	0e 94 d1 21 	call	0x43a2	; 0x43a2 <_Z17vyloz_na_pozici29v>
				syncWait(2000000);
    8b48:	60 e8       	ldi	r22, 0x80	; 128
    8b4a:	74 e8       	ldi	r23, 0x84	; 132
    8b4c:	8e e1       	ldi	r24, 0x1E	; 30
    8b4e:	90 e0       	ldi	r25, 0x00	; 0
    8b50:	0e 94 e1 00 	call	0x1c2	; 0x1c2 <_Z8syncWaitm>
				//presun figurku na pozici 29. hraciho pole z pozice 22
			}
			if (B == TL25_1)
    8b54:	20 91 09 04 	lds	r18, 0x0409
    8b58:	30 91 0a 04 	lds	r19, 0x040A
    8b5c:	80 91 a1 04 	lds	r24, 0x04A1
    8b60:	90 91 a2 04 	lds	r25, 0x04A2
    8b64:	28 17       	cp	r18, r24
    8b66:	39 07       	cpc	r19, r25
    8b68:	81 f4       	brne	.+32     	; 0x8b8a <_Z20kalkulace_tahu_robotv+0x2e64>
			{
				naber_na_pozici23();
    8b6a:	0e 94 43 27 	call	0x4e86	; 0x4e86 <_Z17naber_na_pozici23v>
				syncWait(2000000);
    8b6e:	60 e8       	ldi	r22, 0x80	; 128
    8b70:	74 e8       	ldi	r23, 0x84	; 132
    8b72:	8e e1       	ldi	r24, 0x1E	; 30
    8b74:	90 e0       	ldi	r25, 0x00	; 0
    8b76:	0e 94 e1 00 	call	0x1c2	; 0x1c2 <_Z8syncWaitm>
				vyloz_na_pozici29();
    8b7a:	0e 94 d1 21 	call	0x43a2	; 0x43a2 <_Z17vyloz_na_pozici29v>
				syncWait(2000000);
    8b7e:	60 e8       	ldi	r22, 0x80	; 128
    8b80:	74 e8       	ldi	r23, 0x84	; 132
    8b82:	8e e1       	ldi	r24, 0x1E	; 30
    8b84:	90 e0       	ldi	r25, 0x00	; 0
    8b86:	0e 94 e1 00 	call	0x1c2	; 0x1c2 <_Z8syncWaitm>
				//presun figurku na pozici 29. hraciho pole z pozice 23
			}
			if (B == TL26_1)
    8b8a:	20 91 09 04 	lds	r18, 0x0409
    8b8e:	30 91 0a 04 	lds	r19, 0x040A
    8b92:	80 91 a3 04 	lds	r24, 0x04A3
    8b96:	90 91 a4 04 	lds	r25, 0x04A4
    8b9a:	28 17       	cp	r18, r24
    8b9c:	39 07       	cpc	r19, r25
    8b9e:	81 f4       	brne	.+32     	; 0x8bc0 <_Z20kalkulace_tahu_robotv+0x2e9a>
			{
				naber_na_pozici24();
    8ba0:	0e 94 29 27 	call	0x4e52	; 0x4e52 <_Z17naber_na_pozici24v>
				syncWait(2000000);
    8ba4:	60 e8       	ldi	r22, 0x80	; 128
    8ba6:	74 e8       	ldi	r23, 0x84	; 132
    8ba8:	8e e1       	ldi	r24, 0x1E	; 30
    8baa:	90 e0       	ldi	r25, 0x00	; 0
    8bac:	0e 94 e1 00 	call	0x1c2	; 0x1c2 <_Z8syncWaitm>
				vyloz_na_pozici29();
    8bb0:	0e 94 d1 21 	call	0x43a2	; 0x43a2 <_Z17vyloz_na_pozici29v>
				syncWait(2000000);
    8bb4:	60 e8       	ldi	r22, 0x80	; 128
    8bb6:	74 e8       	ldi	r23, 0x84	; 132
    8bb8:	8e e1       	ldi	r24, 0x1E	; 30
    8bba:	90 e0       	ldi	r25, 0x00	; 0
    8bbc:	0e 94 e1 00 	call	0x1c2	; 0x1c2 <_Z8syncWaitm>
				//presun figurku na pozici 29. hraciho pole z pozice 24
			}
			if (B == TL27_1)
    8bc0:	20 91 09 04 	lds	r18, 0x0409
    8bc4:	30 91 0a 04 	lds	r19, 0x040A
    8bc8:	80 91 a5 04 	lds	r24, 0x04A5
    8bcc:	90 91 a6 04 	lds	r25, 0x04A6
    8bd0:	28 17       	cp	r18, r24
    8bd2:	39 07       	cpc	r19, r25
    8bd4:	81 f4       	brne	.+32     	; 0x8bf6 <_Z20kalkulace_tahu_robotv+0x2ed0>
			{
				naber_na_pozici25();
    8bd6:	0e 94 0f 27 	call	0x4e1e	; 0x4e1e <_Z17naber_na_pozici25v>
				syncWait(2000000);
    8bda:	60 e8       	ldi	r22, 0x80	; 128
    8bdc:	74 e8       	ldi	r23, 0x84	; 132
    8bde:	8e e1       	ldi	r24, 0x1E	; 30
    8be0:	90 e0       	ldi	r25, 0x00	; 0
    8be2:	0e 94 e1 00 	call	0x1c2	; 0x1c2 <_Z8syncWaitm>
				vyloz_na_pozici29();
    8be6:	0e 94 d1 21 	call	0x43a2	; 0x43a2 <_Z17vyloz_na_pozici29v>
				syncWait(2000000);
    8bea:	60 e8       	ldi	r22, 0x80	; 128
    8bec:	74 e8       	ldi	r23, 0x84	; 132
    8bee:	8e e1       	ldi	r24, 0x1E	; 30
    8bf0:	90 e0       	ldi	r25, 0x00	; 0
    8bf2:	0e 94 e1 00 	call	0x1c2	; 0x1c2 <_Z8syncWaitm>
				//presun figurku na pozici 29. hraciho pole z pozice 25
			}
			if (B == TL28_1)
    8bf6:	20 91 09 04 	lds	r18, 0x0409
    8bfa:	30 91 0a 04 	lds	r19, 0x040A
    8bfe:	80 91 a7 04 	lds	r24, 0x04A7
    8c02:	90 91 a8 04 	lds	r25, 0x04A8
    8c06:	28 17       	cp	r18, r24
    8c08:	39 07       	cpc	r19, r25
    8c0a:	81 f4       	brne	.+32     	; 0x8c2c <_Z20kalkulace_tahu_robotv+0x2f06>
			{
				naber_na_pozici26();
    8c0c:	0e 94 f5 26 	call	0x4dea	; 0x4dea <_Z17naber_na_pozici26v>
				syncWait(2000000);
    8c10:	60 e8       	ldi	r22, 0x80	; 128
    8c12:	74 e8       	ldi	r23, 0x84	; 132
    8c14:	8e e1       	ldi	r24, 0x1E	; 30
    8c16:	90 e0       	ldi	r25, 0x00	; 0
    8c18:	0e 94 e1 00 	call	0x1c2	; 0x1c2 <_Z8syncWaitm>
				vyloz_na_pozici29();
    8c1c:	0e 94 d1 21 	call	0x43a2	; 0x43a2 <_Z17vyloz_na_pozici29v>
				syncWait(2000000);
    8c20:	60 e8       	ldi	r22, 0x80	; 128
    8c22:	74 e8       	ldi	r23, 0x84	; 132
    8c24:	8e e1       	ldi	r24, 0x1E	; 30
    8c26:	90 e0       	ldi	r25, 0x00	; 0
    8c28:	0e 94 e1 00 	call	0x1c2	; 0x1c2 <_Z8syncWaitm>
				//presun figurku na pozici 29. hraciho pole z pozice 26
			}
			if (B == TL29_1)
    8c2c:	20 91 09 04 	lds	r18, 0x0409
    8c30:	30 91 0a 04 	lds	r19, 0x040A
    8c34:	80 91 a9 04 	lds	r24, 0x04A9
    8c38:	90 91 aa 04 	lds	r25, 0x04AA
    8c3c:	28 17       	cp	r18, r24
    8c3e:	39 07       	cpc	r19, r25
    8c40:	81 f4       	brne	.+32     	; 0x8c62 <_Z20kalkulace_tahu_robotv+0x2f3c>
			{
				naber_na_pozici27();
    8c42:	0e 94 db 26 	call	0x4db6	; 0x4db6 <_Z17naber_na_pozici27v>
				syncWait(2000000);
    8c46:	60 e8       	ldi	r22, 0x80	; 128
    8c48:	74 e8       	ldi	r23, 0x84	; 132
    8c4a:	8e e1       	ldi	r24, 0x1E	; 30
    8c4c:	90 e0       	ldi	r25, 0x00	; 0
    8c4e:	0e 94 e1 00 	call	0x1c2	; 0x1c2 <_Z8syncWaitm>
				vyloz_na_pozici29();
    8c52:	0e 94 d1 21 	call	0x43a2	; 0x43a2 <_Z17vyloz_na_pozici29v>
				syncWait(2000000);
    8c56:	60 e8       	ldi	r22, 0x80	; 128
    8c58:	74 e8       	ldi	r23, 0x84	; 132
    8c5a:	8e e1       	ldi	r24, 0x1E	; 30
    8c5c:	90 e0       	ldi	r25, 0x00	; 0
    8c5e:	0e 94 e1 00 	call	0x1c2	; 0x1c2 <_Z8syncWaitm>
				//presun figurku na pozici 29. hraciho pole z pozice 27
			}
			if (B == TL30_1)
    8c62:	20 91 09 04 	lds	r18, 0x0409
    8c66:	30 91 0a 04 	lds	r19, 0x040A
    8c6a:	80 91 ab 04 	lds	r24, 0x04AB
    8c6e:	90 91 ac 04 	lds	r25, 0x04AC
    8c72:	28 17       	cp	r18, r24
    8c74:	39 07       	cpc	r19, r25
    8c76:	81 f4       	brne	.+32     	; 0x8c98 <_Z20kalkulace_tahu_robotv+0x2f72>
			{
				naber_na_pozici28();
    8c78:	0e 94 c1 26 	call	0x4d82	; 0x4d82 <_Z17naber_na_pozici28v>
				syncWait(2000000);
    8c7c:	60 e8       	ldi	r22, 0x80	; 128
    8c7e:	74 e8       	ldi	r23, 0x84	; 132
    8c80:	8e e1       	ldi	r24, 0x1E	; 30
    8c82:	90 e0       	ldi	r25, 0x00	; 0
    8c84:	0e 94 e1 00 	call	0x1c2	; 0x1c2 <_Z8syncWaitm>
				vyloz_na_pozici29();
    8c88:	0e 94 d1 21 	call	0x43a2	; 0x43a2 <_Z17vyloz_na_pozici29v>
				syncWait(2000000);
    8c8c:	60 e8       	ldi	r22, 0x80	; 128
    8c8e:	74 e8       	ldi	r23, 0x84	; 132
    8c90:	8e e1       	ldi	r24, 0x1E	; 30
    8c92:	90 e0       	ldi	r25, 0x00	; 0
    8c94:	0e 94 e1 00 	call	0x1c2	; 0x1c2 <_Z8syncWaitm>
				//presun figurku na pozici 29. hraciho pole z pozice 28
			}
		}
	}
	if (A >= 32)
    8c98:	20 91 07 04 	lds	r18, 0x0407
    8c9c:	30 91 08 04 	lds	r19, 0x0408
    8ca0:	20 32       	cpi	r18, 0x20	; 32
    8ca2:	31 05       	cpc	r19, r1
    8ca4:	0c f4       	brge	.+2      	; 0x8ca8 <_Z20kalkulace_tahu_robotv+0x2f82>
    8ca6:	e0 c0       	rjmp	.+448    	; 0x8e68 <_Z20kalkulace_tahu_robotv+0x3142>
	{
		if(A >= TL31_1)
    8ca8:	80 91 ad 04 	lds	r24, 0x04AD
    8cac:	90 91 ae 04 	lds	r25, 0x04AE
    8cb0:	28 17       	cp	r18, r24
    8cb2:	39 07       	cpc	r19, r25
    8cb4:	0c f4       	brge	.+2      	; 0x8cb8 <_Z20kalkulace_tahu_robotv+0x2f92>
    8cb6:	d8 c0       	rjmp	.+432    	; 0x8e68 <_Z20kalkulace_tahu_robotv+0x3142>
		{
		
			if (B == TL24_1)
    8cb8:	20 91 09 04 	lds	r18, 0x0409
    8cbc:	30 91 0a 04 	lds	r19, 0x040A
    8cc0:	80 91 9f 04 	lds	r24, 0x049F
    8cc4:	90 91 a0 04 	lds	r25, 0x04A0
    8cc8:	28 17       	cp	r18, r24
    8cca:	39 07       	cpc	r19, r25
    8ccc:	81 f4       	brne	.+32     	; 0x8cee <_Z20kalkulace_tahu_robotv+0x2fc8>
			{
				naber_na_pozici22();
    8cce:	0e 94 5d 27 	call	0x4eba	; 0x4eba <_Z17naber_na_pozici22v>
				syncWait(2000000);
    8cd2:	60 e8       	ldi	r22, 0x80	; 128
    8cd4:	74 e8       	ldi	r23, 0x84	; 132
    8cd6:	8e e1       	ldi	r24, 0x1E	; 30
    8cd8:	90 e0       	ldi	r25, 0x00	; 0
    8cda:	0e 94 e1 00 	call	0x1c2	; 0x1c2 <_Z8syncWaitm>
				vyloz_na_pozici_chlivek1();
    8cde:	0e 94 ca 1d 	call	0x3b94	; 0x3b94 <_Z24vyloz_na_pozici_chlivek1v>
				syncWait(2000000);
    8ce2:	60 e8       	ldi	r22, 0x80	; 128
    8ce4:	74 e8       	ldi	r23, 0x84	; 132
    8ce6:	8e e1       	ldi	r24, 0x1E	; 30
    8ce8:	90 e0       	ldi	r25, 0x00	; 0
    8cea:	0e 94 e1 00 	call	0x1c2	; 0x1c2 <_Z8syncWaitm>
				//presun figurku do chlivku hraciho pole z pozice 26
			}
			if (B == TL25_1)
    8cee:	20 91 09 04 	lds	r18, 0x0409
    8cf2:	30 91 0a 04 	lds	r19, 0x040A
    8cf6:	80 91 a1 04 	lds	r24, 0x04A1
    8cfa:	90 91 a2 04 	lds	r25, 0x04A2
    8cfe:	28 17       	cp	r18, r24
    8d00:	39 07       	cpc	r19, r25
    8d02:	81 f4       	brne	.+32     	; 0x8d24 <_Z20kalkulace_tahu_robotv+0x2ffe>
			{
				naber_na_pozici23();
    8d04:	0e 94 43 27 	call	0x4e86	; 0x4e86 <_Z17naber_na_pozici23v>
				syncWait(2000000);
    8d08:	60 e8       	ldi	r22, 0x80	; 128
    8d0a:	74 e8       	ldi	r23, 0x84	; 132
    8d0c:	8e e1       	ldi	r24, 0x1E	; 30
    8d0e:	90 e0       	ldi	r25, 0x00	; 0
    8d10:	0e 94 e1 00 	call	0x1c2	; 0x1c2 <_Z8syncWaitm>
				vyloz_na_pozici_chlivek1();
    8d14:	0e 94 ca 1d 	call	0x3b94	; 0x3b94 <_Z24vyloz_na_pozici_chlivek1v>
				syncWait(2000000);
    8d18:	60 e8       	ldi	r22, 0x80	; 128
    8d1a:	74 e8       	ldi	r23, 0x84	; 132
    8d1c:	8e e1       	ldi	r24, 0x1E	; 30
    8d1e:	90 e0       	ldi	r25, 0x00	; 0
    8d20:	0e 94 e1 00 	call	0x1c2	; 0x1c2 <_Z8syncWaitm>
				//presun figurku do chlivku hraciho pole z pozice 27
			}
			if (B == TL26_1)
    8d24:	20 91 09 04 	lds	r18, 0x0409
    8d28:	30 91 0a 04 	lds	r19, 0x040A
    8d2c:	80 91 a3 04 	lds	r24, 0x04A3
    8d30:	90 91 a4 04 	lds	r25, 0x04A4
    8d34:	28 17       	cp	r18, r24
    8d36:	39 07       	cpc	r19, r25
    8d38:	81 f4       	brne	.+32     	; 0x8d5a <_Z20kalkulace_tahu_robotv+0x3034>
			{
				naber_na_pozici24();
    8d3a:	0e 94 29 27 	call	0x4e52	; 0x4e52 <_Z17naber_na_pozici24v>
				syncWait(2000000);
    8d3e:	60 e8       	ldi	r22, 0x80	; 128
    8d40:	74 e8       	ldi	r23, 0x84	; 132
    8d42:	8e e1       	ldi	r24, 0x1E	; 30
    8d44:	90 e0       	ldi	r25, 0x00	; 0
    8d46:	0e 94 e1 00 	call	0x1c2	; 0x1c2 <_Z8syncWaitm>
				vyloz_na_pozici_chlivek1();
    8d4a:	0e 94 ca 1d 	call	0x3b94	; 0x3b94 <_Z24vyloz_na_pozici_chlivek1v>
				syncWait(2000000);
    8d4e:	60 e8       	ldi	r22, 0x80	; 128
    8d50:	74 e8       	ldi	r23, 0x84	; 132
    8d52:	8e e1       	ldi	r24, 0x1E	; 30
    8d54:	90 e0       	ldi	r25, 0x00	; 0
    8d56:	0e 94 e1 00 	call	0x1c2	; 0x1c2 <_Z8syncWaitm>
				//presun figurku do chlivku hraciho pole z pozice 28
			}
			if (B == TL27_1)
    8d5a:	20 91 09 04 	lds	r18, 0x0409
    8d5e:	30 91 0a 04 	lds	r19, 0x040A
    8d62:	80 91 a5 04 	lds	r24, 0x04A5
    8d66:	90 91 a6 04 	lds	r25, 0x04A6
    8d6a:	28 17       	cp	r18, r24
    8d6c:	39 07       	cpc	r19, r25
    8d6e:	81 f4       	brne	.+32     	; 0x8d90 <_Z20kalkulace_tahu_robotv+0x306a>
			{
				naber_na_pozici25();
    8d70:	0e 94 0f 27 	call	0x4e1e	; 0x4e1e <_Z17naber_na_pozici25v>
				syncWait(2000000);
    8d74:	60 e8       	ldi	r22, 0x80	; 128
    8d76:	74 e8       	ldi	r23, 0x84	; 132
    8d78:	8e e1       	ldi	r24, 0x1E	; 30
    8d7a:	90 e0       	ldi	r25, 0x00	; 0
    8d7c:	0e 94 e1 00 	call	0x1c2	; 0x1c2 <_Z8syncWaitm>
				vyloz_na_pozici_chlivek1();
    8d80:	0e 94 ca 1d 	call	0x3b94	; 0x3b94 <_Z24vyloz_na_pozici_chlivek1v>
				syncWait(2000000);
    8d84:	60 e8       	ldi	r22, 0x80	; 128
    8d86:	74 e8       	ldi	r23, 0x84	; 132
    8d88:	8e e1       	ldi	r24, 0x1E	; 30
    8d8a:	90 e0       	ldi	r25, 0x00	; 0
    8d8c:	0e 94 e1 00 	call	0x1c2	; 0x1c2 <_Z8syncWaitm>
				//presun figurku do chlivku hraciho pole z pozice 29
			}
			if (B == TL28_1)
    8d90:	20 91 09 04 	lds	r18, 0x0409
    8d94:	30 91 0a 04 	lds	r19, 0x040A
    8d98:	80 91 a7 04 	lds	r24, 0x04A7
    8d9c:	90 91 a8 04 	lds	r25, 0x04A8
    8da0:	28 17       	cp	r18, r24
    8da2:	39 07       	cpc	r19, r25
    8da4:	81 f4       	brne	.+32     	; 0x8dc6 <_Z20kalkulace_tahu_robotv+0x30a0>
			{
				naber_na_pozici26();
    8da6:	0e 94 f5 26 	call	0x4dea	; 0x4dea <_Z17naber_na_pozici26v>
				syncWait(2000000);
    8daa:	60 e8       	ldi	r22, 0x80	; 128
    8dac:	74 e8       	ldi	r23, 0x84	; 132
    8dae:	8e e1       	ldi	r24, 0x1E	; 30
    8db0:	90 e0       	ldi	r25, 0x00	; 0
    8db2:	0e 94 e1 00 	call	0x1c2	; 0x1c2 <_Z8syncWaitm>
				vyloz_na_pozici_chlivek1();
    8db6:	0e 94 ca 1d 	call	0x3b94	; 0x3b94 <_Z24vyloz_na_pozici_chlivek1v>
				syncWait(2000000);
    8dba:	60 e8       	ldi	r22, 0x80	; 128
    8dbc:	74 e8       	ldi	r23, 0x84	; 132
    8dbe:	8e e1       	ldi	r24, 0x1E	; 30
    8dc0:	90 e0       	ldi	r25, 0x00	; 0
    8dc2:	0e 94 e1 00 	call	0x1c2	; 0x1c2 <_Z8syncWaitm>
				//presun figurku do chlivku hraciho pole z pozice 30
			}
			if (B == TL29_1)
    8dc6:	20 91 09 04 	lds	r18, 0x0409
    8dca:	30 91 0a 04 	lds	r19, 0x040A
    8dce:	80 91 a9 04 	lds	r24, 0x04A9
    8dd2:	90 91 aa 04 	lds	r25, 0x04AA
    8dd6:	28 17       	cp	r18, r24
    8dd8:	39 07       	cpc	r19, r25
    8dda:	81 f4       	brne	.+32     	; 0x8dfc <_Z20kalkulace_tahu_robotv+0x30d6>
			{
				naber_na_pozici27();
    8ddc:	0e 94 db 26 	call	0x4db6	; 0x4db6 <_Z17naber_na_pozici27v>
				syncWait(2000000);
    8de0:	60 e8       	ldi	r22, 0x80	; 128
    8de2:	74 e8       	ldi	r23, 0x84	; 132
    8de4:	8e e1       	ldi	r24, 0x1E	; 30
    8de6:	90 e0       	ldi	r25, 0x00	; 0
    8de8:	0e 94 e1 00 	call	0x1c2	; 0x1c2 <_Z8syncWaitm>
				vyloz_na_pozici_chlivek1();
    8dec:	0e 94 ca 1d 	call	0x3b94	; 0x3b94 <_Z24vyloz_na_pozici_chlivek1v>
				syncWait(2000000);
    8df0:	60 e8       	ldi	r22, 0x80	; 128
    8df2:	74 e8       	ldi	r23, 0x84	; 132
    8df4:	8e e1       	ldi	r24, 0x1E	; 30
    8df6:	90 e0       	ldi	r25, 0x00	; 0
    8df8:	0e 94 e1 00 	call	0x1c2	; 0x1c2 <_Z8syncWaitm>
				//presun figurku do chlivku hraciho pole z pozice 31
			}
			if (B == TL30_1)
    8dfc:	20 91 09 04 	lds	r18, 0x0409
    8e00:	30 91 0a 04 	lds	r19, 0x040A
    8e04:	80 91 ab 04 	lds	r24, 0x04AB
    8e08:	90 91 ac 04 	lds	r25, 0x04AC
    8e0c:	28 17       	cp	r18, r24
    8e0e:	39 07       	cpc	r19, r25
    8e10:	81 f4       	brne	.+32     	; 0x8e32 <_Z20kalkulace_tahu_robotv+0x310c>
			{
				naber_na_pozici28();
    8e12:	0e 94 c1 26 	call	0x4d82	; 0x4d82 <_Z17naber_na_pozici28v>
				syncWait(2000000);
    8e16:	60 e8       	ldi	r22, 0x80	; 128
    8e18:	74 e8       	ldi	r23, 0x84	; 132
    8e1a:	8e e1       	ldi	r24, 0x1E	; 30
    8e1c:	90 e0       	ldi	r25, 0x00	; 0
    8e1e:	0e 94 e1 00 	call	0x1c2	; 0x1c2 <_Z8syncWaitm>
				vyloz_na_pozici_chlivek1();
    8e22:	0e 94 ca 1d 	call	0x3b94	; 0x3b94 <_Z24vyloz_na_pozici_chlivek1v>
				syncWait(2000000);
    8e26:	60 e8       	ldi	r22, 0x80	; 128
    8e28:	74 e8       	ldi	r23, 0x84	; 132
    8e2a:	8e e1       	ldi	r24, 0x1E	; 30
    8e2c:	90 e0       	ldi	r25, 0x00	; 0
    8e2e:	0e 94 e1 00 	call	0x1c2	; 0x1c2 <_Z8syncWaitm>
				//presun figurku do chlivku hraciho pole z pozice 31
			}
			if (B == TL31_1)
    8e32:	20 91 09 04 	lds	r18, 0x0409
    8e36:	30 91 0a 04 	lds	r19, 0x040A
    8e3a:	80 91 ad 04 	lds	r24, 0x04AD
    8e3e:	90 91 ae 04 	lds	r25, 0x04AE
    8e42:	28 17       	cp	r18, r24
    8e44:	39 07       	cpc	r19, r25
    8e46:	81 f4       	brne	.+32     	; 0x8e68 <_Z20kalkulace_tahu_robotv+0x3142>
			{
				naber_na_pozici29();
    8e48:	0e 94 a7 26 	call	0x4d4e	; 0x4d4e <_Z17naber_na_pozici29v>
				syncWait(2000000);
    8e4c:	60 e8       	ldi	r22, 0x80	; 128
    8e4e:	74 e8       	ldi	r23, 0x84	; 132
    8e50:	8e e1       	ldi	r24, 0x1E	; 30
    8e52:	90 e0       	ldi	r25, 0x00	; 0
    8e54:	0e 94 e1 00 	call	0x1c2	; 0x1c2 <_Z8syncWaitm>
				vyloz_na_pozici_chlivek1();
    8e58:	0e 94 ca 1d 	call	0x3b94	; 0x3b94 <_Z24vyloz_na_pozici_chlivek1v>
				syncWait(2000000);
    8e5c:	60 e8       	ldi	r22, 0x80	; 128
    8e5e:	74 e8       	ldi	r23, 0x84	; 132
    8e60:	8e e1       	ldi	r24, 0x1E	; 30
    8e62:	90 e0       	ldi	r25, 0x00	; 0
    8e64:	0e 94 e1 00 	call	0x1c2	; 0x1c2 <_Z8syncWaitm>
    8e68:	08 95       	ret

00008e6a <_Z3hrav>:
		led.program(0);
		led.play(0);
}


void hra()
    8e6a:	cf 93       	push	r28
    8e6c:	df 93       	push	r29
{	
	led.txd(1);
    8e6e:	85 e0       	ldi	r24, 0x05	; 5
    8e70:	94 e0       	ldi	r25, 0x04	; 4
    8e72:	61 e0       	ldi	r22, 0x01	; 1
    8e74:	0e 94 09 02 	call	0x412	; 0x412 <_ZN5led_t3txdEh>
//	if(H1 == 1) //hraje robot 
//	{	
	pc<<"Hraje robot"<<endl;
    8e78:	8c e7       	ldi	r24, 0x7C	; 124
    8e7a:	91 e0       	ldi	r25, 0x01	; 1
    8e7c:	6a e1       	ldi	r22, 0x1A	; 26
    8e7e:	71 e0       	ldi	r23, 0x01	; 1
    8e80:	0e 94 92 0a 	call	0x1524	; 0x1524 <_ZN8USART1_tlsEPKc>
    8e84:	6c e0       	ldi	r22, 0x0C	; 12
    8e86:	71 e0       	ldi	r23, 0x01	; 1
    8e88:	0e 94 92 0a 	call	0x1524	; 0x1524 <_ZN8USART1_tlsEPKc>
		zakladni_pozice();
    8e8c:	0e 94 50 1d 	call	0x3aa0	; 0x3aa0 <_Z15zakladni_pozicev>
		cti_tlacitka(tlacitka);
    8e90:	85 ec       	ldi	r24, 0xC5	; 197
    8e92:	94 e0       	ldi	r25, 0x04	; 4
    8e94:	0e 94 c5 08 	call	0x118a	; 0x118a <_Z12cti_tlacitkaPh>
		prepocet_klavesnice();
    8e98:	0e 94 54 02 	call	0x4a8	; 0x4a8 <_Z19prepocet_klavesnicev>
		if (F1_0 == 0)
    8e9c:	80 91 17 04 	lds	r24, 0x0417
    8ea0:	90 91 18 04 	lds	r25, 0x0418
    8ea4:	89 2b       	or	r24, r25
    8ea6:	39 f4       	brne	.+14     	; 0x8eb6 <_Z3hrav+0x4c>
		{
			Cislo = 6;
    8ea8:	86 e0       	ldi	r24, 0x06	; 6
    8eaa:	90 e0       	ldi	r25, 0x00	; 0
    8eac:	90 93 c2 04 	sts	0x04C2, r25
    8eb0:	80 93 c1 04 	sts	0x04C1, r24
    8eb4:	02 c0       	rjmp	.+4      	; 0x8eba <_Z3hrav+0x50>
		}
		else 
		{
			kostka();//cislice 1-6 tlacitka na ridici jednotce	
    8eb6:	0e 94 a9 0a 	call	0x1552	; 0x1552 <_Z6kostkav>
		}
		zobrazeni();//zobrazi cisla v bin tvaru na LEDkach
    8eba:	0e 94 26 09 	call	0x124c	; 0x124c <_Z9zobrazeniv>
		if (Cislo == 6)
    8ebe:	20 91 c1 04 	lds	r18, 0x04C1
    8ec2:	30 91 c2 04 	lds	r19, 0x04C2
    8ec6:	26 30       	cpi	r18, 0x06	; 6
    8ec8:	31 05       	cpc	r19, r1
    8eca:	89 f4       	brne	.+34     	; 0x8eee <_Z3hrav+0x84>
		{	
		//	if (TL30 == 0) //jen za predpokladu jeli na startu robota 0
		//	{
		//		if (TL33 == 1) //jen za predpokladu jeli start volno a v chlivku je na pozici 33 figurka
		//		{
					A = 0;
    8ecc:	10 92 08 04 	sts	0x0408, r1
    8ed0:	10 92 07 04 	sts	0x0407, r1
					chlivek_robot_pozice33();//zavola podprogram na premisteni figurky na start
    8ed4:	0e 94 bc 13 	call	0x2778	; 0x2778 <_Z22chlivek_robot_pozice33v>
					TL33 = 0;//vynuluje soucasnou pozici
    8ed8:	10 92 60 04 	sts	0x0460, r1
    8edc:	10 92 5f 04 	sts	0x045F, r1
					F1_0 = 1;//figurka je ve hre
    8ee0:	81 e0       	ldi	r24, 0x01	; 1
    8ee2:	90 e0       	ldi	r25, 0x00	; 0
    8ee4:	90 93 18 04 	sts	0x0418, r25
    8ee8:	80 93 17 04 	sts	0x0417, r24
    8eec:	3b c0       	rjmp	.+118    	; 0x8f64 <_Z3hrav+0xfa>
		//		}
		//	}
		}	
		else if (Cislo != 6) 
		{
			if(F1_0 == 1)//je-li figurka robota ve hre pokracuje se dal
    8eee:	c0 91 17 04 	lds	r28, 0x0417
    8ef2:	d0 91 18 04 	lds	r29, 0x0418
    8ef6:	c1 30       	cpi	r28, 0x01	; 1
    8ef8:	d1 05       	cpc	r29, r1
    8efa:	31 f5       	brne	.+76     	; 0x8f48 <_Z3hrav+0xde>
			{
				A = A + Cislo;//pricte hodnotu kostky k promene, nova hodnota
    8efc:	80 91 07 04 	lds	r24, 0x0407
    8f00:	90 91 08 04 	lds	r25, 0x0408
    8f04:	82 0f       	add	r24, r18
    8f06:	93 1f       	adc	r25, r19
    8f08:	90 93 08 04 	sts	0x0408, r25
    8f0c:	80 93 07 04 	sts	0x0407, r24
				
				if (A == D)//robot vyhodi cloveka
    8f10:	20 91 0d 04 	lds	r18, 0x040D
    8f14:	30 91 0e 04 	lds	r19, 0x040E
    8f18:	82 17       	cp	r24, r18
    8f1a:	93 07       	cpc	r25, r19
    8f1c:	99 f4       	brne	.+38     	; 0x8f44 <_Z3hrav+0xda>
				{
					zjisteni_pozice();//presun figurku do chlivku na pozici 39. hraciho pole
    8f1e:	0e 94 52 2d 	call	0x5aa4	; 0x5aa4 <_Z15zjisteni_pozicev>
					kalkulace_tahu_robot();//podle moznosti presune figurku
    8f22:	0e 94 93 2e 	call	0x5d26	; 0x5d26 <_Z20kalkulace_tahu_robotv>
					TL39 = 1; //zapise 1 do chlivku "start"	
    8f26:	d0 93 6c 04 	sts	0x046C, r29
    8f2a:	c0 93 6b 04 	sts	0x046B, r28
					D = 16;//pomocna promena se rovna zakladu
    8f2e:	80 e1       	ldi	r24, 0x10	; 16
    8f30:	90 e0       	ldi	r25, 0x00	; 0
    8f32:	90 93 0e 04 	sts	0x040E, r25
    8f36:	80 93 0d 04 	sts	0x040D, r24
					F1_1 = 0;//figurka cloveka neni ve hre
    8f3a:	10 92 1c 04 	sts	0x041C, r1
    8f3e:	10 92 1b 04 	sts	0x041B, r1
    8f42:	02 c0       	rjmp	.+4      	; 0x8f48 <_Z3hrav+0xde>
				}
				else if (A != D)//robot nevyhodi figurku cloveka
				{
					kalkulace_tahu_robot();//zavola podprogram na kontrolu nove a puvodni pozice nakonec presune figurku
    8f44:	0e 94 93 2e 	call	0x5d26	; 0x5d26 <_Z20kalkulace_tahu_robotv>
				}
			}
			
			B = B + Cislo;//puvodni pozice figurky
    8f48:	80 91 09 04 	lds	r24, 0x0409
    8f4c:	90 91 0a 04 	lds	r25, 0x040A
    8f50:	20 91 c1 04 	lds	r18, 0x04C1
    8f54:	30 91 c2 04 	lds	r19, 0x04C2
    8f58:	82 0f       	add	r24, r18
    8f5a:	93 1f       	adc	r25, r19
    8f5c:	90 93 0a 04 	sts	0x040A, r25
    8f60:	80 93 09 04 	sts	0x0409, r24
			case 0:
				PORTC |= (1<<PC3);
				break;

			case 1:
				PORTC &= ~(1<<PC3);
    8f64:	ab 98       	cbi	0x15, 3	; 21
			
		}
		led.aux(1);
	zakladni_pozice();
    8f66:	0e 94 50 1d 	call	0x3aa0	; 0x3aa0 <_Z15zakladni_pozicev>
	led.txd(0);
    8f6a:	85 e0       	ldi	r24, 0x05	; 5
    8f6c:	94 e0       	ldi	r25, 0x04	; 4
    8f6e:	60 e0       	ldi	r22, 0x00	; 0
    8f70:	0e 94 09 02 	call	0x412	; 0x412 <_ZN5led_t3txdEh>
	zobrazeni0();
    8f74:	0e 94 7f 09 	call	0x12fe	; 0x12fe <_Z10zobrazeni0v>
}
    8f78:	df 91       	pop	r29
    8f7a:	cf 91       	pop	r28
    8f7c:	08 95       	ret

00008f7e <_ZN7motor_t11torqueLimitERKi>:
	motor_t & torqueLimit(const uint16_t &limit = 1023)
	{
		m_error.push(bus.writeByte(currentID, P_TORQUE_LIMIT_L, limit));
		return *this;
	}
	motor_t & torqueLimit(const int16_t &limit = 1023)
    8f7e:	ef 92       	push	r14
    8f80:	ff 92       	push	r15
    8f82:	0f 93       	push	r16
    8f84:	1f 93       	push	r17
    8f86:	f8 2e       	mov	r15, r24
    8f88:	e9 2e       	mov	r14, r25
    8f8a:	fb 01       	movw	r30, r22
	{
		m_error.push(bus.writeWord(currentID, P_TORQUE_LIMIT_L, ((uint16_t)(limit))));
    8f8c:	20 81       	ld	r18, Z
    8f8e:	31 81       	ldd	r19, Z+1	; 0x01
    8f90:	8e e6       	ldi	r24, 0x6E	; 110
    8f92:	92 e0       	ldi	r25, 0x02	; 2
    8f94:	0f 2d       	mov	r16, r15
    8f96:	1e 2d       	mov	r17, r14
    8f98:	f8 01       	movw	r30, r16
    8f9a:	61 91       	ld	r22, Z+
    8f9c:	8f 01       	movw	r16, r30
    8f9e:	42 e2       	ldi	r20, 0x22	; 34
    8fa0:	0e 94 29 0d 	call	0x1a52	; 0x1a52 <_ZN11dynamixel_t9writeWordEhhj>
    8fa4:	68 2f       	mov	r22, r24
    8fa6:	c8 01       	movw	r24, r16
    8fa8:	0e 94 e3 0b 	call	0x17c6	; 0x17c6 <_ZN5queueIhLj96EE4pushEh>
		return *this;
	}
    8fac:	8f 2d       	mov	r24, r15
    8fae:	9e 2d       	mov	r25, r14
    8fb0:	1f 91       	pop	r17
    8fb2:	0f 91       	pop	r16
    8fb4:	ff 90       	pop	r15
    8fb6:	ef 90       	pop	r14
    8fb8:	08 95       	ret

00008fba <_Z4silav>:
		led.rxd(1);
		syncWait(100000);
		led.rxd(0);
	}
}
void sila()
    8fba:	ef 92       	push	r14
    8fbc:	ff 92       	push	r15
    8fbe:	0f 93       	push	r16
    8fc0:	1f 93       	push	r17
    8fc2:	df 93       	push	r29
    8fc4:	cf 93       	push	r28
    8fc6:	cd b7       	in	r28, 0x3d	; 61
    8fc8:	de b7       	in	r29, 0x3e	; 62
    8fca:	2a 97       	sbiw	r28, 0x0a	; 10
    8fcc:	0f b6       	in	r0, 0x3f	; 63
    8fce:	f8 94       	cli
    8fd0:	de bf       	out	0x3e, r29	; 62
    8fd2:	0f be       	out	0x3f, r0	; 63
    8fd4:	cd bf       	out	0x3d, r28	; 61
		m_error.overwrite = true;
	}

	motor_t &operator [] (const uint8_t &id)
	{
		currentID = id;
    8fd6:	a8 e3       	ldi	r26, 0x38	; 56
    8fd8:	ea 2e       	mov	r14, r26
    8fda:	a3 e0       	ldi	r26, 0x03	; 3
    8fdc:	fa 2e       	mov	r15, r26
    8fde:	81 e0       	ldi	r24, 0x01	; 1
    8fe0:	80 93 38 03 	sts	0x0338, r24
{		
	motor [1]. torqueLimit (1023);
    8fe4:	0f ef       	ldi	r16, 0xFF	; 255
    8fe6:	13 e0       	ldi	r17, 0x03	; 3
    8fe8:	1a 83       	std	Y+2, r17	; 0x02
    8fea:	09 83       	std	Y+1, r16	; 0x01
    8fec:	c7 01       	movw	r24, r14
    8fee:	be 01       	movw	r22, r28
    8ff0:	6f 5f       	subi	r22, 0xFF	; 255
    8ff2:	7f 4f       	sbci	r23, 0xFF	; 255
    8ff4:	0e 94 bf 47 	call	0x8f7e	; 0x8f7e <_ZN7motor_t11torqueLimitERKi>
    8ff8:	82 e0       	ldi	r24, 0x02	; 2
    8ffa:	80 93 38 03 	sts	0x0338, r24
	motor [2]. torqueLimit (1023);
    8ffe:	1c 83       	std	Y+4, r17	; 0x04
    9000:	0b 83       	std	Y+3, r16	; 0x03
    9002:	c7 01       	movw	r24, r14
    9004:	be 01       	movw	r22, r28
    9006:	6d 5f       	subi	r22, 0xFD	; 253
    9008:	7f 4f       	sbci	r23, 0xFF	; 255
    900a:	0e 94 bf 47 	call	0x8f7e	; 0x8f7e <_ZN7motor_t11torqueLimitERKi>
    900e:	83 e0       	ldi	r24, 0x03	; 3
    9010:	80 93 38 03 	sts	0x0338, r24
	motor [3]. torqueLimit (1023);
    9014:	1e 83       	std	Y+6, r17	; 0x06
    9016:	0d 83       	std	Y+5, r16	; 0x05
    9018:	c7 01       	movw	r24, r14
    901a:	be 01       	movw	r22, r28
    901c:	6b 5f       	subi	r22, 0xFB	; 251
    901e:	7f 4f       	sbci	r23, 0xFF	; 255
    9020:	0e 94 bf 47 	call	0x8f7e	; 0x8f7e <_ZN7motor_t11torqueLimitERKi>
    9024:	84 e0       	ldi	r24, 0x04	; 4
    9026:	80 93 38 03 	sts	0x0338, r24
	motor [4]. torqueLimit (1023);
    902a:	18 87       	std	Y+8, r17	; 0x08
    902c:	0f 83       	std	Y+7, r16	; 0x07
    902e:	c7 01       	movw	r24, r14
    9030:	be 01       	movw	r22, r28
    9032:	69 5f       	subi	r22, 0xF9	; 249
    9034:	7f 4f       	sbci	r23, 0xFF	; 255
    9036:	0e 94 bf 47 	call	0x8f7e	; 0x8f7e <_ZN7motor_t11torqueLimitERKi>
    903a:	85 e0       	ldi	r24, 0x05	; 5
    903c:	80 93 38 03 	sts	0x0338, r24
	motor [5]. torqueLimit (1023);
    9040:	1a 87       	std	Y+10, r17	; 0x0a
    9042:	09 87       	std	Y+9, r16	; 0x09
    9044:	c7 01       	movw	r24, r14
    9046:	be 01       	movw	r22, r28
    9048:	67 5f       	subi	r22, 0xF7	; 247
    904a:	7f 4f       	sbci	r23, 0xFF	; 255
    904c:	0e 94 bf 47 	call	0x8f7e	; 0x8f7e <_ZN7motor_t11torqueLimitERKi>
}
    9050:	2a 96       	adiw	r28, 0x0a	; 10
    9052:	0f b6       	in	r0, 0x3f	; 63
    9054:	f8 94       	cli
    9056:	de bf       	out	0x3e, r29	; 62
    9058:	0f be       	out	0x3f, r0	; 63
    905a:	cd bf       	out	0x3d, r28	; 61
    905c:	cf 91       	pop	r28
    905e:	df 91       	pop	r29
    9060:	1f 91       	pop	r17
    9062:	0f 91       	pop	r16
    9064:	ff 90       	pop	r15
    9066:	ef 90       	pop	r14
    9068:	08 95       	ret

0000906a <_Z22nastaveni_pozice_volnov>:
	led.rxd(0);
	zobrazeni0();
}


void nastaveni_pozice_volno()
    906a:	2f 92       	push	r2
    906c:	3f 92       	push	r3
    906e:	4f 92       	push	r4
    9070:	5f 92       	push	r5
    9072:	6f 92       	push	r6
    9074:	7f 92       	push	r7
    9076:	8f 92       	push	r8
    9078:	9f 92       	push	r9
    907a:	af 92       	push	r10
    907c:	bf 92       	push	r11
    907e:	cf 92       	push	r12
    9080:	df 92       	push	r13
    9082:	ef 92       	push	r14
    9084:	ff 92       	push	r15
    9086:	0f 93       	push	r16
    9088:	1f 93       	push	r17
    908a:	df 93       	push	r29
    908c:	cf 93       	push	r28
    908e:	cd b7       	in	r28, 0x3d	; 61
    9090:	de b7       	in	r29, 0x3e	; 62
    9092:	2b 97       	sbiw	r28, 0x0b	; 11
    9094:	0f b6       	in	r0, 0x3f	; 63
    9096:	f8 94       	cli
    9098:	de bf       	out	0x3e, r29	; 62
    909a:	0f be       	out	0x3f, r0	; 63
    909c:	cd bf       	out	0x3d, r28	; 61
    909e:	a1 e0       	ldi	r26, 0x01	; 1
    90a0:	4a 2e       	mov	r4, r26
    90a2:	51 2c       	mov	r5, r1
    90a4:	61 2c       	mov	r6, r1
    90a6:	71 2c       	mov	r7, r1
		data = repository[1];
		return repository[0];
	}
	int readWord(uint8_t ID, uint8_t address, uint16_t &data)
	{
		uint8_t repository[3] = {address, 2};
    90a8:	ce 01       	movw	r24, r28
    90aa:	05 96       	adiw	r24, 0x05	; 5
    90ac:	9b 87       	std	Y+11, r25	; 0x0b
    90ae:	8a 87       	std	Y+10, r24	; 0x0a
		m_error.overwrite = true;
	}

	motor_t &operator [] (const uint8_t &id)
	{
		currentID = id;
    90b0:	40 92 38 03 	sts	0x0338, r4
{
	for(int i=1; i!=8; i++ )
	{
		motor [i].torqueLimit (0);
    90b4:	1a 82       	std	Y+2, r1	; 0x02
    90b6:	19 82       	std	Y+1, r1	; 0x01
    90b8:	88 e3       	ldi	r24, 0x38	; 56
    90ba:	93 e0       	ldi	r25, 0x03	; 3
    90bc:	be 01       	movw	r22, r28
    90be:	6f 5f       	subi	r22, 0xFF	; 255
    90c0:	7f 4f       	sbci	r23, 0xFF	; 255
    90c2:	0e 94 bf 47 	call	0x8f7e	; 0x8f7e <_ZN7motor_t11torqueLimitERKi>
    90c6:	40 92 38 03 	sts	0x0338, r4
		data = repository[1] | (repository[2] << 8);
		return repository[0];
	}
	int writeByte(uint8_t ID, uint8_t address, uint8_t data)
	{
		uint8_t repository[2] = {address, data};
    90ca:	98 e1       	ldi	r25, 0x18	; 24
    90cc:	9b 83       	std	Y+3, r25	; 0x03
    90ce:	e1 e0       	ldi	r30, 0x01	; 1
    90d0:	ec 83       	std	Y+4, r30	; 0x04
		return com(ID, INST_WRITE, &repository[0], 2, DYNAMIXEL_RETURN==2?1:0, DYNAMIXEL_RESPOND_TIME)==0?repository[0]:(repository[0]|(1<<7));
    90d2:	8e e6       	ldi	r24, 0x6E	; 110
    90d4:	92 e0       	ldi	r25, 0x02	; 2
    90d6:	64 2d       	mov	r22, r4
    90d8:	43 e0       	ldi	r20, 0x03	; 3
    90da:	9e 01       	movw	r18, r28
    90dc:	2d 5f       	subi	r18, 0xFD	; 253
    90de:	3f 4f       	sbci	r19, 0xFF	; 255
    90e0:	02 e0       	ldi	r16, 0x02	; 2
    90e2:	10 e0       	ldi	r17, 0x00	; 0
    90e4:	ee 24       	eor	r14, r14
    90e6:	e3 94       	inc	r14
    90e8:	f4 ef       	ldi	r31, 0xF4	; 244
    90ea:	af 2e       	mov	r10, r31
    90ec:	f1 e0       	ldi	r31, 0x01	; 1
    90ee:	bf 2e       	mov	r11, r31
    90f0:	c1 2c       	mov	r12, r1
    90f2:	d1 2c       	mov	r13, r1
    90f4:	e4 ef       	ldi	r30, 0xF4	; 244
    90f6:	8e 2e       	mov	r8, r30
    90f8:	e1 e0       	ldi	r30, 0x01	; 1
    90fa:	9e 2e       	mov	r9, r30
    90fc:	0e 94 30 0c 	call	0x1860	; 0x1860 <_ZN11dynamixel_t3comEhhPhjhmj>
    9100:	6b 81       	ldd	r22, Y+3	; 0x03
    9102:	89 2b       	or	r24, r25
    9104:	09 f0       	breq	.+2      	; 0x9108 <_Z22nastaveni_pozice_volnov+0x9e>
    9106:	60 68       	ori	r22, 0x80	; 128
	{
		return m_error.pop();
	}
	motor_t & setTorque()
	{
		m_error.push(bus.writeByte(currentID, P_TORQUE_ENABLE, 1));
    9108:	89 e3       	ldi	r24, 0x39	; 57
    910a:	93 e0       	ldi	r25, 0x03	; 3
    910c:	0e 94 e3 0b 	call	0x17c6	; 0x17c6 <_ZN5queueIhLj96EE4pushEh>
		sendNumber(n, numbersSpaces);
		return *this;
	}
	USART1_t &operator << (const int16_t &n)
	{
		sendNumber(n, numbersSpaces);
    9110:	8c e7       	ldi	r24, 0x7C	; 124
    9112:	91 e0       	ldi	r25, 0x01	; 1
    9114:	b3 01       	movw	r22, r6
    9116:	a2 01       	movw	r20, r4
    9118:	20 91 46 02 	lds	r18, 0x0246
    911c:	0e 94 e3 09 	call	0x13c6	; 0x13c6 <_ZN8USART1_t10sendNumberElh>
		motor [i]. setTorque ();
		pc << i << " =    "; 
    9120:	8c e7       	ldi	r24, 0x7C	; 124
    9122:	91 e0       	ldi	r25, 0x01	; 1
    9124:	66 e2       	ldi	r22, 0x26	; 38
    9126:	71 e0       	ldi	r23, 0x01	; 1
    9128:	0e 94 92 0a 	call	0x1524	; 0x1524 <_ZN8USART1_tlsEPKc>
		pc <<"volno    "<< motor.position()<<endl;
    912c:	8c e7       	ldi	r24, 0x7C	; 124
    912e:	91 e0       	ldi	r25, 0x01	; 1
    9130:	6d e2       	ldi	r22, 0x2D	; 45
    9132:	71 e0       	ldi	r23, 0x01	; 1
    9134:	0e 94 92 0a 	call	0x1524	; 0x1524 <_ZN8USART1_tlsEPKc>
    9138:	1c 01       	movw	r2, r24
		return *this;
	}
	uint16_t position()
	{
		uint16_t pos;
		m_error.push(bus.readWord(currentID, P_PRESENT_POSITION_L, pos));
    913a:	60 91 38 03 	lds	r22, 0x0338
		data = repository[1];
		return repository[0];
	}
	int readWord(uint8_t ID, uint8_t address, uint16_t &data)
	{
		uint8_t repository[3] = {address, 2};
    913e:	83 e0       	ldi	r24, 0x03	; 3
    9140:	ea 85       	ldd	r30, Y+10	; 0x0a
    9142:	fb 85       	ldd	r31, Y+11	; 0x0b
    9144:	11 92       	st	Z+, r1
    9146:	8a 95       	dec	r24
    9148:	e9 f7       	brne	.-6      	; 0x9144 <_Z22nastaveni_pozice_volnov+0xda>
    914a:	f2 e0       	ldi	r31, 0x02	; 2
    914c:	fe 83       	std	Y+6, r31	; 0x06
    914e:	84 e2       	ldi	r24, 0x24	; 36
    9150:	8d 83       	std	Y+5, r24	; 0x05
		repository[0] = com(ID, INST_READ, &repository[0], 2, DYNAMIXEL_RETURN!=0?3:0, DYNAMIXEL_RESPOND_TIME)==0?repository[0]:(repository[0]|(1<<7));
    9152:	8e e6       	ldi	r24, 0x6E	; 110
    9154:	92 e0       	ldi	r25, 0x02	; 2
    9156:	42 e0       	ldi	r20, 0x02	; 2
    9158:	9e 01       	movw	r18, r28
    915a:	2b 5f       	subi	r18, 0xFB	; 251
    915c:	3f 4f       	sbci	r19, 0xFF	; 255
    915e:	02 e0       	ldi	r16, 0x02	; 2
    9160:	10 e0       	ldi	r17, 0x00	; 0
    9162:	73 e0       	ldi	r23, 0x03	; 3
    9164:	e7 2e       	mov	r14, r23
    9166:	54 ef       	ldi	r21, 0xF4	; 244
    9168:	a5 2e       	mov	r10, r21
    916a:	51 e0       	ldi	r21, 0x01	; 1
    916c:	b5 2e       	mov	r11, r21
    916e:	c1 2c       	mov	r12, r1
    9170:	d1 2c       	mov	r13, r1
    9172:	b4 ef       	ldi	r27, 0xF4	; 244
    9174:	8b 2e       	mov	r8, r27
    9176:	b1 e0       	ldi	r27, 0x01	; 1
    9178:	9b 2e       	mov	r9, r27
    917a:	0e 94 30 0c 	call	0x1860	; 0x1860 <_ZN11dynamixel_t3comEhhPhjhmj>
    917e:	6d 81       	ldd	r22, Y+5	; 0x05
    9180:	89 2b       	or	r24, r25
    9182:	09 f0       	breq	.+2      	; 0x9186 <_Z22nastaveni_pozice_volnov+0x11c>
    9184:	60 68       	ori	r22, 0x80	; 128
    9186:	6d 83       	std	Y+5, r22	; 0x05
		data = repository[1] | (repository[2] << 8);
    9188:	9f 81       	ldd	r25, Y+7	; 0x07
    918a:	99 87       	std	Y+9, r25	; 0x09
    918c:	18 86       	std	Y+8, r1	; 0x08
    918e:	ee 80       	ldd	r14, Y+6	; 0x06
    9190:	ff 24       	eor	r15, r15
    9192:	e8 85       	ldd	r30, Y+8	; 0x08
    9194:	f9 85       	ldd	r31, Y+9	; 0x09
    9196:	ee 2a       	or	r14, r30
    9198:	ff 2a       	or	r15, r31
		return *this;
	}
	uint16_t position()
	{
		uint16_t pos;
		m_error.push(bus.readWord(currentID, P_PRESENT_POSITION_L, pos));
    919a:	89 e3       	ldi	r24, 0x39	; 57
    919c:	93 e0       	ldi	r25, 0x03	; 3
    919e:	0e 94 e3 0b 	call	0x17c6	; 0x17c6 <_ZN5queueIhLj96EE4pushEh>
		sendNumber(n, numbersSpaces);
		return *this;
	}
	USART1_t &operator << (const uint16_t &n)
	{
		sendNumber(n, numbersSpaces);
    91a2:	00 e0       	ldi	r16, 0x00	; 0
    91a4:	10 e0       	ldi	r17, 0x00	; 0
    91a6:	f1 01       	movw	r30, r2
    91a8:	e6 53       	subi	r30, 0x36	; 54
    91aa:	ff 4f       	sbci	r31, 0xFF	; 255
    91ac:	c1 01       	movw	r24, r2
    91ae:	b8 01       	movw	r22, r16
    91b0:	a7 01       	movw	r20, r14
    91b2:	20 81       	ld	r18, Z
    91b4:	0e 94 e3 09 	call	0x13c6	; 0x13c6 <_ZN8USART1_t10sendNumberElh>
    91b8:	c1 01       	movw	r24, r2
    91ba:	6c e0       	ldi	r22, 0x0C	; 12
    91bc:	71 e0       	ldi	r23, 0x01	; 1
    91be:	0e 94 92 0a 	call	0x1524	; 0x1524 <_ZN8USART1_tlsEPKc>
    91c2:	08 94       	sec
    91c4:	41 1c       	adc	r4, r1
    91c6:	51 1c       	adc	r5, r1
    91c8:	61 1c       	adc	r6, r1
    91ca:	71 1c       	adc	r7, r1
}


void nastaveni_pozice_volno()
{
	for(int i=1; i!=8; i++ )
    91cc:	f8 e0       	ldi	r31, 0x08	; 8
    91ce:	4f 16       	cp	r4, r31
    91d0:	51 04       	cpc	r5, r1
    91d2:	61 04       	cpc	r6, r1
    91d4:	71 04       	cpc	r7, r1
    91d6:	09 f0       	breq	.+2      	; 0x91da <_Z22nastaveni_pozice_volnov+0x170>
    91d8:	6b cf       	rjmp	.-298    	; 0x90b0 <_Z22nastaveni_pozice_volnov+0x46>
		motor [i].torqueLimit (0);
		motor [i]. setTorque ();
		pc << i << " =    "; 
		pc <<"volno    "<< motor.position()<<endl;
	}
	pc << endl;
    91da:	8c e7       	ldi	r24, 0x7C	; 124
    91dc:	91 e0       	ldi	r25, 0x01	; 1
    91de:	6c e0       	ldi	r22, 0x0C	; 12
    91e0:	71 e0       	ldi	r23, 0x01	; 1
    91e2:	0e 94 92 0a 	call	0x1524	; 0x1524 <_ZN8USART1_tlsEPKc>
	pc << endl;
    91e6:	8c e7       	ldi	r24, 0x7C	; 124
    91e8:	91 e0       	ldi	r25, 0x01	; 1
    91ea:	6c e0       	ldi	r22, 0x0C	; 12
    91ec:	71 e0       	ldi	r23, 0x01	; 1
    91ee:	0e 94 92 0a 	call	0x1524	; 0x1524 <_ZN8USART1_tlsEPKc>
}
    91f2:	2b 96       	adiw	r28, 0x0b	; 11
    91f4:	0f b6       	in	r0, 0x3f	; 63
    91f6:	f8 94       	cli
    91f8:	de bf       	out	0x3e, r29	; 62
    91fa:	0f be       	out	0x3f, r0	; 63
    91fc:	cd bf       	out	0x3d, r28	; 61
    91fe:	cf 91       	pop	r28
    9200:	df 91       	pop	r29
    9202:	1f 91       	pop	r17
    9204:	0f 91       	pop	r16
    9206:	ff 90       	pop	r15
    9208:	ef 90       	pop	r14
    920a:	df 90       	pop	r13
    920c:	cf 90       	pop	r12
    920e:	bf 90       	pop	r11
    9210:	af 90       	pop	r10
    9212:	9f 90       	pop	r9
    9214:	8f 90       	pop	r8
    9216:	7f 90       	pop	r7
    9218:	6f 90       	pop	r6
    921a:	5f 90       	pop	r5
    921c:	4f 90       	pop	r4
    921e:	3f 90       	pop	r3
    9220:	2f 90       	pop	r2
    9222:	08 95       	ret

00009224 <_ZN7motor_t5speedERKi>:
	motor_t & speed(const uint16_t &speed = 256)
	{
		m_error.push(bus.writeWord(currentID, P_GOAL_SPEED_L, speed));
		return *this;
	}
	motor_t & speed(const int16_t &speed = 256)
    9224:	ef 92       	push	r14
    9226:	ff 92       	push	r15
    9228:	0f 93       	push	r16
    922a:	1f 93       	push	r17
    922c:	f8 2e       	mov	r15, r24
    922e:	e9 2e       	mov	r14, r25
    9230:	fb 01       	movw	r30, r22
	{
		m_error.push(bus.writeWord(currentID, P_GOAL_SPEED_L, ((uint16_t)(speed))));
    9232:	20 81       	ld	r18, Z
    9234:	31 81       	ldd	r19, Z+1	; 0x01
    9236:	8e e6       	ldi	r24, 0x6E	; 110
    9238:	92 e0       	ldi	r25, 0x02	; 2
    923a:	0f 2d       	mov	r16, r15
    923c:	1e 2d       	mov	r17, r14
    923e:	f8 01       	movw	r30, r16
    9240:	61 91       	ld	r22, Z+
    9242:	8f 01       	movw	r16, r30
    9244:	40 e2       	ldi	r20, 0x20	; 32
    9246:	0e 94 29 0d 	call	0x1a52	; 0x1a52 <_ZN11dynamixel_t9writeWordEhhj>
    924a:	68 2f       	mov	r22, r24
    924c:	c8 01       	movw	r24, r16
    924e:	0e 94 e3 0b 	call	0x17c6	; 0x17c6 <_ZN5queueIhLj96EE4pushEh>
		return *this;
	}
    9252:	8f 2d       	mov	r24, r15
    9254:	9e 2d       	mov	r25, r14
    9256:	1f 91       	pop	r17
    9258:	0f 91       	pop	r16
    925a:	ff 90       	pop	r15
    925c:	ef 90       	pop	r14
    925e:	08 95       	ret

00009260 <_Z8rychlostv>:
	motor [2]. torqueLimit (1023);
	motor [3]. torqueLimit (1023);
	motor [4]. torqueLimit (1023);
	motor [5]. torqueLimit (1023);
}
void rychlost()
    9260:	ef 92       	push	r14
    9262:	ff 92       	push	r15
    9264:	0f 93       	push	r16
    9266:	1f 93       	push	r17
    9268:	df 93       	push	r29
    926a:	cf 93       	push	r28
    926c:	cd b7       	in	r28, 0x3d	; 61
    926e:	de b7       	in	r29, 0x3e	; 62
    9270:	2e 97       	sbiw	r28, 0x0e	; 14
    9272:	0f b6       	in	r0, 0x3f	; 63
    9274:	f8 94       	cli
    9276:	de bf       	out	0x3e, r29	; 62
    9278:	0f be       	out	0x3f, r0	; 63
    927a:	cd bf       	out	0x3d, r28	; 61
		m_error.overwrite = true;
	}

	motor_t &operator [] (const uint8_t &id)
	{
		currentID = id;
    927c:	b8 e3       	ldi	r27, 0x38	; 56
    927e:	eb 2e       	mov	r14, r27
    9280:	b3 e0       	ldi	r27, 0x03	; 3
    9282:	fb 2e       	mov	r15, r27
    9284:	81 e0       	ldi	r24, 0x01	; 1
    9286:	80 93 38 03 	sts	0x0338, r24
{	
	
	motor[1].speed(50);
    928a:	02 e3       	ldi	r16, 0x32	; 50
    928c:	10 e0       	ldi	r17, 0x00	; 0
    928e:	1a 83       	std	Y+2, r17	; 0x02
    9290:	09 83       	std	Y+1, r16	; 0x01
    9292:	c7 01       	movw	r24, r14
    9294:	be 01       	movw	r22, r28
    9296:	6f 5f       	subi	r22, 0xFF	; 255
    9298:	7f 4f       	sbci	r23, 0xFF	; 255
    929a:	0e 94 12 49 	call	0x9224	; 0x9224 <_ZN7motor_t5speedERKi>
    929e:	82 e0       	ldi	r24, 0x02	; 2
    92a0:	80 93 38 03 	sts	0x0338, r24
	motor[2].speed(50);
    92a4:	1c 83       	std	Y+4, r17	; 0x04
    92a6:	0b 83       	std	Y+3, r16	; 0x03
    92a8:	c7 01       	movw	r24, r14
    92aa:	be 01       	movw	r22, r28
    92ac:	6d 5f       	subi	r22, 0xFD	; 253
    92ae:	7f 4f       	sbci	r23, 0xFF	; 255
    92b0:	0e 94 12 49 	call	0x9224	; 0x9224 <_ZN7motor_t5speedERKi>
    92b4:	83 e0       	ldi	r24, 0x03	; 3
    92b6:	80 93 38 03 	sts	0x0338, r24
	motor[3].speed(50);
    92ba:	1e 83       	std	Y+6, r17	; 0x06
    92bc:	0d 83       	std	Y+5, r16	; 0x05
    92be:	c7 01       	movw	r24, r14
    92c0:	be 01       	movw	r22, r28
    92c2:	6b 5f       	subi	r22, 0xFB	; 251
    92c4:	7f 4f       	sbci	r23, 0xFF	; 255
    92c6:	0e 94 12 49 	call	0x9224	; 0x9224 <_ZN7motor_t5speedERKi>
    92ca:	84 e0       	ldi	r24, 0x04	; 4
    92cc:	80 93 38 03 	sts	0x0338, r24
	motor[4].speed(50);
    92d0:	18 87       	std	Y+8, r17	; 0x08
    92d2:	0f 83       	std	Y+7, r16	; 0x07
    92d4:	c7 01       	movw	r24, r14
    92d6:	be 01       	movw	r22, r28
    92d8:	69 5f       	subi	r22, 0xF9	; 249
    92da:	7f 4f       	sbci	r23, 0xFF	; 255
    92dc:	0e 94 12 49 	call	0x9224	; 0x9224 <_ZN7motor_t5speedERKi>
    92e0:	85 e0       	ldi	r24, 0x05	; 5
    92e2:	80 93 38 03 	sts	0x0338, r24
	motor[5].speed(50);
    92e6:	1a 87       	std	Y+10, r17	; 0x0a
    92e8:	09 87       	std	Y+9, r16	; 0x09
    92ea:	c7 01       	movw	r24, r14
    92ec:	be 01       	movw	r22, r28
    92ee:	67 5f       	subi	r22, 0xF7	; 247
    92f0:	7f 4f       	sbci	r23, 0xFF	; 255
    92f2:	0e 94 12 49 	call	0x9224	; 0x9224 <_ZN7motor_t5speedERKi>
    92f6:	86 e0       	ldi	r24, 0x06	; 6
    92f8:	80 93 38 03 	sts	0x0338, r24
	motor[6].speed(50);
    92fc:	1c 87       	std	Y+12, r17	; 0x0c
    92fe:	0b 87       	std	Y+11, r16	; 0x0b
    9300:	c7 01       	movw	r24, r14
    9302:	be 01       	movw	r22, r28
    9304:	65 5f       	subi	r22, 0xF5	; 245
    9306:	7f 4f       	sbci	r23, 0xFF	; 255
    9308:	0e 94 12 49 	call	0x9224	; 0x9224 <_ZN7motor_t5speedERKi>
    930c:	87 e0       	ldi	r24, 0x07	; 7
    930e:	80 93 38 03 	sts	0x0338, r24
	motor[7].speed(50);
    9312:	1e 87       	std	Y+14, r17	; 0x0e
    9314:	0d 87       	std	Y+13, r16	; 0x0d
    9316:	c7 01       	movw	r24, r14
    9318:	be 01       	movw	r22, r28
    931a:	63 5f       	subi	r22, 0xF3	; 243
    931c:	7f 4f       	sbci	r23, 0xFF	; 255
    931e:	0e 94 12 49 	call	0x9224	; 0x9224 <_ZN7motor_t5speedERKi>
}
    9322:	2e 96       	adiw	r28, 0x0e	; 14
    9324:	0f b6       	in	r0, 0x3f	; 63
    9326:	f8 94       	cli
    9328:	de bf       	out	0x3e, r29	; 62
    932a:	0f be       	out	0x3f, r0	; 63
    932c:	cd bf       	out	0x3d, r28	; 61
    932e:	cf 91       	pop	r28
    9330:	df 91       	pop	r29
    9332:	1f 91       	pop	r17
    9334:	0f 91       	pop	r16
    9336:	ff 90       	pop	r15
    9338:	ef 90       	pop	r14
    933a:	08 95       	ret

0000933c <_Z3runv>:
	motor[1].position (1022);
	syncWait(10000000);
	motor[1].position (2);
	syncWait(10000000);
}
void run()
    933c:	0f 93       	push	r16
    933e:	1f 93       	push	r17
{
	pc << "run" << endl;
    9340:	8c e7       	ldi	r24, 0x7C	; 124
    9342:	91 e0       	ldi	r25, 0x01	; 1
    9344:	67 e3       	ldi	r22, 0x37	; 55
    9346:	71 e0       	ldi	r23, 0x01	; 1
    9348:	0e 94 92 0a 	call	0x1524	; 0x1524 <_ZN8USART1_tlsEPKc>
    934c:	6c e0       	ldi	r22, 0x0C	; 12
    934e:	71 e0       	ldi	r23, 0x01	; 1
    9350:	0e 94 92 0a 	call	0x1524	; 0x1524 <_ZN8USART1_tlsEPKc>
	A = 0;
    9354:	10 92 08 04 	sts	0x0408, r1
    9358:	10 92 07 04 	sts	0x0407, r1
	B = 0;
    935c:	10 92 0a 04 	sts	0x040A, r1
    9360:	10 92 09 04 	sts	0x0409, r1
	C = 16;
    9364:	80 e1       	ldi	r24, 0x10	; 16
    9366:	90 e0       	ldi	r25, 0x00	; 0
    9368:	90 93 0c 04 	sts	0x040C, r25
    936c:	80 93 0b 04 	sts	0x040B, r24
	D = 16;
    9370:	90 93 0e 04 	sts	0x040E, r25
    9374:	80 93 0d 04 	sts	0x040D, r24
	F1_0 = 0;
    9378:	10 92 18 04 	sts	0x0418, r1
    937c:	10 92 17 04 	sts	0x0417, r1
	F1_1 = 0;
    9380:	10 92 1c 04 	sts	0x041C, r1
    9384:	10 92 1b 04 	sts	0x041B, r1
	uint8_t tlacitka[5] = {0,0,0,0,0};
//	led.aux(1);
	definice();
    9388:	0e 94 7e 06 	call	0xcfc	; 0xcfc <_Z8definicev>
	rychlost();
    938c:	0e 94 30 49 	call	0x9260	; 0x9260 <_Z8rychlostv>
	sila();
    9390:	0e 94 dd 47 	call	0x8fba	; 0x8fba <_Z4silav>
	char x;
	for(;;)
		{
		hra();
    9394:	0e 94 35 47 	call	0x8e6a	; 0x8e6a <_Z3hrav>
		pc<<"A =  "<<A<<endl;
    9398:	8c e7       	ldi	r24, 0x7C	; 124
    939a:	91 e0       	ldi	r25, 0x01	; 1
    939c:	6b e3       	ldi	r22, 0x3B	; 59
    939e:	71 e0       	ldi	r23, 0x01	; 1
    93a0:	0e 94 92 0a 	call	0x1524	; 0x1524 <_ZN8USART1_tlsEPKc>
    93a4:	8c 01       	movw	r16, r24
		sendNumber(n, numbersSpaces);
		return *this;
	}
	USART1_t &operator << (const int16_t &n)
	{
		sendNumber(n, numbersSpaces);
    93a6:	40 91 07 04 	lds	r20, 0x0407
    93aa:	50 91 08 04 	lds	r21, 0x0408
    93ae:	66 27       	eor	r22, r22
    93b0:	57 fd       	sbrc	r21, 7
    93b2:	60 95       	com	r22
    93b4:	76 2f       	mov	r23, r22
    93b6:	fc 01       	movw	r30, r24
    93b8:	e6 53       	subi	r30, 0x36	; 54
    93ba:	ff 4f       	sbci	r31, 0xFF	; 255
    93bc:	20 81       	ld	r18, Z
    93be:	0e 94 e3 09 	call	0x13c6	; 0x13c6 <_ZN8USART1_t10sendNumberElh>
    93c2:	c8 01       	movw	r24, r16
    93c4:	6c e0       	ldi	r22, 0x0C	; 12
    93c6:	71 e0       	ldi	r23, 0x01	; 1
    93c8:	0e 94 92 0a 	call	0x1524	; 0x1524 <_ZN8USART1_tlsEPKc>
		pc<<"B =  "<<B<<endl;
    93cc:	8c e7       	ldi	r24, 0x7C	; 124
    93ce:	91 e0       	ldi	r25, 0x01	; 1
    93d0:	61 e4       	ldi	r22, 0x41	; 65
    93d2:	71 e0       	ldi	r23, 0x01	; 1
    93d4:	0e 94 92 0a 	call	0x1524	; 0x1524 <_ZN8USART1_tlsEPKc>
    93d8:	8c 01       	movw	r16, r24
    93da:	40 91 09 04 	lds	r20, 0x0409
    93de:	50 91 0a 04 	lds	r21, 0x040A
    93e2:	66 27       	eor	r22, r22
    93e4:	57 fd       	sbrc	r21, 7
    93e6:	60 95       	com	r22
    93e8:	76 2f       	mov	r23, r22
    93ea:	fc 01       	movw	r30, r24
    93ec:	e6 53       	subi	r30, 0x36	; 54
    93ee:	ff 4f       	sbci	r31, 0xFF	; 255
    93f0:	20 81       	ld	r18, Z
    93f2:	0e 94 e3 09 	call	0x13c6	; 0x13c6 <_ZN8USART1_t10sendNumberElh>
    93f6:	c8 01       	movw	r24, r16
    93f8:	6c e0       	ldi	r22, 0x0C	; 12
    93fa:	71 e0       	ldi	r23, 0x01	; 1
    93fc:	0e 94 92 0a 	call	0x1524	; 0x1524 <_ZN8USART1_tlsEPKc>
		syncWait(500000);
    9400:	60 e2       	ldi	r22, 0x20	; 32
    9402:	71 ea       	ldi	r23, 0xA1	; 161
    9404:	87 e0       	ldi	r24, 0x07	; 7
    9406:	90 e0       	ldi	r25, 0x00	; 0
    9408:	0e 94 e1 00 	call	0x1c2	; 0x1c2 <_Z8syncWaitm>
		hra2();
    940c:	0e 94 1f 0b 	call	0x163e	; 0x163e <_Z4hra2v>
		pc<<"C =  "<<C<<endl;
    9410:	8c e7       	ldi	r24, 0x7C	; 124
    9412:	91 e0       	ldi	r25, 0x01	; 1
    9414:	67 e4       	ldi	r22, 0x47	; 71
    9416:	71 e0       	ldi	r23, 0x01	; 1
    9418:	0e 94 92 0a 	call	0x1524	; 0x1524 <_ZN8USART1_tlsEPKc>
    941c:	8c 01       	movw	r16, r24
    941e:	40 91 0b 04 	lds	r20, 0x040B
    9422:	50 91 0c 04 	lds	r21, 0x040C
    9426:	66 27       	eor	r22, r22
    9428:	57 fd       	sbrc	r21, 7
    942a:	60 95       	com	r22
    942c:	76 2f       	mov	r23, r22
    942e:	fc 01       	movw	r30, r24
    9430:	e6 53       	subi	r30, 0x36	; 54
    9432:	ff 4f       	sbci	r31, 0xFF	; 255
    9434:	20 81       	ld	r18, Z
    9436:	0e 94 e3 09 	call	0x13c6	; 0x13c6 <_ZN8USART1_t10sendNumberElh>
    943a:	c8 01       	movw	r24, r16
    943c:	6c e0       	ldi	r22, 0x0C	; 12
    943e:	71 e0       	ldi	r23, 0x01	; 1
    9440:	0e 94 92 0a 	call	0x1524	; 0x1524 <_ZN8USART1_tlsEPKc>
		pc<<"D =  "<<D<<endl;
    9444:	8c e7       	ldi	r24, 0x7C	; 124
    9446:	91 e0       	ldi	r25, 0x01	; 1
    9448:	6d e4       	ldi	r22, 0x4D	; 77
    944a:	71 e0       	ldi	r23, 0x01	; 1
    944c:	0e 94 92 0a 	call	0x1524	; 0x1524 <_ZN8USART1_tlsEPKc>
    9450:	8c 01       	movw	r16, r24
    9452:	40 91 0d 04 	lds	r20, 0x040D
    9456:	50 91 0e 04 	lds	r21, 0x040E
    945a:	66 27       	eor	r22, r22
    945c:	57 fd       	sbrc	r21, 7
    945e:	60 95       	com	r22
    9460:	76 2f       	mov	r23, r22
    9462:	fc 01       	movw	r30, r24
    9464:	e6 53       	subi	r30, 0x36	; 54
    9466:	ff 4f       	sbci	r31, 0xFF	; 255
    9468:	20 81       	ld	r18, Z
    946a:	0e 94 e3 09 	call	0x13c6	; 0x13c6 <_ZN8USART1_t10sendNumberElh>
    946e:	c8 01       	movw	r24, r16
    9470:	6c e0       	ldi	r22, 0x0C	; 12
    9472:	71 e0       	ldi	r23, 0x01	; 1
    9474:	0e 94 92 0a 	call	0x1524	; 0x1524 <_ZN8USART1_tlsEPKc>

		syncWait(500000);
    9478:	60 e2       	ldi	r22, 0x20	; 32
    947a:	71 ea       	ldi	r23, 0xA1	; 161
    947c:	87 e0       	ldi	r24, 0x07	; 7
    947e:	90 e0       	ldi	r25, 0x00	; 0
    9480:	0e 94 e1 00 	call	0x1c2	; 0x1c2 <_Z8syncWaitm>
		pc << "..." << endl;
    9484:	8c e7       	ldi	r24, 0x7C	; 124
    9486:	91 e0       	ldi	r25, 0x01	; 1
    9488:	63 e5       	ldi	r22, 0x53	; 83
    948a:	71 e0       	ldi	r23, 0x01	; 1
    948c:	0e 94 92 0a 	call	0x1524	; 0x1524 <_ZN8USART1_tlsEPKc>
    9490:	6c e0       	ldi	r22, 0x0C	; 12
    9492:	71 e0       	ldi	r23, 0x01	; 1
    9494:	0e 94 92 0a 	call	0x1524	; 0x1524 <_ZN8USART1_tlsEPKc>
    9498:	7d cf       	rjmp	.-262    	; 0x9394 <_Z3runv+0x58>

0000949a <main>:
}; eeprom_t eeprom;


void run();

int main()
    949a:	0f 93       	push	r16
    949c:	1f 93       	push	r17
    949e:	cf 93       	push	r28
    94a0:	df 93       	push	r29
{
	//LEDs initialization
	DDRC = (1<<PC0)|(1<<PC1)|(1<<PC2)|(1<<PC3)|(1<<PC4)|(1<<PC5)|(1<<PC6);
    94a2:	8f e7       	ldi	r24, 0x7F	; 127
    94a4:	84 bb       	out	0x14, r24	; 20
	PORTC = (1<<PC1)|(1<<PC2)|(1<<PC3)|(1<<PC4)|(1<<PC5)|(1<<PC6);
    94a6:	8e e7       	ldi	r24, 0x7E	; 126
    94a8:	85 bb       	out	0x15, r24	; 21
	//buttons initialization
	DDRE = (1<<PE2)|(1<<PE3);
    94aa:	8c e0       	ldi	r24, 0x0C	; 12
    94ac:	82 b9       	out	0x02, r24	; 2
	PORTE = (1<<PE7)|(1<<PE6)|(1<<PE5)|(1<<PE4)|(1<<PE0);
    94ae:	81 ef       	ldi	r24, 0xF1	; 241
    94b0:	83 b9       	out	0x03, r24	; 3
	DDRD = (1<<PD5);
    94b2:	80 e2       	ldi	r24, 0x20	; 32
    94b4:	81 bb       	out	0x11, r24	; 17
	PORTD = (1<<PD0)|(1<<PD5);
    94b6:	81 e2       	ldi	r24, 0x21	; 33
    94b8:	82 bb       	out	0x12, r24	; 18
		return true;
	}

	void init(uint32_t speed)
	{
		m_tx.overwrite = false;
    94ba:	10 92 45 02 	sts	0x0245, r1
		m_rx.overwrite = false;
    94be:	10 92 e0 01 	sts	0x01E0, r1
		UCSR1A = (1<<U2X1);
    94c2:	02 e0       	ldi	r16, 0x02	; 2
    94c4:	00 93 9b 00 	sts	0x009B, r16
		UCSR1B = ((1<<RXCIE1)|(1<<RXEN1)|(1<<TXEN1));
    94c8:	28 e9       	ldi	r18, 0x98	; 152
    94ca:	20 93 9a 00 	sts	0x009A, r18
		UCSR1C = ((1<<UCSZ10)|(1<<UCSZ11));
    94ce:	96 e0       	ldi	r25, 0x06	; 6
    94d0:	90 93 9d 00 	sts	0x009D, r25
		speed = (((F_CPU/(float(8*speed)))-1)-((F_CPU/(8*speed))-1))<0.5?((F_CPU/(8*speed))-1):((F_CPU/(8*speed)));
		UBRR1H = ((speed&0xFF00)>>8);
    94d4:	10 92 98 00 	sts	0x0098, r1
		UBRR1L = (speed&0x00FF);
    94d8:	82 e2       	ldi	r24, 0x22	; 34
    94da:	80 93 99 00 	sts	0x0099, r24
		numbersSpaces = 1;
    94de:	11 e0       	ldi	r17, 0x01	; 1
    94e0:	10 93 46 02 	sts	0x0246, r17
		cin_isFirst = true;
    94e4:	10 93 47 02 	sts	0x0247, r17
		cin_isGood = true;
    94e8:	10 93 69 02 	sts	0x0269, r17
		UCSR0B = (1<<RXCIE0)|(1<<RXEN0);
	}

	void init(uint32_t speed)
	{
		m_tx.overwrite = false;
    94ec:	10 92 37 03 	sts	0x0337, r1
		m_rx.overwrite = false;
    94f0:	10 92 d2 02 	sts	0x02D2, r1
		UCSR0A = (1<<U2X0);
    94f4:	0b b9       	out	0x0b, r16	; 11
		UCSR0B = (1<<RXCIE0)|(1<<RXEN0)|(1<<TXEN0);
    94f6:	2a b9       	out	0x0a, r18	; 10
		UCSR0C = (1<<UCSZ00)|(1<<UCSZ01);
    94f8:	90 93 95 00 	sts	0x0095, r25
		speed = (((F_CPU/(float(8*speed)))-1)-((F_CPU/(8*speed))-1))<0.5?((F_CPU/(8*speed))-1):((F_CPU/(8*speed)));
		UBRR0H = ((speed&0xFF00)>>8);
    94fc:	10 92 90 00 	sts	0x0090, r1
		UBRR0L = (speed&0x00FF);
    9500:	19 b9       	out	0x09, r17	; 9
		DDRE |= (1<<PE2)|(1<<PE3);
    9502:	82 b1       	in	r24, 0x02	; 2
    9504:	8c 60       	ori	r24, 0x0C	; 12
    9506:	82 b9       	out	0x02, r24	; 2
		UCSR0B = (1<<TXEN0);
	}

	void receive()
	{
		PORTE = (PORTE & ~(1<<PE2))|(1<<PE3);
    9508:	83 b1       	in	r24, 0x03	; 3
    950a:	83 7f       	andi	r24, 0xF3	; 243
    950c:	88 60       	ori	r24, 0x08	; 8
    950e:	83 b9       	out	0x03, r24	; 3
		syncWait(10);
    9510:	6a e0       	ldi	r22, 0x0A	; 10
    9512:	70 e0       	ldi	r23, 0x00	; 0
    9514:	80 e0       	ldi	r24, 0x00	; 0
    9516:	90 e0       	ldi	r25, 0x00	; 0
    9518:	0e 94 e1 00 	call	0x1c2	; 0x1c2 <_Z8syncWaitm>
		UCSR0B = (1<<RXCIE0)|(1<<RXEN0);
    951c:	80 e9       	ldi	r24, 0x90	; 144
    951e:	8a b9       	out	0x0a, r24	; 10
	// Initialize the RS232 line to PC
	pc.init(DYNAMIXEL_PC_BPS);
	//Dynamixel bus initialization
	bus.init(DYNAMIXEL_BUS_BPS);
	//stopwatch initialization
	TIMSK = (1<<TOIE0);
    9520:	17 bf       	out	0x37, r17	; 55
	TCCR0 = (1<<CS01);
    9522:	03 bf       	out	0x33, r16	; 51
	//starting program
	sei();
    9524:	78 94       	sei
	syncWait(1000);
    9526:	68 ee       	ldi	r22, 0xE8	; 232
    9528:	73 e0       	ldi	r23, 0x03	; 3
    952a:	80 e0       	ldi	r24, 0x00	; 0
    952c:	90 e0       	ldi	r25, 0x00	; 0
    952e:	0e 94 e1 00 	call	0x1c2	; 0x1c2 <_Z8syncWaitm>
    9532:	c7 e5       	ldi	r28, 0x57	; 87
    9534:	d1 e0       	ldi	r29, 0x01	; 1
    9536:	05 c0       	rjmp	.+10     	; 0x9542 <main+0xa8>
	}

	void send(const char * str)
	{
		for(; *str != 0; ++str)
			sendChar(*str);
    9538:	8c e7       	ldi	r24, 0x7C	; 124
    953a:	91 e0       	ldi	r25, 0x01	; 1
    953c:	0e 94 cd 09 	call	0x139a	; 0x139a <_ZN8USART1_t8sendCharEc>
		while((UCSR1A & (1<<TXC1)) == 0){}
	}

	void send(const char * str)
	{
		for(; *str != 0; ++str)
    9540:	21 96       	adiw	r28, 0x01	; 1
    9542:	68 81       	ld	r22, Y
    9544:	66 23       	and	r22, r22
    9546:	c1 f7       	brne	.-16     	; 0x9538 <main+0x9e>
	volatile uint16_t m_write;
public:
	volatile bool overwrite;
	bool is_empty() const
	{
		if(m_write == m_read)
    9548:	20 91 43 02 	lds	r18, 0x0243
    954c:	30 91 44 02 	lds	r19, 0x0244
    9550:	80 91 41 02 	lds	r24, 0x0241
    9554:	90 91 42 02 	lds	r25, 0x0242
    9558:	28 17       	cp	r18, r24
    955a:	39 07       	cpc	r19, r25
    955c:	b1 f4       	brne	.+44     	; 0x958a <main+0xf0>
    955e:	19 c0       	rjmp	.+50     	; 0x9592 <main+0xf8>
	}

	void send(const char * str)
	{
		for(; *str != 0; ++str)
			sendChar(*str);
    9560:	8c e7       	ldi	r24, 0x7C	; 124
    9562:	91 e0       	ldi	r25, 0x01	; 1
    9564:	0e 94 cd 09 	call	0x139a	; 0x139a <_ZN8USART1_t8sendCharEc>
		while((UCSR1A & (1<<TXC1)) == 0){}
	}

	void send(const char * str)
	{
		for(; *str != 0; ++str)
    9568:	21 96       	adiw	r28, 0x01	; 1
    956a:	68 81       	ld	r22, Y
    956c:	66 23       	and	r22, r22
    956e:	c1 f7       	brne	.-16     	; 0x9560 <main+0xc6>
	volatile uint16_t m_write;
public:
	volatile bool overwrite;
	bool is_empty() const
	{
		if(m_write == m_read)
    9570:	20 91 43 02 	lds	r18, 0x0243
    9574:	30 91 44 02 	lds	r19, 0x0244
    9578:	80 91 41 02 	lds	r24, 0x0241
    957c:	90 91 42 02 	lds	r25, 0x0242
    9580:	28 17       	cp	r18, r24
    9582:	39 07       	cpc	r19, r25
    9584:	81 f4       	brne	.+32     	; 0x95a6 <main+0x10c>
    9586:	13 c0       	rjmp	.+38     	; 0x95ae <main+0x114>
    9588:	ff cf       	rjmp	.-2      	; 0x9588 <main+0xee>
		return true;
	}

	bool is_send() const
	{
		if(!m_tx.is_empty() && ((UCSR1A & (1<<TXC1)) == 0))
    958a:	80 91 9b 00 	lds	r24, 0x009B
    958e:	86 ff       	sbrs	r24, 6
    9590:	db cf       	rjmp	.-74     	; 0x9548 <main+0xae>
			return false;
		UCSR1A |= (1<<TXC1);
    9592:	80 91 9b 00 	lds	r24, 0x009B
    9596:	80 64       	ori	r24, 0x40	; 64
    9598:	80 93 9b 00 	sts	0x009B, r24
	//starting program
	sei();
	syncWait(1000);
	pc.send("\n\n\r  ok \n\r");
	pc.wait();
	run();//user program
    959c:	0e 94 9e 49 	call	0x933c	; 0x933c <_Z3runv>
    95a0:	c2 e6       	ldi	r28, 0x62	; 98
    95a2:	d1 e0       	ldi	r29, 0x01	; 1
    95a4:	e2 cf       	rjmp	.-60     	; 0x956a <main+0xd0>
		return true;
	}

	bool is_send() const
	{
		if(!m_tx.is_empty() && ((UCSR1A & (1<<TXC1)) == 0))
    95a6:	80 91 9b 00 	lds	r24, 0x009B
    95aa:	86 ff       	sbrs	r24, 6
    95ac:	e1 cf       	rjmp	.-62     	; 0x9570 <main+0xd6>
			return false;
		UCSR1A |= (1<<TXC1);
    95ae:	80 91 9b 00 	lds	r24, 0x009B
    95b2:	80 64       	ori	r24, 0x40	; 64
    95b4:	80 93 9b 00 	sts	0x009B, r24
    95b8:	e7 cf       	rjmp	.-50     	; 0x9588 <main+0xee>

000095ba <__vector_18>:
		return com(ID, INST_PING, &repository[0], 3, DYNAMIXEL_RETURN==2?1:0, DYNAMIXEL_RESPOND_TIME)==0?repository[0]:(repository[0]|(1<<7));
	}

}; dynamixel_t bus;

ISR(USART0_RX_vect)
    95ba:	1f 92       	push	r1
    95bc:	0f 92       	push	r0
    95be:	0f b6       	in	r0, 0x3f	; 63
    95c0:	0f 92       	push	r0
    95c2:	0b b6       	in	r0, 0x3b	; 59
    95c4:	0f 92       	push	r0
    95c6:	11 24       	eor	r1, r1
    95c8:	1f 93       	push	r17
    95ca:	2f 93       	push	r18
    95cc:	3f 93       	push	r19
    95ce:	4f 93       	push	r20
    95d0:	5f 93       	push	r21
    95d2:	6f 93       	push	r22
    95d4:	7f 93       	push	r23
    95d6:	8f 93       	push	r24
    95d8:	9f 93       	push	r25
    95da:	af 93       	push	r26
    95dc:	bf 93       	push	r27
    95de:	ef 93       	push	r30
    95e0:	ff 93       	push	r31
{
	char ch = UDR0;
    95e2:	1c b1       	in	r17, 0x0c	; 12
	if((UCSR0A & (1<<FE0)) == (1<<FE0))
    95e4:	5c 99       	sbic	0x0b, 4	; 11
    95e6:	07 c0       	rjmp	.+14     	; 0x95f6 <__vector_18+0x3c>

public:

	void data_in(const uint8_t &ch)
	{
		while(!m_rx.push(ch)) {}
    95e8:	8e e6       	ldi	r24, 0x6E	; 110
    95ea:	92 e0       	ldi	r25, 0x02	; 2
    95ec:	61 2f       	mov	r22, r17
    95ee:	0e 94 e3 0b 	call	0x17c6	; 0x17c6 <_ZN5queueIhLj96EE4pushEh>
    95f2:	88 23       	and	r24, r24
    95f4:	c9 f3       	breq	.-14     	; 0x95e8 <__vector_18+0x2e>
{
	char ch = UDR0;
	if((UCSR0A & (1<<FE0)) == (1<<FE0))
		return;
	bus.data_in(ch);
}
    95f6:	ff 91       	pop	r31
    95f8:	ef 91       	pop	r30
    95fa:	bf 91       	pop	r27
    95fc:	af 91       	pop	r26
    95fe:	9f 91       	pop	r25
    9600:	8f 91       	pop	r24
    9602:	7f 91       	pop	r23
    9604:	6f 91       	pop	r22
    9606:	5f 91       	pop	r21
    9608:	4f 91       	pop	r20
    960a:	3f 91       	pop	r19
    960c:	2f 91       	pop	r18
    960e:	1f 91       	pop	r17
    9610:	0f 90       	pop	r0
    9612:	0b be       	out	0x3b, r0	; 59
    9614:	0f 90       	pop	r0
    9616:	0f be       	out	0x3f, r0	; 63
    9618:	0f 90       	pop	r0
    961a:	1f 90       	pop	r1
    961c:	18 95       	reti

0000961e <_GLOBAL__I__Z3absl>:
		}


}
    961e:	80 e0       	ldi	r24, 0x00	; 0
    9620:	06 c0       	rjmp	.+12     	; 0x962e <_GLOBAL__I__Z3absl+0x10>
public:
	string()
	{
		//m_size = STRING_DEFAULT_SIZE;
		for(pointer = 0; pointer != m_size; ++pointer)
			m_data[pointer] = 0;
    9622:	e8 2f       	mov	r30, r24
    9624:	f0 e0       	ldi	r31, 0x00	; 0
    9626:	e8 5b       	subi	r30, 0xB8	; 184
    9628:	fd 4f       	sbci	r31, 0xFD	; 253
    962a:	10 82       	st	Z, r1
    962c:	8f 5f       	subi	r24, 0xFF	; 255
	uint8_t pointer;
public:
	string()
	{
		//m_size = STRING_DEFAULT_SIZE;
		for(pointer = 0; pointer != m_size; ++pointer)
    962e:	80 32       	cpi	r24, 0x20	; 32
    9630:	c1 f7       	brne	.-16     	; 0x9622 <_GLOBAL__I__Z3absl+0x4>
			m_data[pointer] = 0;
		pointer = 0;
    9632:	10 92 68 02 	sts	0x0268, r1
	uint8_t currentID;
	queue <uint8_t, AX_ERROR_BUF> m_error;

	motor_t()
	{
		m_error.overwrite = true;
    9636:	81 e0       	ldi	r24, 0x01	; 1
    9638:	80 93 9d 03 	sts	0x039D, r24
	uint8_t currentID;
	queue <uint8_t, AX_ERROR_BUF> m_error;

	sensor_t()
	{
		m_error.overwrite = true;
    963c:	80 93 03 04 	sts	0x0403, r24
		currentID = 100;
    9640:	84 e6       	ldi	r24, 0x64	; 100
    9642:	80 93 9e 03 	sts	0x039E, r24
    9646:	08 95       	ret

00009648 <__divmodsi4>:
    9648:	97 fb       	bst	r25, 7
    964a:	09 2e       	mov	r0, r25
    964c:	05 26       	eor	r0, r21
    964e:	0e d0       	rcall	.+28     	; 0x966c <__divmodsi4_neg1>
    9650:	57 fd       	sbrc	r21, 7
    9652:	04 d0       	rcall	.+8      	; 0x965c <__divmodsi4_neg2>
    9654:	14 d0       	rcall	.+40     	; 0x967e <__udivmodsi4>
    9656:	0a d0       	rcall	.+20     	; 0x966c <__divmodsi4_neg1>
    9658:	00 1c       	adc	r0, r0
    965a:	38 f4       	brcc	.+14     	; 0x966a <__divmodsi4_exit>

0000965c <__divmodsi4_neg2>:
    965c:	50 95       	com	r21
    965e:	40 95       	com	r20
    9660:	30 95       	com	r19
    9662:	21 95       	neg	r18
    9664:	3f 4f       	sbci	r19, 0xFF	; 255
    9666:	4f 4f       	sbci	r20, 0xFF	; 255
    9668:	5f 4f       	sbci	r21, 0xFF	; 255

0000966a <__divmodsi4_exit>:
    966a:	08 95       	ret

0000966c <__divmodsi4_neg1>:
    966c:	f6 f7       	brtc	.-4      	; 0x966a <__divmodsi4_exit>
    966e:	90 95       	com	r25
    9670:	80 95       	com	r24
    9672:	70 95       	com	r23
    9674:	61 95       	neg	r22
    9676:	7f 4f       	sbci	r23, 0xFF	; 255
    9678:	8f 4f       	sbci	r24, 0xFF	; 255
    967a:	9f 4f       	sbci	r25, 0xFF	; 255
    967c:	08 95       	ret

0000967e <__udivmodsi4>:
    967e:	a1 e2       	ldi	r26, 0x21	; 33
    9680:	1a 2e       	mov	r1, r26
    9682:	aa 1b       	sub	r26, r26
    9684:	bb 1b       	sub	r27, r27
    9686:	fd 01       	movw	r30, r26
    9688:	0d c0       	rjmp	.+26     	; 0x96a4 <__udivmodsi4_ep>

0000968a <__udivmodsi4_loop>:
    968a:	aa 1f       	adc	r26, r26
    968c:	bb 1f       	adc	r27, r27
    968e:	ee 1f       	adc	r30, r30
    9690:	ff 1f       	adc	r31, r31
    9692:	a2 17       	cp	r26, r18
    9694:	b3 07       	cpc	r27, r19
    9696:	e4 07       	cpc	r30, r20
    9698:	f5 07       	cpc	r31, r21
    969a:	20 f0       	brcs	.+8      	; 0x96a4 <__udivmodsi4_ep>
    969c:	a2 1b       	sub	r26, r18
    969e:	b3 0b       	sbc	r27, r19
    96a0:	e4 0b       	sbc	r30, r20
    96a2:	f5 0b       	sbc	r31, r21

000096a4 <__udivmodsi4_ep>:
    96a4:	66 1f       	adc	r22, r22
    96a6:	77 1f       	adc	r23, r23
    96a8:	88 1f       	adc	r24, r24
    96aa:	99 1f       	adc	r25, r25
    96ac:	1a 94       	dec	r1
    96ae:	69 f7       	brne	.-38     	; 0x968a <__udivmodsi4_loop>
    96b0:	60 95       	com	r22
    96b2:	70 95       	com	r23
    96b4:	80 95       	com	r24
    96b6:	90 95       	com	r25
    96b8:	9b 01       	movw	r18, r22
    96ba:	ac 01       	movw	r20, r24
    96bc:	bd 01       	movw	r22, r26
    96be:	cf 01       	movw	r24, r30
    96c0:	08 95       	ret

000096c2 <__tablejump2__>:
    96c2:	ee 0f       	add	r30, r30
    96c4:	ff 1f       	adc	r31, r31

000096c6 <__tablejump__>:
    96c6:	05 90       	lpm	r0, Z+
    96c8:	f4 91       	lpm	r31, Z+
    96ca:	e0 2d       	mov	r30, r0
    96cc:	09 94       	ijmp

000096ce <_exit>:
    96ce:	f8 94       	cli

000096d0 <__stop_program>:
    96d0:	ff cf       	rjmp	.-2      	; 0x96d0 <__stop_program>
