
Robot_vychozi_CM5.elf:     file format elf32-avr

Sections:
Idx Name          Size      VMA       LMA       File off  Algn
  0 .data         0000009c  00800100  0000171e  000017b2  2**0
                  CONTENTS, ALLOC, LOAD, DATA
  1 .text         0000171e  00000000  00000000  00000094  2**1
                  CONTENTS, ALLOC, LOAD, READONLY, CODE
  2 .bss          0000029e  0080019c  0080019c  0000184e  2**0
                  ALLOC
  3 .stab         000006cc  00000000  00000000  00001850  2**2
                  CONTENTS, READONLY, DEBUGGING
  4 .stabstr      00000085  00000000  00000000  00001f1c  2**0
                  CONTENTS, READONLY, DEBUGGING
  5 .debug_aranges 00000110  00000000  00000000  00001fa8  2**3
                  CONTENTS, READONLY, DEBUGGING
  6 .debug_info   00004c25  00000000  00000000  000020b8  2**0
                  CONTENTS, READONLY, DEBUGGING
  7 .debug_abbrev 000006bf  00000000  00000000  00006cdd  2**0
                  CONTENTS, READONLY, DEBUGGING
  8 .debug_line   00000d63  00000000  00000000  0000739c  2**0
                  CONTENTS, READONLY, DEBUGGING
  9 .debug_frame  00000774  00000000  00000000  00008100  2**2
                  CONTENTS, READONLY, DEBUGGING
 10 .debug_str    00001c56  00000000  00000000  00008874  2**0
                  CONTENTS, READONLY, DEBUGGING
 11 .debug_loc    00001b07  00000000  00000000  0000a4ca  2**0
                  CONTENTS, READONLY, DEBUGGING
 12 .debug_ranges 000002f0  00000000  00000000  0000bfd1  2**0
                  CONTENTS, READONLY, DEBUGGING

Disassembly of section .text:

00000000 <__vectors>:
       0:	0c 94 47 00 	jmp	0x8e	; 0x8e <__ctors_end>
       4:	0c 94 76 00 	jmp	0xec	; 0xec <__bad_interrupt>
       8:	0c 94 76 00 	jmp	0xec	; 0xec <__bad_interrupt>
       c:	0c 94 76 00 	jmp	0xec	; 0xec <__bad_interrupt>
      10:	0c 94 76 00 	jmp	0xec	; 0xec <__bad_interrupt>
      14:	0c 94 76 00 	jmp	0xec	; 0xec <__bad_interrupt>
      18:	0c 94 76 00 	jmp	0xec	; 0xec <__bad_interrupt>
      1c:	0c 94 76 00 	jmp	0xec	; 0xec <__bad_interrupt>
      20:	0c 94 76 00 	jmp	0xec	; 0xec <__bad_interrupt>
      24:	0c 94 76 00 	jmp	0xec	; 0xec <__bad_interrupt>
      28:	0c 94 76 00 	jmp	0xec	; 0xec <__bad_interrupt>
      2c:	0c 94 76 00 	jmp	0xec	; 0xec <__bad_interrupt>
      30:	0c 94 76 00 	jmp	0xec	; 0xec <__bad_interrupt>
      34:	0c 94 76 00 	jmp	0xec	; 0xec <__bad_interrupt>
      38:	0c 94 76 00 	jmp	0xec	; 0xec <__bad_interrupt>
      3c:	0c 94 76 00 	jmp	0xec	; 0xec <__bad_interrupt>
      40:	0c 94 b5 00 	jmp	0x16a	; 0x16a <__vector_16>
      44:	0c 94 76 00 	jmp	0xec	; 0xec <__bad_interrupt>
      48:	0c 94 28 03 	jmp	0x650	; 0x650 <__vector_18>
      4c:	0c 94 a7 0a 	jmp	0x154e	; 0x154e <__vector_19>
      50:	0c 94 76 00 	jmp	0xec	; 0xec <__bad_interrupt>
      54:	0c 94 76 00 	jmp	0xec	; 0xec <__bad_interrupt>
      58:	0c 94 76 00 	jmp	0xec	; 0xec <__bad_interrupt>
      5c:	0c 94 76 00 	jmp	0xec	; 0xec <__bad_interrupt>
      60:	0c 94 76 00 	jmp	0xec	; 0xec <__bad_interrupt>
      64:	0c 94 76 00 	jmp	0xec	; 0xec <__bad_interrupt>
      68:	0c 94 76 00 	jmp	0xec	; 0xec <__bad_interrupt>
      6c:	0c 94 76 00 	jmp	0xec	; 0xec <__bad_interrupt>
      70:	0c 94 76 00 	jmp	0xec	; 0xec <__bad_interrupt>
      74:	0c 94 76 00 	jmp	0xec	; 0xec <__bad_interrupt>
      78:	0c 94 2c 02 	jmp	0x458	; 0x458 <__vector_30>
      7c:	0c 94 a4 02 	jmp	0x548	; 0x548 <__vector_31>
      80:	0c 94 76 00 	jmp	0xec	; 0xec <__bad_interrupt>
      84:	0c 94 76 00 	jmp	0xec	; 0xec <__bad_interrupt>
      88:	0c 94 76 00 	jmp	0xec	; 0xec <__bad_interrupt>

0000008c <__ctors_start>:
      8c:	37 0b       	sbc	r19, r23

0000008e <__ctors_end>:
      8e:	11 24       	eor	r1, r1
      90:	1f be       	out	0x3f, r1	; 63
      92:	cf ef       	ldi	r28, 0xFF	; 255
      94:	d0 e1       	ldi	r29, 0x10	; 16
      96:	de bf       	out	0x3e, r29	; 62
      98:	cd bf       	out	0x3d, r28	; 61

0000009a <__do_copy_data>:
      9a:	11 e0       	ldi	r17, 0x01	; 1
      9c:	a0 e0       	ldi	r26, 0x00	; 0
      9e:	b1 e0       	ldi	r27, 0x01	; 1
      a0:	ee e1       	ldi	r30, 0x1E	; 30
      a2:	f7 e1       	ldi	r31, 0x17	; 23
      a4:	00 e0       	ldi	r16, 0x00	; 0
      a6:	0b bf       	out	0x3b, r16	; 59
      a8:	02 c0       	rjmp	.+4      	; 0xae <__do_copy_data+0x14>
      aa:	07 90       	elpm	r0, Z+
      ac:	0d 92       	st	X+, r0
      ae:	ac 39       	cpi	r26, 0x9C	; 156
      b0:	b1 07       	cpc	r27, r17
      b2:	d9 f7       	brne	.-10     	; 0xaa <__do_copy_data+0x10>

000000b4 <__do_clear_bss>:
      b4:	14 e0       	ldi	r17, 0x04	; 4
      b6:	ac e9       	ldi	r26, 0x9C	; 156
      b8:	b1 e0       	ldi	r27, 0x01	; 1
      ba:	01 c0       	rjmp	.+2      	; 0xbe <.do_clear_bss_start>

000000bc <.do_clear_bss_loop>:
      bc:	1d 92       	st	X+, r1

000000be <.do_clear_bss_start>:
      be:	aa 33       	cpi	r26, 0x3A	; 58
      c0:	b1 07       	cpc	r27, r17
      c2:	e1 f7       	brne	.-8      	; 0xbc <.do_clear_bss_loop>

000000c4 <__do_global_ctors>:
      c4:	10 e0       	ldi	r17, 0x00	; 0
      c6:	ce e8       	ldi	r28, 0x8E	; 142
      c8:	d0 e0       	ldi	r29, 0x00	; 0
      ca:	00 e0       	ldi	r16, 0x00	; 0
      cc:	06 c0       	rjmp	.+12     	; 0xda <__do_global_ctors+0x16>
      ce:	22 97       	sbiw	r28, 0x02	; 2
      d0:	01 09       	sbc	r16, r1
      d2:	fe 01       	movw	r30, r28
      d4:	0b bf       	out	0x3b, r16	; 59
      d6:	0e 94 89 0b 	call	0x1712	; 0x1712 <__tablejump_elpm__>
      da:	cc 38       	cpi	r28, 0x8C	; 140
      dc:	d1 07       	cpc	r29, r17
      de:	80 e0       	ldi	r24, 0x00	; 0
      e0:	08 07       	cpc	r16, r24
      e2:	a9 f7       	brne	.-22     	; 0xce <__do_global_ctors+0xa>
      e4:	0e 94 df 0a 	call	0x15be	; 0x15be <main>
      e8:	0c 94 8d 0b 	jmp	0x171a	; 0x171a <_exit>

000000ec <__bad_interrupt>:
      ec:	0c 94 00 00 	jmp	0	; 0x0 <__vectors>

000000f0 <_Z3absl>:
		pointer = 0;
	}
};

int32_t abs(int32_t n)
{
      f0:	0f 93       	push	r16
      f2:	1f 93       	push	r17
	return n<0?-n:n;
      f4:	8b 01       	movw	r16, r22
      f6:	9c 01       	movw	r18, r24
      f8:	37 ff       	sbrs	r19, 7
      fa:	07 c0       	rjmp	.+14     	; 0x10a <_Z3absl+0x1a>
      fc:	30 95       	com	r19
      fe:	20 95       	com	r18
     100:	10 95       	com	r17
     102:	01 95       	neg	r16
     104:	1f 4f       	sbci	r17, 0xFF	; 255
     106:	2f 4f       	sbci	r18, 0xFF	; 255
     108:	3f 4f       	sbci	r19, 0xFF	; 255
}
     10a:	b8 01       	movw	r22, r16
     10c:	c9 01       	movw	r24, r18
     10e:	1f 91       	pop	r17
     110:	0f 91       	pop	r16
     112:	08 95       	ret

00000114 <_Z8syncWaitm>:
Cekani
Funguje od 2 do 4294967294 us
Zadava se v us pro F_CPU 16000000
*/ 
void syncWait(uint32_t time)
{
     114:	ab 01       	movw	r20, r22
     116:	bc 01       	movw	r22, r24
	time -= 2;
     118:	42 50       	subi	r20, 0x02	; 2
     11a:	50 40       	sbci	r21, 0x00	; 0
     11c:	60 40       	sbci	r22, 0x00	; 0
     11e:	70 40       	sbci	r23, 0x00	; 0
	...
	__asm__ volatile ("nop");
	__asm__ volatile ("nop");
	__asm__ volatile ("nop");
	__asm__ volatile ("nop");
	__asm__ volatile ("nop");
	for(uint32_t i = 0; i < time; ++i)
     12c:	80 e0       	ldi	r24, 0x00	; 0
     12e:	90 e0       	ldi	r25, 0x00	; 0
     130:	dc 01       	movw	r26, r24
     132:	84 17       	cp	r24, r20
     134:	95 07       	cpc	r25, r21
     136:	a6 07       	cpc	r26, r22
     138:	b7 07       	cpc	r27, r23
     13a:	48 f4       	brcc	.+18     	; 0x14e <_Z8syncWaitm+0x3a>
	...
	{
		for(uint8_t j = 0; j < 5; ++j)
		{
			__asm__ volatile ("nop");
     144:	00 00       	nop
	__asm__ volatile ("nop");
	__asm__ volatile ("nop");
	__asm__ volatile ("nop");
	__asm__ volatile ("nop");
	__asm__ volatile ("nop");
	for(uint32_t i = 0; i < time; ++i)
     146:	01 96       	adiw	r24, 0x01	; 1
     148:	a1 1d       	adc	r26, r1
     14a:	b1 1d       	adc	r27, r1
     14c:	f2 cf       	rjmp	.-28     	; 0x132 <_Z8syncWaitm+0x1e>
     14e:	08 95       	ret

00000150 <_ZN11dynamixel_t7receiveEv.isra.1>:
		UCSR0B = (1<<TXEN0);
	}

	void receive()
	{
		PORTE = (PORTE & ~(1<<PE2))|(1<<PE3);
     150:	83 b1       	in	r24, 0x03	; 3
     152:	83 7f       	andi	r24, 0xF3	; 243
     154:	88 60       	ori	r24, 0x08	; 8
     156:	83 b9       	out	0x03, r24	; 3
		syncWait(10);
     158:	6a e0       	ldi	r22, 0x0A	; 10
     15a:	70 e0       	ldi	r23, 0x00	; 0
     15c:	80 e0       	ldi	r24, 0x00	; 0
     15e:	90 e0       	ldi	r25, 0x00	; 0
     160:	0e 94 8a 00 	call	0x114	; 0x114 <_Z8syncWaitm>
		UCSR0B = (1<<RXCIE0)|(1<<RXEN0);
     164:	80 e9       	ldi	r24, 0x90	; 144
     166:	8a b9       	out	0x0a, r24	; 10
	}
     168:	08 95       	ret

0000016a <__vector_16>:
		return time;
	}
};

ISR(TIMER0_OVF_vect)
{
     16a:	1f 92       	push	r1
     16c:	0f 92       	push	r0
     16e:	0f b6       	in	r0, 0x3f	; 63
     170:	0f 92       	push	r0
     172:	11 24       	eor	r1, r1
     174:	8f 93       	push	r24
     176:	9f 93       	push	r25
     178:	af 93       	push	r26
     17a:	bf 93       	push	r27
	g_stopwatch_tickCounter += 128;
     17c:	80 91 47 03 	lds	r24, 0x0347
     180:	90 91 48 03 	lds	r25, 0x0348
     184:	a0 91 49 03 	lds	r26, 0x0349
     188:	b0 91 4a 03 	lds	r27, 0x034A
     18c:	80 58       	subi	r24, 0x80	; 128
     18e:	9f 4f       	sbci	r25, 0xFF	; 255
     190:	af 4f       	sbci	r26, 0xFF	; 255
     192:	bf 4f       	sbci	r27, 0xFF	; 255
     194:	80 93 47 03 	sts	0x0347, r24
     198:	90 93 48 03 	sts	0x0348, r25
     19c:	a0 93 49 03 	sts	0x0349, r26
     1a0:	b0 93 4a 03 	sts	0x034A, r27
}
     1a4:	bf 91       	pop	r27
     1a6:	af 91       	pop	r26
     1a8:	9f 91       	pop	r25
     1aa:	8f 91       	pop	r24
     1ac:	0f 90       	pop	r0
     1ae:	0f be       	out	0x3f, r0	; 63
     1b0:	0f 90       	pop	r0
     1b2:	1f 90       	pop	r1
     1b4:	18 95       	reti

000001b6 <_Z4waitRKm>:

void wait(const uint32_t &time)
{
     1b6:	cf 92       	push	r12
     1b8:	df 92       	push	r13
     1ba:	ef 92       	push	r14
     1bc:	ff 92       	push	r15
     1be:	0f 93       	push	r16
     1c0:	1f 93       	push	r17
     1c2:	fc 01       	movw	r30, r24
	uint32_t time;
	bool running;
public:
	stopwatch()
	{
		offset = g_stopwatch_tickCounter + (TCNT0>>1);
     1c4:	80 91 47 03 	lds	r24, 0x0347
     1c8:	90 91 48 03 	lds	r25, 0x0348
     1cc:	a0 91 49 03 	lds	r26, 0x0349
     1d0:	b0 91 4a 03 	lds	r27, 0x034A
     1d4:	22 b7       	in	r18, 0x32	; 50
     1d6:	30 e0       	ldi	r19, 0x00	; 0
     1d8:	35 95       	asr	r19
     1da:	27 95       	ror	r18
     1dc:	a9 01       	movw	r20, r18
     1de:	66 27       	eor	r22, r22
     1e0:	57 fd       	sbrc	r21, 7
     1e2:	60 95       	com	r22
     1e4:	76 2f       	mov	r23, r22
ISR(TIMER0_OVF_vect)
{
	g_stopwatch_tickCounter += 128;
}

void wait(const uint32_t &time)
     1e6:	84 0f       	add	r24, r20
     1e8:	95 1f       	adc	r25, r21
     1ea:	a6 1f       	adc	r26, r22
     1ec:	b7 1f       	adc	r27, r23
{
	stopwatch s;
	while(time > s.getTime()){}
     1ee:	c0 80       	ld	r12, Z
     1f0:	d1 80       	ldd	r13, Z+1	; 0x01
     1f2:	e2 80       	ldd	r14, Z+2	; 0x02
     1f4:	f3 80       	ldd	r15, Z+3	; 0x03
		time = 0;
	}
	uint32_t getTime()
	{
		if(running)
			return g_stopwatch_tickCounter + (TCNT0>>1) - offset;
     1f6:	40 91 47 03 	lds	r20, 0x0347
     1fa:	50 91 48 03 	lds	r21, 0x0348
     1fe:	60 91 49 03 	lds	r22, 0x0349
     202:	70 91 4a 03 	lds	r23, 0x034A
     206:	22 b7       	in	r18, 0x32	; 50
     208:	30 e0       	ldi	r19, 0x00	; 0
     20a:	35 95       	asr	r19
     20c:	27 95       	ror	r18
     20e:	f9 01       	movw	r30, r18
     210:	8f 01       	movw	r16, r30
     212:	22 27       	eor	r18, r18
     214:	17 fd       	sbrc	r17, 7
     216:	20 95       	com	r18
     218:	32 2f       	mov	r19, r18
     21a:	04 0f       	add	r16, r20
     21c:	15 1f       	adc	r17, r21
     21e:	26 1f       	adc	r18, r22
     220:	37 1f       	adc	r19, r23
     222:	08 1b       	sub	r16, r24
     224:	19 0b       	sbc	r17, r25
     226:	2a 0b       	sbc	r18, r26
     228:	3b 0b       	sbc	r19, r27
}

void wait(const uint32_t &time)
{
	stopwatch s;
	while(time > s.getTime()){}
     22a:	0c 15       	cp	r16, r12
     22c:	1d 05       	cpc	r17, r13
     22e:	2e 05       	cpc	r18, r14
     230:	3f 05       	cpc	r19, r15
     232:	08 f3       	brcs	.-62     	; 0x1f6 <_Z4waitRKm+0x40>
}
     234:	1f 91       	pop	r17
     236:	0f 91       	pop	r16
     238:	ff 90       	pop	r15
     23a:	ef 90       	pop	r14
     23c:	df 90       	pop	r13
     23e:	cf 90       	pop	r12
     240:	08 95       	ret

00000242 <_ZN5queueIcLj96EE4pushEc>:
	{
		if((m_write == (m_read - 1))||((m_write == (size - 1))&&(m_read == 0)))
			return true;
		return false;
	}
	bool push (T data)
     242:	ac 01       	movw	r20, r24
	{
		m[m_write] = data;
     244:	fc 01       	movw	r30, r24
     246:	ee 59       	subi	r30, 0x9E	; 158
     248:	ff 4f       	sbci	r31, 0xFF	; 255
     24a:	a0 81       	ld	r26, Z
     24c:	b1 81       	ldd	r27, Z+1	; 0x01
     24e:	a8 0f       	add	r26, r24
     250:	b9 1f       	adc	r27, r25
     252:	6c 93       	st	X, r22
			return true;
		return false;
	}
	bool is_full() const
	{
		if((m_write == (m_read - 1))||((m_write == (size - 1))&&(m_read == 0)))
     254:	20 81       	ld	r18, Z
     256:	31 81       	ldd	r19, Z+1	; 0x01
     258:	dc 01       	movw	r26, r24
     25a:	a0 5a       	subi	r26, 0xA0	; 160
     25c:	bf 4f       	sbci	r27, 0xFF	; 255
     25e:	8d 91       	ld	r24, X+
     260:	9c 91       	ld	r25, X
     262:	11 97       	sbiw	r26, 0x01	; 1
     264:	01 97       	sbiw	r24, 0x01	; 1
     266:	28 17       	cp	r18, r24
     268:	39 07       	cpc	r19, r25
     26a:	51 f0       	breq	.+20     	; 0x280 <_ZN5queueIcLj96EE4pushEc+0x3e>
     26c:	80 81       	ld	r24, Z
     26e:	91 81       	ldd	r25, Z+1	; 0x01
     270:	8f 35       	cpi	r24, 0x5F	; 95
     272:	91 05       	cpc	r25, r1
     274:	89 f4       	brne	.+34     	; 0x298 <_ZN5queueIcLj96EE4pushEc+0x56>
     276:	8d 91       	ld	r24, X+
     278:	9c 91       	ld	r25, X
     27a:	11 97       	sbiw	r26, 0x01	; 1
     27c:	00 97       	sbiw	r24, 0x00	; 0
     27e:	61 f4       	brne	.+24     	; 0x298 <_ZN5queueIcLj96EE4pushEc+0x56>
		return false;
	}
	bool push (T data)
	{
		m[m_write] = data;
		if(is_full()&&!overwrite)
     280:	4c 59       	subi	r20, 0x9C	; 156
     282:	5f 4f       	sbci	r21, 0xFF	; 255
     284:	da 01       	movw	r26, r20
     286:	8c 91       	ld	r24, X
     288:	88 23       	and	r24, r24
     28a:	21 f0       	breq	.+8      	; 0x294 <_ZN5queueIcLj96EE4pushEc+0x52>
     28c:	05 c0       	rjmp	.+10     	; 0x298 <_ZN5queueIcLj96EE4pushEc+0x56>
			return false;
		if(++m_write == size)
			m_write = 0;
     28e:	11 82       	std	Z+1, r1	; 0x01
     290:	10 82       	st	Z, r1
     292:	0a c0       	rjmp	.+20     	; 0x2a8 <_ZN5queueIcLj96EE4pushEc+0x66>
	}
	bool push (T data)
	{
		m[m_write] = data;
		if(is_full()&&!overwrite)
			return false;
     294:	80 e0       	ldi	r24, 0x00	; 0
		if(++m_write == size)
			m_write = 0;
		return true;
	}
     296:	08 95       	ret
	bool push (T data)
	{
		m[m_write] = data;
		if(is_full()&&!overwrite)
			return false;
		if(++m_write == size)
     298:	80 81       	ld	r24, Z
     29a:	91 81       	ldd	r25, Z+1	; 0x01
     29c:	01 96       	adiw	r24, 0x01	; 1
     29e:	91 83       	std	Z+1, r25	; 0x01
     2a0:	80 83       	st	Z, r24
     2a2:	80 36       	cpi	r24, 0x60	; 96
     2a4:	91 05       	cpc	r25, r1
     2a6:	99 f3       	breq	.-26     	; 0x28e <_ZN5queueIcLj96EE4pushEc+0x4c>
     2a8:	81 e0       	ldi	r24, 0x01	; 1
     2aa:	08 95       	ret

000002ac <_ZN8USART1_t8sendCharEc>:
		UBRR1L = (speed&0x00FF);
		numbersSpaces = 1;
		cin_isFirst = true;
		cin_isGood = true;
	}
	void sendChar(char data)
     2ac:	1f 93       	push	r17
     2ae:	cf 93       	push	r28
     2b0:	df 93       	push	r29
     2b2:	16 2f       	mov	r17, r22
	{
		while(!m_tx.push(data)) {}
     2b4:	ec 01       	movw	r28, r24
     2b6:	cb 59       	subi	r28, 0x9B	; 155
     2b8:	df 4f       	sbci	r29, 0xFF	; 255
     2ba:	ce 01       	movw	r24, r28
     2bc:	61 2f       	mov	r22, r17
     2be:	0e 94 21 01 	call	0x242	; 0x242 <_ZN5queueIcLj96EE4pushEc>
     2c2:	88 23       	and	r24, r24
     2c4:	d1 f3       	breq	.-12     	; 0x2ba <_ZN8USART1_t8sendCharEc+0xe>
		UCSR1B |= (1<<UDRIE1);
     2c6:	80 91 9a 00 	lds	r24, 0x009A
     2ca:	80 62       	ori	r24, 0x20	; 32
     2cc:	80 93 9a 00 	sts	0x009A, r24
	}
     2d0:	df 91       	pop	r29
     2d2:	cf 91       	pop	r28
     2d4:	1f 91       	pop	r17
     2d6:	08 95       	ret

000002d8 <_ZN8USART1_t10sendNumberElh>:
	{
		for(; *str != 0; ++str)
			sendCharImediatly(*str);
	}

	void sendNumber(int32_t number, uint8_t width = 4)
     2d8:	2f 92       	push	r2
     2da:	3f 92       	push	r3
     2dc:	4f 92       	push	r4
     2de:	5f 92       	push	r5
     2e0:	6f 92       	push	r6
     2e2:	7f 92       	push	r7
     2e4:	8f 92       	push	r8
     2e6:	9f 92       	push	r9
     2e8:	af 92       	push	r10
     2ea:	bf 92       	push	r11
     2ec:	cf 92       	push	r12
     2ee:	df 92       	push	r13
     2f0:	ef 92       	push	r14
     2f2:	ff 92       	push	r15
     2f4:	0f 93       	push	r16
     2f6:	1f 93       	push	r17
     2f8:	cf 93       	push	r28
     2fa:	df 93       	push	r29
     2fc:	cd b7       	in	r28, 0x3d	; 61
     2fe:	de b7       	in	r29, 0x3e	; 62
     300:	60 97       	sbiw	r28, 0x10	; 16
     302:	0f b6       	in	r0, 0x3f	; 63
     304:	f8 94       	cli
     306:	de bf       	out	0x3e, r29	; 62
     308:	0f be       	out	0x3f, r0	; 63
     30a:	cd bf       	out	0x3d, r28	; 61
     30c:	1c 01       	movw	r2, r24
     30e:	6a 01       	movw	r12, r20
     310:	7b 01       	movw	r14, r22
     312:	12 2f       	mov	r17, r18
	{
		char buff[12];
		uint8_t buffP = 0;
		if(number == 0)
     314:	41 15       	cp	r20, r1
     316:	51 05       	cpc	r21, r1
     318:	61 05       	cpc	r22, r1
     31a:	71 05       	cpc	r23, r1
     31c:	31 f0       	breq	.+12     	; 0x32a <_ZN8USART1_t10sendNumberElh+0x52>
     31e:	0d c0       	rjmp	.+26     	; 0x33a <_ZN8USART1_t10sendNumberElh+0x62>
		{
			for(uint8_t i = 1; i < width; ++i)
				sendChar(' ');
     320:	60 e2       	ldi	r22, 0x20	; 32
     322:	0e 94 56 01 	call	0x2ac	; 0x2ac <_ZN8USART1_t8sendCharEc>
	{
		char buff[12];
		uint8_t buffP = 0;
		if(number == 0)
		{
			for(uint8_t i = 1; i < width; ++i)
     326:	0f 5f       	subi	r16, 0xFF	; 255
     328:	01 c0       	rjmp	.+2      	; 0x32c <_ZN8USART1_t10sendNumberElh+0x54>

	void sendNumber(int32_t number, uint8_t width = 4)
	{
		char buff[12];
		uint8_t buffP = 0;
		if(number == 0)
     32a:	01 e0       	ldi	r16, 0x01	; 1
		{
			for(uint8_t i = 1; i < width; ++i)
				sendChar(' ');
     32c:	c1 01       	movw	r24, r2
	{
		char buff[12];
		uint8_t buffP = 0;
		if(number == 0)
		{
			for(uint8_t i = 1; i < width; ++i)
     32e:	01 17       	cp	r16, r17
     330:	b8 f3       	brcs	.-18     	; 0x320 <_ZN8USART1_t10sendNumberElh+0x48>
				sendChar(' ');
			sendChar('0');
     332:	60 e3       	ldi	r22, 0x30	; 48
     334:	0e 94 56 01 	call	0x2ac	; 0x2ac <_ZN8USART1_t8sendCharEc>
			return;
     338:	68 c0       	rjmp	.+208    	; 0x40a <_ZN8USART1_t10sendNumberElh+0x132>
		}
		else if(number < 0)
     33a:	77 ff       	sbrs	r23, 7
     33c:	0d c0       	rjmp	.+26     	; 0x358 <_ZN8USART1_t10sendNumberElh+0x80>
		{
			buff[buffP++] = '-';
     33e:	8d e2       	ldi	r24, 0x2D	; 45
     340:	89 83       	std	Y+1, r24	; 0x01
			number = -number;
     342:	f0 94       	com	r15
     344:	e0 94       	com	r14
     346:	d0 94       	com	r13
     348:	c0 94       	com	r12
     34a:	c1 1c       	adc	r12, r1
     34c:	d1 1c       	adc	r13, r1
     34e:	e1 1c       	adc	r14, r1
     350:	f1 1c       	adc	r15, r1
			--width;
     352:	11 50       	subi	r17, 0x01	; 1
			sendChar('0');
			return;
		}
		else if(number < 0)
		{
			buff[buffP++] = '-';
     354:	01 e0       	ldi	r16, 0x01	; 1
     356:	01 c0       	rjmp	.+2      	; 0x35a <_ZN8USART1_t10sendNumberElh+0x82>
	}

	void sendNumber(int32_t number, uint8_t width = 4)
	{
		char buff[12];
		uint8_t buffP = 0;
     358:	00 e0       	ldi	r16, 0x00	; 0
			sendChar('0');
			return;
		}
		else if(number < 0)
		{
			buff[buffP++] = '-';
     35a:	8a e0       	ldi	r24, 0x0A	; 10
     35c:	90 e0       	ldi	r25, 0x00	; 0
     35e:	9e 87       	std	Y+14, r25	; 0x0e
     360:	8d 87       	std	Y+13, r24	; 0x0d
			number = -number;
			--width;
		}
		for(int32_t i = 1000000000;i >= 1; i = (i / 10))
     362:	81 2c       	mov	r8, r1
     364:	2a ec       	ldi	r18, 0xCA	; 202
     366:	92 2e       	mov	r9, r18
     368:	2a e9       	ldi	r18, 0x9A	; 154
     36a:	a2 2e       	mov	r10, r18
     36c:	2b e3       	ldi	r18, 0x3B	; 59
     36e:	b2 2e       	mov	r11, r18
		{
			if(number >= i)
			{
				buff[buffP++] = ('0' + ((number / i) % 10));
     370:	3a e0       	ldi	r19, 0x0A	; 10
     372:	43 2e       	mov	r4, r19
     374:	51 2c       	mov	r5, r1
     376:	61 2c       	mov	r6, r1
     378:	71 2c       	mov	r7, r1
			number = -number;
			--width;
		}
		for(int32_t i = 1000000000;i >= 1; i = (i / 10))
		{
			if(number >= i)
     37a:	c8 14       	cp	r12, r8
     37c:	d9 04       	cpc	r13, r9
     37e:	ea 04       	cpc	r14, r10
     380:	fb 04       	cpc	r15, r11
     382:	dc f0       	brlt	.+54     	; 0x3ba <_ZN8USART1_t10sendNumberElh+0xe2>
			{
				buff[buffP++] = ('0' + ((number / i) % 10));
     384:	e1 e0       	ldi	r30, 0x01	; 1
     386:	f0 e0       	ldi	r31, 0x00	; 0
     388:	ec 0f       	add	r30, r28
     38a:	fd 1f       	adc	r31, r29
     38c:	e0 0f       	add	r30, r16
     38e:	f1 1d       	adc	r31, r1
     390:	f8 8b       	std	Y+16, r31	; 0x10
     392:	ef 87       	std	Y+15, r30	; 0x0f
     394:	c7 01       	movw	r24, r14
     396:	b6 01       	movw	r22, r12
     398:	a5 01       	movw	r20, r10
     39a:	94 01       	movw	r18, r8
     39c:	0e 94 4c 0b 	call	0x1698	; 0x1698 <__divmodsi4>
     3a0:	ca 01       	movw	r24, r20
     3a2:	b9 01       	movw	r22, r18
     3a4:	a3 01       	movw	r20, r6
     3a6:	92 01       	movw	r18, r4
     3a8:	0e 94 4c 0b 	call	0x1698	; 0x1698 <__divmodsi4>
     3ac:	60 5d       	subi	r22, 0xD0	; 208
     3ae:	ef 85       	ldd	r30, Y+15	; 0x0f
     3b0:	f8 89       	ldd	r31, Y+16	; 0x10
     3b2:	60 83       	st	Z, r22
     3b4:	0f 5f       	subi	r16, 0xFF	; 255
				if(width != 0)
     3b6:	11 11       	cpse	r17, r1
					--width;
     3b8:	11 50       	subi	r17, 0x01	; 1
		{
			buff[buffP++] = '-';
			number = -number;
			--width;
		}
		for(int32_t i = 1000000000;i >= 1; i = (i / 10))
     3ba:	c5 01       	movw	r24, r10
     3bc:	b4 01       	movw	r22, r8
     3be:	a3 01       	movw	r20, r6
     3c0:	92 01       	movw	r18, r4
     3c2:	0e 94 4c 0b 	call	0x1698	; 0x1698 <__divmodsi4>
     3c6:	49 01       	movw	r8, r18
     3c8:	5a 01       	movw	r10, r20
     3ca:	8d 85       	ldd	r24, Y+13	; 0x0d
     3cc:	9e 85       	ldd	r25, Y+14	; 0x0e
     3ce:	01 97       	sbiw	r24, 0x01	; 1
     3d0:	9e 87       	std	Y+14, r25	; 0x0e
     3d2:	8d 87       	std	Y+13, r24	; 0x0d
     3d4:	00 97       	sbiw	r24, 0x00	; 0
     3d6:	89 f6       	brne	.-94     	; 0x37a <_ZN8USART1_t10sendNumberElh+0xa2>
     3d8:	cc 24       	eor	r12, r12
     3da:	05 c0       	rjmp	.+10     	; 0x3e6 <_ZN8USART1_t10sendNumberElh+0x10e>
				if(width != 0)
					--width;
			}
		}
		for(uint8_t i = 0; i < width; ++i)
			sendChar(' ');
     3dc:	c1 01       	movw	r24, r2
     3de:	60 e2       	ldi	r22, 0x20	; 32
     3e0:	0e 94 56 01 	call	0x2ac	; 0x2ac <_ZN8USART1_t8sendCharEc>
				buff[buffP++] = ('0' + ((number / i) % 10));
				if(width != 0)
					--width;
			}
		}
		for(uint8_t i = 0; i < width; ++i)
     3e4:	c3 94       	inc	r12
     3e6:	c1 16       	cp	r12, r17
     3e8:	c9 f7       	brne	.-14     	; 0x3dc <_ZN8USART1_t10sendNumberElh+0x104>
     3ea:	4e 01       	movw	r8, r28
     3ec:	08 94       	sec
     3ee:	81 1c       	adc	r8, r1
     3f0:	91 1c       	adc	r9, r1
     3f2:	64 01       	movw	r12, r8
     3f4:	06 c0       	rjmp	.+12     	; 0x402 <_ZN8USART1_t10sendNumberElh+0x12a>
			sendChar(' ');
		for(uint8_t i = 0; i < buffP; ++i)
			sendChar(buff[i]);
     3f6:	f6 01       	movw	r30, r12
     3f8:	61 91       	ld	r22, Z+
     3fa:	6f 01       	movw	r12, r30
     3fc:	c1 01       	movw	r24, r2
     3fe:	0e 94 56 01 	call	0x2ac	; 0x2ac <_ZN8USART1_t8sendCharEc>
					--width;
			}
		}
		for(uint8_t i = 0; i < width; ++i)
			sendChar(' ');
		for(uint8_t i = 0; i < buffP; ++i)
     402:	8c 2d       	mov	r24, r12
     404:	88 19       	sub	r24, r8
     406:	80 17       	cp	r24, r16
     408:	b0 f3       	brcs	.-20     	; 0x3f6 <_ZN8USART1_t10sendNumberElh+0x11e>
			sendChar(buff[i]);
	}
     40a:	60 96       	adiw	r28, 0x10	; 16
     40c:	0f b6       	in	r0, 0x3f	; 63
     40e:	f8 94       	cli
     410:	de bf       	out	0x3e, r29	; 62
     412:	0f be       	out	0x3f, r0	; 63
     414:	cd bf       	out	0x3d, r28	; 61
     416:	df 91       	pop	r29
     418:	cf 91       	pop	r28
     41a:	1f 91       	pop	r17
     41c:	0f 91       	pop	r16
     41e:	ff 90       	pop	r15
     420:	ef 90       	pop	r14
     422:	df 90       	pop	r13
     424:	cf 90       	pop	r12
     426:	bf 90       	pop	r11
     428:	af 90       	pop	r10
     42a:	9f 90       	pop	r9
     42c:	8f 90       	pop	r8
     42e:	7f 90       	pop	r7
     430:	6f 90       	pop	r6
     432:	5f 90       	pop	r5
     434:	4f 90       	pop	r4
     436:	3f 90       	pop	r3
     438:	2f 90       	pop	r2
     43a:	08 95       	ret

0000043c <_ZN8USART1_t4sendEPKc.constprop.19>:
		UCSR1A |= (1<<TXC1);
		UDR1 = data;
		while((UCSR1A & (1<<TXC1)) == 0){}
	}

	void send(const char * str)
     43c:	cf 93       	push	r28
     43e:	df 93       	push	r29
     440:	ec 01       	movw	r28, r24
     442:	04 c0       	rjmp	.+8      	; 0x44c <_ZN8USART1_t4sendEPKc.constprop.19+0x10>
	{
		for(; *str != 0; ++str)
			sendChar(*str);
     444:	8b e4       	ldi	r24, 0x4B	; 75
     446:	93 e0       	ldi	r25, 0x03	; 3
     448:	0e 94 56 01 	call	0x2ac	; 0x2ac <_ZN8USART1_t8sendCharEc>
		while((UCSR1A & (1<<TXC1)) == 0){}
	}

	void send(const char * str)
	{
		for(; *str != 0; ++str)
     44c:	69 91       	ld	r22, Y+
     44e:	66 23       	and	r22, r22
     450:	c9 f7       	brne	.-14     	; 0x444 <_ZN8USART1_t4sendEPKc.constprop.19+0x8>
			sendChar(*str);
	}
     452:	df 91       	pop	r29
     454:	cf 91       	pop	r28
     456:	08 95       	ret

00000458 <__vector_30>:
		cin_isGood = true;
	}
}; USART1_t pc;

ISR(USART1_RX_vect)
{
     458:	1f 92       	push	r1
     45a:	0f 92       	push	r0
     45c:	0f b6       	in	r0, 0x3f	; 63
     45e:	0f 92       	push	r0
     460:	0b b6       	in	r0, 0x3b	; 59
     462:	0f 92       	push	r0
     464:	11 24       	eor	r1, r1
     466:	2f 93       	push	r18
     468:	3f 93       	push	r19
     46a:	4f 93       	push	r20
     46c:	5f 93       	push	r21
     46e:	6f 93       	push	r22
     470:	7f 93       	push	r23
     472:	8f 93       	push	r24
     474:	9f 93       	push	r25
     476:	af 93       	push	r26
     478:	bf 93       	push	r27
     47a:	cf 93       	push	r28
     47c:	ef 93       	push	r30
     47e:	ff 93       	push	r31
	char data = UDR1;
     480:	c0 91 9c 00 	lds	r28, 0x009C
	if((UCSR1A & (1<<FE1)) == (1<<FE1))
     484:	80 91 9b 00 	lds	r24, 0x009B
     488:	84 fd       	sbrc	r24, 4
     48a:	23 c0       	rjmp	.+70     	; 0x4d2 <__vector_30+0x7a>

public:

	void data_in(char &ch)
	{
		m_rx.push(ch);
     48c:	8b e4       	ldi	r24, 0x4B	; 75
     48e:	93 e0       	ldi	r25, 0x03	; 3
     490:	6c 2f       	mov	r22, r28
     492:	0e 94 21 01 	call	0x242	; 0x242 <_ZN5queueIcLj96EE4pushEc>
	if((UCSR1A & (1<<FE1)) == (1<<FE1))
		return;
	pc.data_in(data);
	static const unsigned char bootSeq[] = { '#', '#', '#', '#' };
	static uint8_t state = 0;
	if (data == bootSeq[state])
     496:	80 91 39 04 	lds	r24, 0x0439
     49a:	e8 2f       	mov	r30, r24
     49c:	f0 e0       	ldi	r31, 0x00	; 0
     49e:	e8 56       	subi	r30, 0x68	; 104
     4a0:	fe 4f       	sbci	r31, 0xFE	; 254
     4a2:	90 81       	ld	r25, Z
     4a4:	c9 17       	cp	r28, r25
     4a6:	99 f4       	brne	.+38     	; 0x4ce <__vector_30+0x76>
	{
		if (++state == 4)
     4a8:	8f 5f       	subi	r24, 0xFF	; 255
     4aa:	80 93 39 04 	sts	0x0439, r24
     4ae:	84 30       	cpi	r24, 0x04	; 4
     4b0:	81 f4       	brne	.+32     	; 0x4d2 <__vector_30+0x7a>
		{
#ifndef DYNAMIXEL_BOOTLOADER_WDT
			UCSR1A = 0;
     4b2:	10 92 9b 00 	sts	0x009B, r1
			UCSR1B = 0;
     4b6:	10 92 9a 00 	sts	0x009A, r1
			UCSR1C = 0;
     4ba:	10 92 9d 00 	sts	0x009D, r1
			UBRR1L = 0;
     4be:	10 92 99 00 	sts	0x0099, r1
			UBRR1H = 0;
     4c2:	10 92 98 00 	sts	0x0098, r1
			DYNAMIXEL_BOOTLOADER_SEQ();
     4c6:	f0 ef       	ldi	r31, 0xF0	; 240
     4c8:	e0 e0       	ldi	r30, 0x00	; 0
     4ca:	09 94       	ijmp
     4cc:	02 c0       	rjmp	.+4      	; 0x4d2 <__vector_30+0x7a>
			WDTCR |= (1<<WDE);
#endif
		}
	}
	else
		state = 0;
     4ce:	10 92 39 04 	sts	0x0439, r1
}
     4d2:	ff 91       	pop	r31
     4d4:	ef 91       	pop	r30
     4d6:	cf 91       	pop	r28
     4d8:	bf 91       	pop	r27
     4da:	af 91       	pop	r26
     4dc:	9f 91       	pop	r25
     4de:	8f 91       	pop	r24
     4e0:	7f 91       	pop	r23
     4e2:	6f 91       	pop	r22
     4e4:	5f 91       	pop	r21
     4e6:	4f 91       	pop	r20
     4e8:	3f 91       	pop	r19
     4ea:	2f 91       	pop	r18
     4ec:	0f 90       	pop	r0
     4ee:	0b be       	out	0x3b, r0	; 59
     4f0:	0f 90       	pop	r0
     4f2:	0f be       	out	0x3f, r0	; 63
     4f4:	0f 90       	pop	r0
     4f6:	1f 90       	pop	r1
     4f8:	18 95       	reti

000004fa <_ZN5queueIcLj96EE3popEv>:
			return false;
		if(++m_write == size)
			m_write = 0;
		return true;
	}
	T pop ()
     4fa:	ac 01       	movw	r20, r24
	volatile uint16_t m_write;
public:
	volatile bool overwrite;
	bool is_empty() const
	{
		if(m_write == m_read)
     4fc:	fc 01       	movw	r30, r24
     4fe:	ee 59       	subi	r30, 0x9E	; 158
     500:	ff 4f       	sbci	r31, 0xFF	; 255
     502:	20 81       	ld	r18, Z
     504:	31 81       	ldd	r19, Z+1	; 0x01
     506:	fc 01       	movw	r30, r24
     508:	e0 5a       	subi	r30, 0xA0	; 160
     50a:	ff 4f       	sbci	r31, 0xFF	; 255
     50c:	80 81       	ld	r24, Z
     50e:	91 81       	ldd	r25, Z+1	; 0x01
     510:	28 17       	cp	r18, r24
     512:	39 07       	cpc	r19, r25
     514:	51 f4       	brne	.+20     	; 0x52a <_ZN5queueIcLj96EE3popEv+0x30>
		return true;
	}
	T pop ()
	{
		if(is_empty())
			return m[m_read];
     516:	01 90       	ld	r0, Z+
     518:	f0 81       	ld	r31, Z
     51a:	e0 2d       	mov	r30, r0
     51c:	e4 0f       	add	r30, r20
     51e:	f5 1f       	adc	r31, r21
     520:	80 81       	ld	r24, Z
     522:	08 95       	ret
		T data = m[m_read];
		if(++m_read == size)
			m_read = 0;
     524:	11 82       	std	Z+1, r1	; 0x01
     526:	10 82       	st	Z, r1
		return data;
	}
     528:	08 95       	ret
	}
	T pop ()
	{
		if(is_empty())
			return m[m_read];
		T data = m[m_read];
     52a:	a0 81       	ld	r26, Z
     52c:	b1 81       	ldd	r27, Z+1	; 0x01
     52e:	a4 0f       	add	r26, r20
     530:	b5 1f       	adc	r27, r21
     532:	8c 91       	ld	r24, X
		if(++m_read == size)
     534:	20 81       	ld	r18, Z
     536:	31 81       	ldd	r19, Z+1	; 0x01
     538:	2f 5f       	subi	r18, 0xFF	; 255
     53a:	3f 4f       	sbci	r19, 0xFF	; 255
     53c:	31 83       	std	Z+1, r19	; 0x01
     53e:	20 83       	st	Z, r18
     540:	20 36       	cpi	r18, 0x60	; 96
     542:	31 05       	cpc	r19, r1
     544:	89 f7       	brne	.-30     	; 0x528 <_ZN5queueIcLj96EE3popEv+0x2e>
     546:	ee cf       	rjmp	.-36     	; 0x524 <_ZN5queueIcLj96EE3popEv+0x2a>

00000548 <__vector_31>:
	}
	else
		state = 0;
}
ISR(USART1_UDRE_vect)
{
     548:	1f 92       	push	r1
     54a:	0f 92       	push	r0
     54c:	0f b6       	in	r0, 0x3f	; 63
     54e:	0f 92       	push	r0
     550:	0b b6       	in	r0, 0x3b	; 59
     552:	0f 92       	push	r0
     554:	11 24       	eor	r1, r1
     556:	2f 93       	push	r18
     558:	3f 93       	push	r19
     55a:	4f 93       	push	r20
     55c:	5f 93       	push	r21
     55e:	6f 93       	push	r22
     560:	7f 93       	push	r23
     562:	8f 93       	push	r24
     564:	9f 93       	push	r25
     566:	af 93       	push	r26
     568:	bf 93       	push	r27
     56a:	ef 93       	push	r30
     56c:	ff 93       	push	r31
	volatile uint16_t m_write;
public:
	volatile bool overwrite;
	bool is_empty() const
	{
		if(m_write == m_read)
     56e:	20 91 12 04 	lds	r18, 0x0412
     572:	30 91 13 04 	lds	r19, 0x0413
     576:	80 91 10 04 	lds	r24, 0x0410
     57a:	90 91 11 04 	lds	r25, 0x0411
     57e:	28 17       	cp	r18, r24
     580:	39 07       	cpc	r19, r25
     582:	31 f4       	brne	.+12     	; 0x590 <__vector_31+0x48>
{
	char data;
	if(pc.data_out(data))
		UDR1 = data;
	else
		UCSR1B &= ~(1<<UDRIE1);
     584:	80 91 9a 00 	lds	r24, 0x009A
     588:	8f 7d       	andi	r24, 0xDF	; 223
     58a:	80 93 9a 00 	sts	0x009A, r24
     58e:	06 c0       	rjmp	.+12     	; 0x59c <__vector_31+0x54>

	bool data_out(char &ch)
	{
		if(m_tx.is_empty())
			return false;
		ch = m_tx.pop();
     590:	80 eb       	ldi	r24, 0xB0	; 176
     592:	93 e0       	ldi	r25, 0x03	; 3
     594:	0e 94 7d 02 	call	0x4fa	; 0x4fa <_ZN5queueIcLj96EE3popEv>
}
ISR(USART1_UDRE_vect)
{
	char data;
	if(pc.data_out(data))
		UDR1 = data;
     598:	80 93 9c 00 	sts	0x009C, r24
	else
		UCSR1B &= ~(1<<UDRIE1);
}
     59c:	ff 91       	pop	r31
     59e:	ef 91       	pop	r30
     5a0:	bf 91       	pop	r27
     5a2:	af 91       	pop	r26
     5a4:	9f 91       	pop	r25
     5a6:	8f 91       	pop	r24
     5a8:	7f 91       	pop	r23
     5aa:	6f 91       	pop	r22
     5ac:	5f 91       	pop	r21
     5ae:	4f 91       	pop	r20
     5b0:	3f 91       	pop	r19
     5b2:	2f 91       	pop	r18
     5b4:	0f 90       	pop	r0
     5b6:	0b be       	out	0x3b, r0	; 59
     5b8:	0f 90       	pop	r0
     5ba:	0f be       	out	0x3f, r0	; 63
     5bc:	0f 90       	pop	r0
     5be:	1f 90       	pop	r1
     5c0:	18 95       	reti

000005c2 <_ZN5queueIhLj96EE4pushEh>:
	{
		if((m_write == (m_read - 1))||((m_write == (size - 1))&&(m_read == 0)))
			return true;
		return false;
	}
	bool push (T data)
     5c2:	ac 01       	movw	r20, r24
	{
		m[m_write] = data;
     5c4:	fc 01       	movw	r30, r24
     5c6:	ee 59       	subi	r30, 0x9E	; 158
     5c8:	ff 4f       	sbci	r31, 0xFF	; 255
     5ca:	a0 81       	ld	r26, Z
     5cc:	b1 81       	ldd	r27, Z+1	; 0x01
     5ce:	a8 0f       	add	r26, r24
     5d0:	b9 1f       	adc	r27, r25
     5d2:	6c 93       	st	X, r22
			return true;
		return false;
	}
	bool is_full() const
	{
		if((m_write == (m_read - 1))||((m_write == (size - 1))&&(m_read == 0)))
     5d4:	20 81       	ld	r18, Z
     5d6:	31 81       	ldd	r19, Z+1	; 0x01
     5d8:	dc 01       	movw	r26, r24
     5da:	a0 5a       	subi	r26, 0xA0	; 160
     5dc:	bf 4f       	sbci	r27, 0xFF	; 255
     5de:	8d 91       	ld	r24, X+
     5e0:	9c 91       	ld	r25, X
     5e2:	11 97       	sbiw	r26, 0x01	; 1
     5e4:	01 97       	sbiw	r24, 0x01	; 1
     5e6:	28 17       	cp	r18, r24
     5e8:	39 07       	cpc	r19, r25
     5ea:	51 f0       	breq	.+20     	; 0x600 <_ZN5queueIhLj96EE4pushEh+0x3e>
     5ec:	80 81       	ld	r24, Z
     5ee:	91 81       	ldd	r25, Z+1	; 0x01
     5f0:	8f 35       	cpi	r24, 0x5F	; 95
     5f2:	91 05       	cpc	r25, r1
     5f4:	89 f4       	brne	.+34     	; 0x618 <_ZN5queueIhLj96EE4pushEh+0x56>
     5f6:	8d 91       	ld	r24, X+
     5f8:	9c 91       	ld	r25, X
     5fa:	11 97       	sbiw	r26, 0x01	; 1
     5fc:	00 97       	sbiw	r24, 0x00	; 0
     5fe:	61 f4       	brne	.+24     	; 0x618 <_ZN5queueIhLj96EE4pushEh+0x56>
		return false;
	}
	bool push (T data)
	{
		m[m_write] = data;
		if(is_full()&&!overwrite)
     600:	4c 59       	subi	r20, 0x9C	; 156
     602:	5f 4f       	sbci	r21, 0xFF	; 255
     604:	da 01       	movw	r26, r20
     606:	8c 91       	ld	r24, X
     608:	88 23       	and	r24, r24
     60a:	21 f0       	breq	.+8      	; 0x614 <_ZN5queueIhLj96EE4pushEh+0x52>
     60c:	05 c0       	rjmp	.+10     	; 0x618 <_ZN5queueIhLj96EE4pushEh+0x56>
			return false;
		if(++m_write == size)
			m_write = 0;
     60e:	11 82       	std	Z+1, r1	; 0x01
     610:	10 82       	st	Z, r1
     612:	0a c0       	rjmp	.+20     	; 0x628 <_ZN5queueIhLj96EE4pushEh+0x66>
	}
	bool push (T data)
	{
		m[m_write] = data;
		if(is_full()&&!overwrite)
			return false;
     614:	80 e0       	ldi	r24, 0x00	; 0
		if(++m_write == size)
			m_write = 0;
		return true;
	}
     616:	08 95       	ret
	bool push (T data)
	{
		m[m_write] = data;
		if(is_full()&&!overwrite)
			return false;
		if(++m_write == size)
     618:	80 81       	ld	r24, Z
     61a:	91 81       	ldd	r25, Z+1	; 0x01
     61c:	01 96       	adiw	r24, 0x01	; 1
     61e:	91 83       	std	Z+1, r25	; 0x01
     620:	80 83       	st	Z, r24
     622:	80 36       	cpi	r24, 0x60	; 96
     624:	91 05       	cpc	r25, r1
     626:	99 f3       	breq	.-26     	; 0x60e <_ZN5queueIhLj96EE4pushEh+0x4c>
     628:	81 e0       	ldi	r24, 0x01	; 1
     62a:	08 95       	ret

0000062c <_ZN11dynamixel_t8sendCharEh>:
			return false;
		UCSR0A |= (1<<TXC0);
		return true;
	}

	void sendChar(uint8_t data)
     62c:	1f 93       	push	r17
     62e:	cf 93       	push	r28
     630:	df 93       	push	r29
     632:	16 2f       	mov	r17, r22
	{
		while(!m_tx.push(data)) {}
     634:	ec 01       	movw	r28, r24
     636:	cb 59       	subi	r28, 0x9B	; 155
     638:	df 4f       	sbci	r29, 0xFF	; 255
     63a:	ce 01       	movw	r24, r28
     63c:	61 2f       	mov	r22, r17
     63e:	0e 94 e1 02 	call	0x5c2	; 0x5c2 <_ZN5queueIhLj96EE4pushEh>
     642:	88 23       	and	r24, r24
     644:	d1 f3       	breq	.-12     	; 0x63a <_ZN11dynamixel_t8sendCharEh+0xe>
		//pc<<data<<'t';
		UCSR0B |= (1<<UDRIE0);
     646:	55 9a       	sbi	0x0a, 5	; 10
	}
     648:	df 91       	pop	r29
     64a:	cf 91       	pop	r28
     64c:	1f 91       	pop	r17
     64e:	08 95       	ret

00000650 <__vector_18>:
	}

}; dynamixel_t bus;

ISR(USART0_RX_vect)
{
     650:	1f 92       	push	r1
     652:	0f 92       	push	r0
     654:	0f b6       	in	r0, 0x3f	; 63
     656:	0f 92       	push	r0
     658:	0b b6       	in	r0, 0x3b	; 59
     65a:	0f 92       	push	r0
     65c:	11 24       	eor	r1, r1
     65e:	2f 93       	push	r18
     660:	3f 93       	push	r19
     662:	4f 93       	push	r20
     664:	5f 93       	push	r21
     666:	6f 93       	push	r22
     668:	7f 93       	push	r23
     66a:	8f 93       	push	r24
     66c:	9f 93       	push	r25
     66e:	af 93       	push	r26
     670:	bf 93       	push	r27
     672:	cf 93       	push	r28
     674:	ef 93       	push	r30
     676:	ff 93       	push	r31
	char ch = UDR0;
     678:	cc b1       	in	r28, 0x0c	; 12
	if((UCSR0A & (1<<FE0)) == (1<<FE0))
     67a:	5c 99       	sbic	0x0b, 4	; 11
     67c:	07 c0       	rjmp	.+14     	; 0x68c <__vector_18+0x3c>

public:

	void data_in(const uint8_t &ch)
	{
		while(!m_rx.push(ch)) {}
     67e:	8d e7       	ldi	r24, 0x7D	; 125
     680:	92 e0       	ldi	r25, 0x02	; 2
     682:	6c 2f       	mov	r22, r28
     684:	0e 94 e1 02 	call	0x5c2	; 0x5c2 <_ZN5queueIhLj96EE4pushEh>
     688:	88 23       	and	r24, r24
     68a:	c9 f3       	breq	.-14     	; 0x67e <__vector_18+0x2e>
{
	char ch = UDR0;
	if((UCSR0A & (1<<FE0)) == (1<<FE0))
		return;
	bus.data_in(ch);
}
     68c:	ff 91       	pop	r31
     68e:	ef 91       	pop	r30
     690:	cf 91       	pop	r28
     692:	bf 91       	pop	r27
     694:	af 91       	pop	r26
     696:	9f 91       	pop	r25
     698:	8f 91       	pop	r24
     69a:	7f 91       	pop	r23
     69c:	6f 91       	pop	r22
     69e:	5f 91       	pop	r21
     6a0:	4f 91       	pop	r20
     6a2:	3f 91       	pop	r19
     6a4:	2f 91       	pop	r18
     6a6:	0f 90       	pop	r0
     6a8:	0b be       	out	0x3b, r0	; 59
     6aa:	0f 90       	pop	r0
     6ac:	0f be       	out	0x3f, r0	; 63
     6ae:	0f 90       	pop	r0
     6b0:	1f 90       	pop	r1
     6b2:	18 95       	reti

000006b4 <_ZN5queueIhLj96EE3popEv>:
			return false;
		if(++m_write == size)
			m_write = 0;
		return true;
	}
	T pop ()
     6b4:	ac 01       	movw	r20, r24
	volatile uint16_t m_write;
public:
	volatile bool overwrite;
	bool is_empty() const
	{
		if(m_write == m_read)
     6b6:	fc 01       	movw	r30, r24
     6b8:	ee 59       	subi	r30, 0x9E	; 158
     6ba:	ff 4f       	sbci	r31, 0xFF	; 255
     6bc:	20 81       	ld	r18, Z
     6be:	31 81       	ldd	r19, Z+1	; 0x01
     6c0:	fc 01       	movw	r30, r24
     6c2:	e0 5a       	subi	r30, 0xA0	; 160
     6c4:	ff 4f       	sbci	r31, 0xFF	; 255
     6c6:	80 81       	ld	r24, Z
     6c8:	91 81       	ldd	r25, Z+1	; 0x01
     6ca:	28 17       	cp	r18, r24
     6cc:	39 07       	cpc	r19, r25
     6ce:	51 f4       	brne	.+20     	; 0x6e4 <_ZN5queueIhLj96EE3popEv+0x30>
		return true;
	}
	T pop ()
	{
		if(is_empty())
			return m[m_read];
     6d0:	01 90       	ld	r0, Z+
     6d2:	f0 81       	ld	r31, Z
     6d4:	e0 2d       	mov	r30, r0
     6d6:	e4 0f       	add	r30, r20
     6d8:	f5 1f       	adc	r31, r21
     6da:	80 81       	ld	r24, Z
     6dc:	08 95       	ret
		T data = m[m_read];
		if(++m_read == size)
			m_read = 0;
     6de:	11 82       	std	Z+1, r1	; 0x01
     6e0:	10 82       	st	Z, r1
		return data;
	}
     6e2:	08 95       	ret
	}
	T pop ()
	{
		if(is_empty())
			return m[m_read];
		T data = m[m_read];
     6e4:	a0 81       	ld	r26, Z
     6e6:	b1 81       	ldd	r27, Z+1	; 0x01
     6e8:	a4 0f       	add	r26, r20
     6ea:	b5 1f       	adc	r27, r21
     6ec:	8c 91       	ld	r24, X
		if(++m_read == size)
     6ee:	20 81       	ld	r18, Z
     6f0:	31 81       	ldd	r19, Z+1	; 0x01
     6f2:	2f 5f       	subi	r18, 0xFF	; 255
     6f4:	3f 4f       	sbci	r19, 0xFF	; 255
     6f6:	31 83       	std	Z+1, r19	; 0x01
     6f8:	20 83       	st	Z, r18
     6fa:	20 36       	cpi	r18, 0x60	; 96
     6fc:	31 05       	cpc	r19, r1
     6fe:	89 f7       	brne	.-30     	; 0x6e2 <_ZN5queueIhLj96EE3popEv+0x2e>
     700:	ee cf       	rjmp	.-36     	; 0x6de <_ZN5queueIhLj96EE3popEv+0x2a>

00000702 <_ZN11dynamixel_t4peekERh>:
	void wait()
	{
		while(!is_send()) {}
	}

	bool peek(uint8_t & data)
     702:	cf 93       	push	r28
     704:	df 93       	push	r29
     706:	eb 01       	movw	r28, r22
	volatile uint16_t m_write;
public:
	volatile bool overwrite;
	bool is_empty() const
	{
		if(m_write == m_read)
     708:	fc 01       	movw	r30, r24
     70a:	ee 59       	subi	r30, 0x9E	; 158
     70c:	ff 4f       	sbci	r31, 0xFF	; 255
     70e:	40 81       	ld	r20, Z
     710:	51 81       	ldd	r21, Z+1	; 0x01
     712:	fc 01       	movw	r30, r24
     714:	e0 5a       	subi	r30, 0xA0	; 160
     716:	ff 4f       	sbci	r31, 0xFF	; 255
     718:	20 81       	ld	r18, Z
     71a:	31 81       	ldd	r19, Z+1	; 0x01
     71c:	42 17       	cp	r20, r18
     71e:	53 07       	cpc	r21, r19
     720:	21 f4       	brne	.+8      	; 0x72a <_ZN11dynamixel_t4peekERh+0x28>
	}

	bool peek(uint8_t & data)
	{
		if(m_rx.is_empty())
			return false;
     722:	80 e0       	ldi	r24, 0x00	; 0
		data = m_rx.pop();
		return true;
	}
     724:	df 91       	pop	r29
     726:	cf 91       	pop	r28
     728:	08 95       	ret

	bool peek(uint8_t & data)
	{
		if(m_rx.is_empty())
			return false;
		data = m_rx.pop();
     72a:	0e 94 5a 03 	call	0x6b4	; 0x6b4 <_ZN5queueIhLj96EE3popEv>
     72e:	88 83       	st	Y, r24
     730:	81 e0       	ldi	r24, 0x01	; 1
     732:	f8 cf       	rjmp	.-16     	; 0x724 <_ZN11dynamixel_t4peekERh+0x22>

00000734 <_ZN11dynamixel_t3comEhhPhjhmj>:
		}
		return 0;
	}
#endif
#if 1
	int com(uint8_t ID, uint8_t instruction, uint8_t *data, uint16_t Tlength, uint8_t Rlength, uint32_t retWait, uint16_t max_time = 500)
     734:	4f 92       	push	r4
     736:	5f 92       	push	r5
     738:	6f 92       	push	r6
     73a:	7f 92       	push	r7
     73c:	8f 92       	push	r8
     73e:	9f 92       	push	r9
     740:	af 92       	push	r10
     742:	bf 92       	push	r11
     744:	cf 92       	push	r12
     746:	df 92       	push	r13
     748:	ef 92       	push	r14
     74a:	ff 92       	push	r15
     74c:	0f 93       	push	r16
     74e:	1f 93       	push	r17
     750:	cf 93       	push	r28
     752:	df 93       	push	r29
     754:	00 d0       	rcall	.+0      	; 0x756 <_ZN11dynamixel_t3comEhhPhjhmj+0x22>
     756:	cd b7       	in	r28, 0x3d	; 61
     758:	de b7       	in	r29, 0x3e	; 62
     75a:	6c 01       	movw	r12, r24
     75c:	76 2e       	mov	r7, r22
     75e:	29 01       	movw	r4, r18
     760:	6e 2c       	mov	r6, r14
	{
		uint8_t checksum = ID + Tlength + 2 + instruction;
     762:	e0 2e       	mov	r14, r16
     764:	26 2f       	mov	r18, r22
     766:	2e 5f       	subi	r18, 0xFE	; 254
     768:	24 0f       	add	r18, r20
     76a:	20 0f       	add	r18, r16
		for(uint8_t i = 0; i < Tlength; ++i)
     76c:	30 e0       	ldi	r19, 0x00	; 0
     76e:	06 c0       	rjmp	.+12     	; 0x77c <_ZN11dynamixel_t3comEhhPhjhmj+0x48>
			checksum += *(data+i);
     770:	84 0d       	add	r24, r4
     772:	95 1d       	adc	r25, r5
     774:	fc 01       	movw	r30, r24
     776:	80 81       	ld	r24, Z
     778:	28 0f       	add	r18, r24
#endif
#if 1
	int com(uint8_t ID, uint8_t instruction, uint8_t *data, uint16_t Tlength, uint8_t Rlength, uint32_t retWait, uint16_t max_time = 500)
	{
		uint8_t checksum = ID + Tlength + 2 + instruction;
		for(uint8_t i = 0; i < Tlength; ++i)
     77a:	3f 5f       	subi	r19, 0xFF	; 255
     77c:	83 2f       	mov	r24, r19
     77e:	90 e0       	ldi	r25, 0x00	; 0
     780:	80 17       	cp	r24, r16
     782:	91 07       	cpc	r25, r17
     784:	a8 f3       	brcs	.-22     	; 0x770 <_ZN11dynamixel_t3comEhhPhjhmj+0x3c>
			checksum += *(data+i);
		checksum = ~checksum;
     786:	f2 2e       	mov	r15, r18
     788:	f0 94       	com	r15
		uint8_t returned = 0;
     78a:	19 82       	std	Y+1, r1	; 0x01

//linka

	void transmit()
	{
		PORTE = (PORTE & ~(1<<PE3))|(1<<PE2);
     78c:	83 b1       	in	r24, 0x03	; 3
     78e:	83 7f       	andi	r24, 0xF3	; 243
     790:	84 60       	ori	r24, 0x04	; 4
     792:	83 b9       	out	0x03, r24	; 3
		UCSR0B = (1<<TXEN0);
     794:	88 e0       	ldi	r24, 0x08	; 8
     796:	8a b9       	out	0x0a, r24	; 10
		for(uint8_t i = 0; i < Tlength; ++i)
			checksum += *(data+i);
		checksum = ~checksum;
		uint8_t returned = 0;
		transmit();
		sendChar(0xFF);
     798:	c6 01       	movw	r24, r12
     79a:	6f ef       	ldi	r22, 0xFF	; 255
     79c:	4a 83       	std	Y+2, r20	; 0x02
     79e:	0e 94 16 03 	call	0x62c	; 0x62c <_ZN11dynamixel_t8sendCharEh>
		sendChar(0xFF);
     7a2:	c6 01       	movw	r24, r12
     7a4:	6f ef       	ldi	r22, 0xFF	; 255
     7a6:	0e 94 16 03 	call	0x62c	; 0x62c <_ZN11dynamixel_t8sendCharEh>
		sendChar(ID);
     7aa:	c6 01       	movw	r24, r12
     7ac:	67 2d       	mov	r22, r7
     7ae:	0e 94 16 03 	call	0x62c	; 0x62c <_ZN11dynamixel_t8sendCharEh>
		sendChar(Tlength + 2);
     7b2:	6e 2d       	mov	r22, r14
     7b4:	6e 5f       	subi	r22, 0xFE	; 254
     7b6:	c6 01       	movw	r24, r12
     7b8:	0e 94 16 03 	call	0x62c	; 0x62c <_ZN11dynamixel_t8sendCharEh>
		sendChar(instruction);
     7bc:	c6 01       	movw	r24, r12
     7be:	4a 81       	ldd	r20, Y+2	; 0x02
     7c0:	64 2f       	mov	r22, r20
     7c2:	0e 94 16 03 	call	0x62c	; 0x62c <_ZN11dynamixel_t8sendCharEh>
     7c6:	a4 2c       	mov	r10, r4
     7c8:	82 01       	movw	r16, r4
     7ca:	06 c0       	rjmp	.+12     	; 0x7d8 <_ZN11dynamixel_t3comEhhPhjhmj+0xa4>
	}

	void send(uint8_t * data, uint8_t length)
	{
		for(uint8_t i = 0; i < length; ++i)
			sendChar(*(data + i));
     7cc:	f8 01       	movw	r30, r16
     7ce:	61 91       	ld	r22, Z+
     7d0:	8f 01       	movw	r16, r30
     7d2:	c6 01       	movw	r24, r12
     7d4:	0e 94 16 03 	call	0x62c	; 0x62c <_ZN11dynamixel_t8sendCharEh>
		return true;
	}

	void send(uint8_t * data, uint8_t length)
	{
		for(uint8_t i = 0; i < length; ++i)
     7d8:	80 2f       	mov	r24, r16
     7da:	8a 19       	sub	r24, r10
     7dc:	8e 15       	cp	r24, r14
     7de:	b0 f3       	brcs	.-20     	; 0x7cc <_ZN11dynamixel_t3comEhhPhjhmj+0x98>
		sendChar(0xFF);
		sendChar(ID);
		sendChar(Tlength + 2);
		sendChar(instruction);
		send(data, Tlength);
		sendChar(checksum);
     7e0:	c6 01       	movw	r24, r12
     7e2:	6f 2d       	mov	r22, r15
     7e4:	0e 94 16 03 	call	0x62c	; 0x62c <_ZN11dynamixel_t8sendCharEh>
	volatile uint16_t m_write;
public:
	volatile bool overwrite;
	bool is_empty() const
	{
		if(m_write == m_read)
     7e8:	f6 01       	movw	r30, r12
     7ea:	e9 53       	subi	r30, 0x39	; 57
     7ec:	ff 4f       	sbci	r31, 0xFF	; 255
     7ee:	d6 01       	movw	r26, r12
     7f0:	ab 53       	subi	r26, 0x3B	; 59
     7f2:	bf 4f       	sbci	r27, 0xFF	; 255
     7f4:	80 81       	ld	r24, Z
     7f6:	91 81       	ldd	r25, Z+1	; 0x01
     7f8:	2d 91       	ld	r18, X+
     7fa:	3c 91       	ld	r19, X
     7fc:	11 97       	sbiw	r26, 0x01	; 1
     7fe:	82 17       	cp	r24, r18
     800:	93 07       	cpc	r25, r19
     802:	09 f0       	breq	.+2      	; 0x806 <_ZN11dynamixel_t3comEhhPhjhmj+0xd2>
     804:	7c c0       	rjmp	.+248    	; 0x8fe <_ZN11dynamixel_t3comEhhPhjhmj+0x1ca>
     806:	7d c0       	rjmp	.+250    	; 0x902 <_ZN11dynamixel_t3comEhhPhjhmj+0x1ce>
		sendChar(instruction);
		send(data, Tlength);
		sendChar(checksum);
		wait();
		receive();
		while(!peek(returned) || returned != 255) {}
     808:	c6 01       	movw	r24, r12
     80a:	be 01       	movw	r22, r28
     80c:	6f 5f       	subi	r22, 0xFF	; 255
     80e:	7f 4f       	sbci	r23, 0xFF	; 255
     810:	0e 94 81 03 	call	0x702	; 0x702 <_ZN11dynamixel_t4peekERh>
     814:	88 23       	and	r24, r24
     816:	c1 f3       	breq	.-16     	; 0x808 <_ZN11dynamixel_t3comEhhPhjhmj+0xd4>
     818:	89 81       	ldd	r24, Y+1	; 0x01
     81a:	8f 3f       	cpi	r24, 0xFF	; 255
     81c:	a9 f7       	brne	.-22     	; 0x808 <_ZN11dynamixel_t3comEhhPhjhmj+0xd4>
		//pc<<returned<<'r';
		while(!peek(returned) || returned != 255) {}
     81e:	c6 01       	movw	r24, r12
     820:	be 01       	movw	r22, r28
     822:	6f 5f       	subi	r22, 0xFF	; 255
     824:	7f 4f       	sbci	r23, 0xFF	; 255
     826:	0e 94 81 03 	call	0x702	; 0x702 <_ZN11dynamixel_t4peekERh>
     82a:	88 23       	and	r24, r24
     82c:	c1 f3       	breq	.-16     	; 0x81e <_ZN11dynamixel_t3comEhhPhjhmj+0xea>
     82e:	89 81       	ldd	r24, Y+1	; 0x01
     830:	8f 3f       	cpi	r24, 0xFF	; 255
     832:	a9 f7       	brne	.-22     	; 0x81e <_ZN11dynamixel_t3comEhhPhjhmj+0xea>
		//pc<<returned<<'r';
		while(!peek(returned) || returned !=  ID) {}
     834:	c6 01       	movw	r24, r12
     836:	be 01       	movw	r22, r28
     838:	6f 5f       	subi	r22, 0xFF	; 255
     83a:	7f 4f       	sbci	r23, 0xFF	; 255
     83c:	0e 94 81 03 	call	0x702	; 0x702 <_ZN11dynamixel_t4peekERh>
     840:	88 23       	and	r24, r24
     842:	c1 f3       	breq	.-16     	; 0x834 <_ZN11dynamixel_t3comEhhPhjhmj+0x100>
     844:	89 81       	ldd	r24, Y+1	; 0x01
     846:	87 15       	cp	r24, r7
     848:	a9 f7       	brne	.-22     	; 0x834 <_ZN11dynamixel_t3comEhhPhjhmj+0x100>
		//pc<<returned<<'r';
		while(!peek(returned)){}
     84a:	c6 01       	movw	r24, r12
     84c:	be 01       	movw	r22, r28
     84e:	6f 5f       	subi	r22, 0xFF	; 255
     850:	7f 4f       	sbci	r23, 0xFF	; 255
     852:	0e 94 81 03 	call	0x702	; 0x702 <_ZN11dynamixel_t4peekERh>
     856:	88 23       	and	r24, r24
     858:	c1 f3       	breq	.-16     	; 0x84a <_ZN11dynamixel_t3comEhhPhjhmj+0x116>
		//pc<<returned<<"re";
		uint8_t a = get(data, (returned - 1), max_time);
     85a:	09 81       	ldd	r16, Y+1	; 0x01
     85c:	10 2f       	mov	r17, r16
     85e:	11 50       	subi	r17, 0x01	; 1
     860:	52 01       	movw	r10, r4
     862:	14 c0       	rjmp	.+40     	; 0x88c <_ZN11dynamixel_t3comEhhPhjhmj+0x158>
		uint8_t received = length;
		while(length-- != 0)
		{
			while(!peek(*data))
			{
				if(++waiting == max_time)
     864:	08 94       	sec
     866:	e1 1c       	adc	r14, r1
     868:	f1 1c       	adc	r15, r1
     86a:	e8 14       	cp	r14, r8
     86c:	f9 04       	cpc	r15, r9
     86e:	21 f4       	brne	.+8      	; 0x878 <_ZN11dynamixel_t3comEhhPhjhmj+0x144>
				{
					--received;
     870:	11 50       	subi	r17, 0x01	; 1
     872:	08 c0       	rjmp	.+16     	; 0x884 <_ZN11dynamixel_t3comEhhPhjhmj+0x150>

	int get(uint8_t * data, uint8_t length, uint16_t max_time)
	{
		uint16_t waiting = 0;
		uint8_t received = length;
		while(length-- != 0)
     874:	ee 24       	eor	r14, r14
     876:	ff 24       	eor	r15, r15
		{
			while(!peek(*data))
     878:	c6 01       	movw	r24, r12
     87a:	b5 01       	movw	r22, r10
     87c:	0e 94 81 03 	call	0x702	; 0x702 <_ZN11dynamixel_t4peekERh>
     880:	88 23       	and	r24, r24
     882:	81 f3       	breq	.-32     	; 0x864 <_ZN11dynamixel_t3comEhhPhjhmj+0x130>
					//pc<<"breaked"<<endl;
					break;
				}
			}
			//pc<<*data<<"rg";
			++data;
     884:	08 94       	sec
     886:	a1 1c       	adc	r10, r1
     888:	b1 1c       	adc	r11, r1
     88a:	01 50       	subi	r16, 0x01	; 1

	int get(uint8_t * data, uint8_t length, uint16_t max_time)
	{
		uint16_t waiting = 0;
		uint8_t received = length;
		while(length-- != 0)
     88c:	01 30       	cpi	r16, 0x01	; 1
     88e:	91 f7       	brne	.-28     	; 0x874 <_ZN11dynamixel_t3comEhhPhjhmj+0x140>
		//pc<<returned<<'r';
		while(!peek(returned)){}
		//pc<<returned<<"re";
		uint8_t a = get(data, (returned - 1), max_time);
		//pc<<endl<<"a: "<<a<<Rlength<<endl;
		if(a == Rlength)
     890:	16 15       	cp	r17, r6
     892:	e9 f4       	brne	.+58     	; 0x8ce <_ZN11dynamixel_t3comEhhPhjhmj+0x19a>
		{
			checksum = ID + returned;
     894:	89 81       	ldd	r24, Y+1	; 0x01
     896:	78 0e       	add	r7, r24
			for(uint8_t i = 0; i != returned - 1; ++i)
     898:	40 e0       	ldi	r20, 0x00	; 0
     89a:	90 e0       	ldi	r25, 0x00	; 0
     89c:	01 97       	sbiw	r24, 0x01	; 1
     89e:	06 c0       	rjmp	.+12     	; 0x8ac <_ZN11dynamixel_t3comEhhPhjhmj+0x178>
				checksum += *(data+i);
     8a0:	24 0d       	add	r18, r4
     8a2:	35 1d       	adc	r19, r5
     8a4:	f9 01       	movw	r30, r18
     8a6:	20 81       	ld	r18, Z
     8a8:	72 0e       	add	r7, r18
		uint8_t a = get(data, (returned - 1), max_time);
		//pc<<endl<<"a: "<<a<<Rlength<<endl;
		if(a == Rlength)
		{
			checksum = ID + returned;
			for(uint8_t i = 0; i != returned - 1; ++i)
     8aa:	4f 5f       	subi	r20, 0xFF	; 255
     8ac:	24 2f       	mov	r18, r20
     8ae:	30 e0       	ldi	r19, 0x00	; 0
     8b0:	28 17       	cp	r18, r24
     8b2:	39 07       	cpc	r19, r25
     8b4:	a9 f7       	brne	.-22     	; 0x8a0 <_ZN11dynamixel_t3comEhhPhjhmj+0x16c>
				checksum += *(data+i);
			checksum = ~checksum;
     8b6:	70 94       	com	r7
			while(!peek(returned)){}
     8b8:	c6 01       	movw	r24, r12
     8ba:	be 01       	movw	r22, r28
     8bc:	6f 5f       	subi	r22, 0xFF	; 255
     8be:	7f 4f       	sbci	r23, 0xFF	; 255
     8c0:	0e 94 81 03 	call	0x702	; 0x702 <_ZN11dynamixel_t4peekERh>
     8c4:	88 23       	and	r24, r24
     8c6:	c1 f3       	breq	.-16     	; 0x8b8 <_ZN11dynamixel_t3comEhhPhjhmj+0x184>
			//pc<<returned<<'r'<<endl<<"checksum: "<<checksum<<endl;
			if(checksum == returned)
     8c8:	89 81       	ldd	r24, Y+1	; 0x01
     8ca:	78 16       	cp	r7, r24
     8cc:	19 f0       	breq	.+6      	; 0x8d4 <_ZN11dynamixel_t3comEhhPhjhmj+0x1a0>
				//pc<<"com return 0"<<endl;
				return 0;
			}
		}
		//pc<<endl<<"spatna delka: "<<a<<Rlength<<endl;
		return -1;
     8ce:	8f ef       	ldi	r24, 0xFF	; 255
     8d0:	9f ef       	ldi	r25, 0xFF	; 255
     8d2:	02 c0       	rjmp	.+4      	; 0x8d8 <_ZN11dynamixel_t3comEhhPhjhmj+0x1a4>
			while(!peek(returned)){}
			//pc<<returned<<'r'<<endl<<"checksum: "<<checksum<<endl;
			if(checksum == returned)
			{
				//pc<<"com return 0"<<endl;
				return 0;
     8d4:	80 e0       	ldi	r24, 0x00	; 0
     8d6:	90 e0       	ldi	r25, 0x00	; 0
			}
		}
		//pc<<endl<<"spatna delka: "<<a<<Rlength<<endl;
		return -1;
	}
     8d8:	0f 90       	pop	r0
     8da:	0f 90       	pop	r0
     8dc:	df 91       	pop	r29
     8de:	cf 91       	pop	r28
     8e0:	1f 91       	pop	r17
     8e2:	0f 91       	pop	r16
     8e4:	ff 90       	pop	r15
     8e6:	ef 90       	pop	r14
     8e8:	df 90       	pop	r13
     8ea:	cf 90       	pop	r12
     8ec:	bf 90       	pop	r11
     8ee:	af 90       	pop	r10
     8f0:	9f 90       	pop	r9
     8f2:	8f 90       	pop	r8
     8f4:	7f 90       	pop	r7
     8f6:	6f 90       	pop	r6
     8f8:	5f 90       	pop	r5
     8fa:	4f 90       	pop	r4
     8fc:	08 95       	ret
		receive();
	}

	bool is_send()
	{
		if(!m_tx.is_empty() && ((UCSR0A & (1<<TXC0)) == 0))
     8fe:	5e 9b       	sbis	0x0b, 6	; 11
     900:	79 cf       	rjmp	.-270    	; 0x7f4 <_ZN11dynamixel_t3comEhhPhjhmj+0xc0>
			return false;
		UCSR0A |= (1<<TXC0);
     902:	5e 9a       	sbi	0x0b, 6	; 11
		sendChar(Tlength + 2);
		sendChar(instruction);
		send(data, Tlength);
		sendChar(checksum);
		wait();
		receive();
     904:	0e 94 a8 00 	call	0x150	; 0x150 <_ZN11dynamixel_t7receiveEv.isra.1>
		while(!peek(returned) || returned != 255) {}
     908:	7f cf       	rjmp	.-258    	; 0x808 <_ZN11dynamixel_t3comEhhPhjhmj+0xd4>

0000090a <_ZN7motor_t8positionEv>:
	motor_t & position(const int16_t &position, const int16_t &speed)
	{
		m_error.push(bus.writeDWord(currentID, P_GOAL_POSITION_L, ((uint16_t)(position)), ((uint16_t)(speed))));
		return *this;
	}
	uint16_t position()
     90a:	6f 92       	push	r6
     90c:	7f 92       	push	r7
     90e:	8f 92       	push	r8
     910:	9f 92       	push	r9
     912:	af 92       	push	r10
     914:	bf 92       	push	r11
     916:	cf 92       	push	r12
     918:	df 92       	push	r13
     91a:	ef 92       	push	r14
     91c:	0f 93       	push	r16
     91e:	1f 93       	push	r17
     920:	cf 93       	push	r28
     922:	df 93       	push	r29
     924:	00 d0       	rcall	.+0      	; 0x926 <_ZN7motor_t8positionEv+0x1c>
     926:	0f 92       	push	r0
     928:	cd b7       	in	r28, 0x3d	; 61
     92a:	de b7       	in	r29, 0x3e	; 62
	{
		uint16_t pos;
		m_error.push(bus.readWord(currentID, P_PRESENT_POSITION_L, pos));
     92c:	3c 01       	movw	r6, r24
     92e:	08 94       	sec
     930:	61 1c       	adc	r6, r1
     932:	71 1c       	adc	r7, r1
     934:	fc 01       	movw	r30, r24
     936:	60 81       	ld	r22, Z
		data = repository[1];
		return repository[0];
	}
	int readWord(uint8_t ID, uint8_t address, uint16_t &data)
	{
		uint8_t repository[3] = {address, 2};
     938:	9e 01       	movw	r18, r28
     93a:	2f 5f       	subi	r18, 0xFF	; 255
     93c:	3f 4f       	sbci	r19, 0xFF	; 255
     93e:	83 e0       	ldi	r24, 0x03	; 3
     940:	f9 01       	movw	r30, r18
     942:	11 92       	st	Z+, r1
     944:	8a 95       	dec	r24
     946:	e9 f7       	brne	.-6      	; 0x942 <_ZN7motor_t8positionEv+0x38>
     948:	82 e0       	ldi	r24, 0x02	; 2
     94a:	8a 83       	std	Y+2, r24	; 0x02
     94c:	84 e2       	ldi	r24, 0x24	; 36
     94e:	89 83       	std	Y+1, r24	; 0x01
		repository[0] = com(ID, INST_READ, &repository[0], 2, DYNAMIXEL_RETURN!=0?3:0, DYNAMIXEL_RESPOND_TIME)==0?repository[0]:(repository[0]|(1<<7));
     950:	8d e7       	ldi	r24, 0x7D	; 125
     952:	92 e0       	ldi	r25, 0x02	; 2
     954:	42 e0       	ldi	r20, 0x02	; 2
     956:	02 e0       	ldi	r16, 0x02	; 2
     958:	10 e0       	ldi	r17, 0x00	; 0
     95a:	53 e0       	ldi	r21, 0x03	; 3
     95c:	e5 2e       	mov	r14, r21
     95e:	74 ef       	ldi	r23, 0xF4	; 244
     960:	a7 2e       	mov	r10, r23
     962:	71 e0       	ldi	r23, 0x01	; 1
     964:	b7 2e       	mov	r11, r23
     966:	c1 2c       	mov	r12, r1
     968:	d1 2c       	mov	r13, r1
     96a:	e4 ef       	ldi	r30, 0xF4	; 244
     96c:	8e 2e       	mov	r8, r30
     96e:	e1 e0       	ldi	r30, 0x01	; 1
     970:	9e 2e       	mov	r9, r30
     972:	0e 94 9a 03 	call	0x734	; 0x734 <_ZN11dynamixel_t3comEhhPhjhmj>
     976:	69 81       	ldd	r22, Y+1	; 0x01
     978:	00 97       	sbiw	r24, 0x00	; 0
     97a:	09 f0       	breq	.+2      	; 0x97e <_ZN7motor_t8positionEv+0x74>
     97c:	60 68       	ori	r22, 0x80	; 128
     97e:	69 83       	std	Y+1, r22	; 0x01
		data = repository[1] | (repository[2] << 8);
     980:	9b 81       	ldd	r25, Y+3	; 0x03
     982:	80 e0       	ldi	r24, 0x00	; 0
     984:	0a 81       	ldd	r16, Y+2	; 0x02
     986:	10 e0       	ldi	r17, 0x00	; 0
     988:	08 2b       	or	r16, r24
     98a:	19 2b       	or	r17, r25
		return *this;
	}
	uint16_t position()
	{
		uint16_t pos;
		m_error.push(bus.readWord(currentID, P_PRESENT_POSITION_L, pos));
     98c:	c3 01       	movw	r24, r6
     98e:	0e 94 e1 02 	call	0x5c2	; 0x5c2 <_ZN5queueIhLj96EE4pushEh>
		return pos;
	}
     992:	c8 01       	movw	r24, r16
     994:	0f 90       	pop	r0
     996:	0f 90       	pop	r0
     998:	0f 90       	pop	r0
     99a:	df 91       	pop	r29
     99c:	cf 91       	pop	r28
     99e:	1f 91       	pop	r17
     9a0:	0f 91       	pop	r16
     9a2:	ef 90       	pop	r14
     9a4:	df 90       	pop	r13
     9a6:	cf 90       	pop	r12
     9a8:	bf 90       	pop	r11
     9aa:	af 90       	pop	r10
     9ac:	9f 90       	pop	r9
     9ae:	8f 90       	pop	r8
     9b0:	7f 90       	pop	r7
     9b2:	6f 90       	pop	r6
     9b4:	08 95       	ret

000009b6 <_Z6pozicev>:
void mer2()
{
	pc<<"sensor :"<< sensor[101].rightDistance() <<endl;
}
void pozice()
{
     9b6:	cf 93       	push	r28
     9b8:	df 93       	push	r29
	int poz = 0;
	for(int i=5;i<12;i++)
     9ba:	c5 e0       	ldi	r28, 0x05	; 5
     9bc:	d0 e0       	ldi	r29, 0x00	; 0
     9be:	05 c0       	rjmp	.+10     	; 0x9ca <_Z6pozicev+0x14>
	{
		if(i==8)
     9c0:	c8 30       	cpi	r28, 0x08	; 8
     9c2:	d1 05       	cpc	r29, r1
     9c4:	11 f4       	brne	.+4      	; 0x9ca <_Z6pozicev+0x14>
		{
			++i;
     9c6:	c9 e0       	ldi	r28, 0x09	; 9
     9c8:	d0 e0       	ldi	r29, 0x00	; 0
		sendChar(ch);
		return *this;
	}
	USART1_t &operator << (const char *ch)
	{
		send(ch);
     9ca:	80 e0       	ldi	r24, 0x00	; 0
     9cc:	91 e0       	ldi	r25, 0x01	; 1
     9ce:	0e 94 1e 02 	call	0x43c	; 0x43c <_ZN8USART1_t4sendEPKc.constprop.19>
		sendNumber(n, numbersSpaces);
		return *this;
	}
	USART1_t &operator << (const int16_t &n)
	{
		sendNumber(n, numbersSpaces);
     9d2:	ae 01       	movw	r20, r28
     9d4:	66 27       	eor	r22, r22
     9d6:	57 fd       	sbrc	r21, 7
     9d8:	60 95       	com	r22
     9da:	76 2f       	mov	r23, r22
     9dc:	8b e4       	ldi	r24, 0x4B	; 75
     9de:	93 e0       	ldi	r25, 0x03	; 3
     9e0:	20 91 15 04 	lds	r18, 0x0415
     9e4:	0e 94 6c 01 	call	0x2d8	; 0x2d8 <_ZN8USART1_t10sendNumberElh>
		sendChar(ch);
		return *this;
	}
	USART1_t &operator << (const char *ch)
	{
		send(ch);
     9e8:	8d e0       	ldi	r24, 0x0D	; 13
     9ea:	91 e0       	ldi	r25, 0x01	; 1
     9ec:	0e 94 1e 02 	call	0x43c	; 0x43c <_ZN8USART1_t4sendEPKc.constprop.19>
		}
		
		pc<<"Motor cislo "<<i << ".  "<< motor[i].position() <<endl;
     9f0:	c0 93 17 02 	sts	0x0217, r28
     9f4:	87 e1       	ldi	r24, 0x17	; 23
     9f6:	92 e0       	ldi	r25, 0x02	; 2
     9f8:	0e 94 85 04 	call	0x90a	; 0x90a <_ZN7motor_t8positionEv>
		sendNumber(n, numbersSpaces);
		return *this;
	}
	USART1_t &operator << (const uint16_t &n)
	{
		sendNumber(n, numbersSpaces);
     9fc:	ac 01       	movw	r20, r24
     9fe:	60 e0       	ldi	r22, 0x00	; 0
     a00:	70 e0       	ldi	r23, 0x00	; 0
     a02:	8b e4       	ldi	r24, 0x4B	; 75
     a04:	93 e0       	ldi	r25, 0x03	; 3
     a06:	20 91 15 04 	lds	r18, 0x0415
     a0a:	0e 94 6c 01 	call	0x2d8	; 0x2d8 <_ZN8USART1_t10sendNumberElh>
		sendChar(ch);
		return *this;
	}
	USART1_t &operator << (const char *ch)
	{
		send(ch);
     a0e:	81 e1       	ldi	r24, 0x11	; 17
     a10:	91 e0       	ldi	r25, 0x01	; 1
     a12:	0e 94 1e 02 	call	0x43c	; 0x43c <_ZN8USART1_t4sendEPKc.constprop.19>
	pc<<"sensor :"<< sensor[101].rightDistance() <<endl;
}
void pozice()
{
	int poz = 0;
	for(int i=5;i<12;i++)
     a16:	21 96       	adiw	r28, 0x01	; 1
     a18:	cc 30       	cpi	r28, 0x0C	; 12
     a1a:	d1 05       	cpc	r29, r1
     a1c:	8c f2       	brlt	.-94     	; 0x9c0 <_Z6pozicev+0xa>
			++i;
		}
		
		pc<<"Motor cislo "<<i << ".  "<< motor[i].position() <<endl;
	}
}
     a1e:	df 91       	pop	r29
     a20:	cf 91       	pop	r28
     a22:	08 95       	ret

00000a24 <_ZN11dynamixel_t8readByteEhhRh>:
		}
		//pc<<endl<<"spatna delka: "<<a<<Rlength<<endl;
		return -1;
	}
#endif
	int readByte(uint8_t ID, uint8_t address, uint8_t &data)
     a24:	6f 92       	push	r6
     a26:	7f 92       	push	r7
     a28:	8f 92       	push	r8
     a2a:	9f 92       	push	r9
     a2c:	af 92       	push	r10
     a2e:	bf 92       	push	r11
     a30:	cf 92       	push	r12
     a32:	df 92       	push	r13
     a34:	ef 92       	push	r14
     a36:	0f 93       	push	r16
     a38:	1f 93       	push	r17
     a3a:	cf 93       	push	r28
     a3c:	df 93       	push	r29
     a3e:	00 d0       	rcall	.+0      	; 0xa40 <_ZN11dynamixel_t8readByteEhhRh+0x1c>
     a40:	cd b7       	in	r28, 0x3d	; 61
     a42:	de b7       	in	r29, 0x3e	; 62
     a44:	39 01       	movw	r6, r18
	{
		uint8_t repository[2] = {address, 1};
     a46:	21 e0       	ldi	r18, 0x01	; 1
     a48:	2a 83       	std	Y+2, r18	; 0x02
     a4a:	49 83       	std	Y+1, r20	; 0x01
		repository[0] = com(ID, INST_READ, &repository[0], 2, DYNAMIXEL_RETURN!=0?2:0, DYNAMIXEL_RESPOND_TIME)==0?repository[0]:(repository[0]|(1<<7));
     a4c:	42 e0       	ldi	r20, 0x02	; 2
     a4e:	9e 01       	movw	r18, r28
     a50:	2f 5f       	subi	r18, 0xFF	; 255
     a52:	3f 4f       	sbci	r19, 0xFF	; 255
     a54:	02 e0       	ldi	r16, 0x02	; 2
     a56:	10 e0       	ldi	r17, 0x00	; 0
     a58:	f2 e0       	ldi	r31, 0x02	; 2
     a5a:	ef 2e       	mov	r14, r31
     a5c:	a4 ef       	ldi	r26, 0xF4	; 244
     a5e:	aa 2e       	mov	r10, r26
     a60:	a1 e0       	ldi	r26, 0x01	; 1
     a62:	ba 2e       	mov	r11, r26
     a64:	c1 2c       	mov	r12, r1
     a66:	d1 2c       	mov	r13, r1
     a68:	b4 ef       	ldi	r27, 0xF4	; 244
     a6a:	8b 2e       	mov	r8, r27
     a6c:	b1 e0       	ldi	r27, 0x01	; 1
     a6e:	9b 2e       	mov	r9, r27
     a70:	0e 94 9a 03 	call	0x734	; 0x734 <_ZN11dynamixel_t3comEhhPhjhmj>
     a74:	29 81       	ldd	r18, Y+1	; 0x01
     a76:	00 97       	sbiw	r24, 0x00	; 0
     a78:	11 f4       	brne	.+4      	; 0xa7e <_ZN11dynamixel_t8readByteEhhRh+0x5a>
     a7a:	82 2f       	mov	r24, r18
     a7c:	02 c0       	rjmp	.+4      	; 0xa82 <_ZN11dynamixel_t8readByteEhhRh+0x5e>
     a7e:	82 2f       	mov	r24, r18
     a80:	80 68       	ori	r24, 0x80	; 128
		data = repository[1];
     a82:	9a 81       	ldd	r25, Y+2	; 0x02
     a84:	f3 01       	movw	r30, r6
     a86:	90 83       	st	Z, r25
		return repository[0];
	}
     a88:	90 e0       	ldi	r25, 0x00	; 0
     a8a:	0f 90       	pop	r0
     a8c:	0f 90       	pop	r0
     a8e:	df 91       	pop	r29
     a90:	cf 91       	pop	r28
     a92:	1f 91       	pop	r17
     a94:	0f 91       	pop	r16
     a96:	ef 90       	pop	r14
     a98:	df 90       	pop	r13
     a9a:	cf 90       	pop	r12
     a9c:	bf 90       	pop	r11
     a9e:	af 90       	pop	r10
     aa0:	9f 90       	pop	r9
     aa2:	8f 90       	pop	r8
     aa4:	7f 90       	pop	r7
     aa6:	6f 90       	pop	r6
     aa8:	08 95       	ret

00000aaa <_ZN8sensor_t14centerDistanceEv>:
	{
		uint8_t d;
		m_error.push(bus.readByte(currentID, P_LEFT_IR_SENSOR_DATA, d));
		return d;
	}
	uint8_t centerDistance()
     aaa:	0f 93       	push	r16
     aac:	1f 93       	push	r17
     aae:	cf 93       	push	r28
     ab0:	df 93       	push	r29
     ab2:	0f 92       	push	r0
     ab4:	cd b7       	in	r28, 0x3d	; 61
     ab6:	de b7       	in	r29, 0x3e	; 62
     ab8:	38 2f       	mov	r19, r24
     aba:	29 2f       	mov	r18, r25
	{
		uint8_t d;
		m_error.push(bus.readByte(currentID, P_CENTER_IR_SENSOR_DATA, d));
     abc:	8d e7       	ldi	r24, 0x7D	; 125
     abe:	92 e0       	ldi	r25, 0x02	; 2
     ac0:	03 2f       	mov	r16, r19
     ac2:	12 2f       	mov	r17, r18
     ac4:	f8 01       	movw	r30, r16
     ac6:	61 91       	ld	r22, Z+
     ac8:	8f 01       	movw	r16, r30
     aca:	4b e1       	ldi	r20, 0x1B	; 27
     acc:	9e 01       	movw	r18, r28
     ace:	2f 5f       	subi	r18, 0xFF	; 255
     ad0:	3f 4f       	sbci	r19, 0xFF	; 255
     ad2:	0e 94 12 05 	call	0xa24	; 0xa24 <_ZN11dynamixel_t8readByteEhhRh>
     ad6:	68 2f       	mov	r22, r24
     ad8:	c8 01       	movw	r24, r16
     ada:	0e 94 e1 02 	call	0x5c2	; 0x5c2 <_ZN5queueIhLj96EE4pushEh>
		return d;
	}
     ade:	89 81       	ldd	r24, Y+1	; 0x01
     ae0:	0f 90       	pop	r0
     ae2:	df 91       	pop	r29
     ae4:	cf 91       	pop	r28
     ae6:	1f 91       	pop	r17
     ae8:	0f 91       	pop	r16
     aea:	08 95       	ret

00000aec <_ZN8sensor_t13rightDistanceEv>:
	uint8_t rightDistance()
     aec:	0f 93       	push	r16
     aee:	1f 93       	push	r17
     af0:	cf 93       	push	r28
     af2:	df 93       	push	r29
     af4:	0f 92       	push	r0
     af6:	cd b7       	in	r28, 0x3d	; 61
     af8:	de b7       	in	r29, 0x3e	; 62
     afa:	38 2f       	mov	r19, r24
     afc:	29 2f       	mov	r18, r25
	{
		uint8_t d;
		m_error.push(bus.readByte(currentID, P_RIGHT_IR_SENSOR_DATA, d));
     afe:	8d e7       	ldi	r24, 0x7D	; 125
     b00:	92 e0       	ldi	r25, 0x02	; 2
     b02:	03 2f       	mov	r16, r19
     b04:	12 2f       	mov	r17, r18
     b06:	f8 01       	movw	r30, r16
     b08:	61 91       	ld	r22, Z+
     b0a:	8f 01       	movw	r16, r30
     b0c:	4c e1       	ldi	r20, 0x1C	; 28
     b0e:	9e 01       	movw	r18, r28
     b10:	2f 5f       	subi	r18, 0xFF	; 255
     b12:	3f 4f       	sbci	r19, 0xFF	; 255
     b14:	0e 94 12 05 	call	0xa24	; 0xa24 <_ZN11dynamixel_t8readByteEhhRh>
     b18:	68 2f       	mov	r22, r24
     b1a:	c8 01       	movw	r24, r16
     b1c:	0e 94 e1 02 	call	0x5c2	; 0x5c2 <_ZN5queueIhLj96EE4pushEh>
		return d;
	}
     b20:	89 81       	ldd	r24, Y+1	; 0x01
     b22:	0f 90       	pop	r0
     b24:	df 91       	pop	r29
     b26:	cf 91       	pop	r28
     b28:	1f 91       	pop	r17
     b2a:	0f 91       	pop	r16
     b2c:	08 95       	ret

00000b2e <_Z4mer2v>:
		sendChar(ch);
		return *this;
	}
	USART1_t &operator << (const char *ch)
	{
		send(ch);
     b2e:	84 e1       	ldi	r24, 0x14	; 20
     b30:	91 e0       	ldi	r25, 0x01	; 1
     b32:	0e 94 1e 02 	call	0x43c	; 0x43c <_ZN8USART1_t4sendEPKc.constprop.19>
		currentID = 100;
	}

	sensor_t &operator [] (const uint8_t &id)
	{
		currentID = id;
     b36:	85 e6       	ldi	r24, 0x65	; 101
     b38:	80 93 b1 01 	sts	0x01B1, r24
	//pc<<c0<<","<<s0<<","<<c1<<","<<s1<<","<<c2<<","<<s2<<","<<c3<<","<<s3;
}

void mer2()
{
	pc<<"sensor :"<< sensor[101].rightDistance() <<endl;
     b3c:	81 eb       	ldi	r24, 0xB1	; 177
     b3e:	91 e0       	ldi	r25, 0x01	; 1
     b40:	0e 94 76 05 	call	0xaec	; 0xaec <_ZN8sensor_t13rightDistanceEv>
		sendNumber(n, numbersSpaces);
		return *this;
	}
	USART1_t &operator << (const uint8_t &n)
	{
		sendNumber(n, numbersSpaces);
     b44:	48 2f       	mov	r20, r24
     b46:	50 e0       	ldi	r21, 0x00	; 0
     b48:	60 e0       	ldi	r22, 0x00	; 0
     b4a:	70 e0       	ldi	r23, 0x00	; 0
     b4c:	8b e4       	ldi	r24, 0x4B	; 75
     b4e:	93 e0       	ldi	r25, 0x03	; 3
     b50:	20 91 15 04 	lds	r18, 0x0415
     b54:	0e 94 6c 01 	call	0x2d8	; 0x2d8 <_ZN8USART1_t10sendNumberElh>
		sendChar(ch);
		return *this;
	}
	USART1_t &operator << (const char *ch)
	{
		send(ch);
     b58:	81 e1       	ldi	r24, 0x11	; 17
     b5a:	91 e0       	ldi	r25, 0x01	; 1
     b5c:	0e 94 1e 02 	call	0x43c	; 0x43c <_ZN8USART1_t4sendEPKc.constprop.19>
}
     b60:	08 95       	ret

00000b62 <_ZN8sensor_t12leftDistanceEv>:
	}
	uint8_t error()
	{
		return m_error.pop();
	}
	uint8_t leftDistance()
     b62:	0f 93       	push	r16
     b64:	1f 93       	push	r17
     b66:	cf 93       	push	r28
     b68:	df 93       	push	r29
     b6a:	0f 92       	push	r0
     b6c:	cd b7       	in	r28, 0x3d	; 61
     b6e:	de b7       	in	r29, 0x3e	; 62
     b70:	38 2f       	mov	r19, r24
     b72:	29 2f       	mov	r18, r25
	{
		uint8_t d;
		m_error.push(bus.readByte(currentID, P_LEFT_IR_SENSOR_DATA, d));
     b74:	8d e7       	ldi	r24, 0x7D	; 125
     b76:	92 e0       	ldi	r25, 0x02	; 2
     b78:	03 2f       	mov	r16, r19
     b7a:	12 2f       	mov	r17, r18
     b7c:	f8 01       	movw	r30, r16
     b7e:	61 91       	ld	r22, Z+
     b80:	8f 01       	movw	r16, r30
     b82:	4a e1       	ldi	r20, 0x1A	; 26
     b84:	9e 01       	movw	r18, r28
     b86:	2f 5f       	subi	r18, 0xFF	; 255
     b88:	3f 4f       	sbci	r19, 0xFF	; 255
     b8a:	0e 94 12 05 	call	0xa24	; 0xa24 <_ZN11dynamixel_t8readByteEhhRh>
     b8e:	68 2f       	mov	r22, r24
     b90:	c8 01       	movw	r24, r16
     b92:	0e 94 e1 02 	call	0x5c2	; 0x5c2 <_ZN5queueIhLj96EE4pushEh>
		return d;
	}
     b96:	89 81       	ldd	r24, Y+1	; 0x01
     b98:	0f 90       	pop	r0
     b9a:	df 91       	pop	r29
     b9c:	cf 91       	pop	r28
     b9e:	1f 91       	pop	r17
     ba0:	0f 91       	pop	r16
     ba2:	08 95       	ret

00000ba4 <_Z3merv>:
	wait(1500000);
	stop();*/
}
int c0, s0, c1,r1, s1, c2, s2, c3, s3;
void mer()
{
     ba4:	1f 93       	push	r17
     ba6:	cf 93       	push	r28
     ba8:	df 93       	push	r29
		currentID = 100;
	}

	sensor_t &operator [] (const uint8_t &id)
	{
		currentID = id;
     baa:	c1 eb       	ldi	r28, 0xB1	; 177
     bac:	d1 e0       	ldi	r29, 0x01	; 1
     bae:	14 e6       	ldi	r17, 0x64	; 100
     bb0:	10 93 b1 01 	sts	0x01B1, r17
	c0 = sensor[100].centerDistance();
     bb4:	ce 01       	movw	r24, r28
     bb6:	0e 94 55 05 	call	0xaaa	; 0xaaa <_ZN8sensor_t14centerDistanceEv>
     bba:	80 93 ac 01 	sts	0x01AC, r24
     bbe:	10 92 ad 01 	sts	0x01AD, r1
     bc2:	10 93 b1 01 	sts	0x01B1, r17
	s0 = sensor[100].rightDistance();
     bc6:	ce 01       	movw	r24, r28
     bc8:	0e 94 76 05 	call	0xaec	; 0xaec <_ZN8sensor_t13rightDistanceEv>
     bcc:	80 93 aa 01 	sts	0x01AA, r24
     bd0:	10 92 ab 01 	sts	0x01AB, r1
     bd4:	15 e6       	ldi	r17, 0x65	; 101
     bd6:	10 93 b1 01 	sts	0x01B1, r17
	c1 = sensor[101].centerDistance();
     bda:	ce 01       	movw	r24, r28
     bdc:	0e 94 55 05 	call	0xaaa	; 0xaaa <_ZN8sensor_t14centerDistanceEv>
     be0:	80 93 a8 01 	sts	0x01A8, r24
     be4:	10 92 a9 01 	sts	0x01A9, r1
     be8:	10 93 b1 01 	sts	0x01B1, r17
	r1 = sensor[101].rightDistance();
     bec:	ce 01       	movw	r24, r28
     bee:	0e 94 76 05 	call	0xaec	; 0xaec <_ZN8sensor_t13rightDistanceEv>
     bf2:	80 93 a6 01 	sts	0x01A6, r24
     bf6:	10 92 a7 01 	sts	0x01A7, r1
     bfa:	10 93 b1 01 	sts	0x01B1, r17
	s1 = sensor[101].leftDistance();
     bfe:	ce 01       	movw	r24, r28
     c00:	0e 94 b1 05 	call	0xb62	; 0xb62 <_ZN8sensor_t12leftDistanceEv>
     c04:	80 93 a4 01 	sts	0x01A4, r24
     c08:	10 92 a5 01 	sts	0x01A5, r1
     c0c:	16 e6       	ldi	r17, 0x66	; 102
     c0e:	10 93 b1 01 	sts	0x01B1, r17
	c2 = sensor[102].centerDistance();
     c12:	ce 01       	movw	r24, r28
     c14:	0e 94 55 05 	call	0xaaa	; 0xaaa <_ZN8sensor_t14centerDistanceEv>
     c18:	80 93 a2 01 	sts	0x01A2, r24
     c1c:	10 92 a3 01 	sts	0x01A3, r1
     c20:	10 93 b1 01 	sts	0x01B1, r17
	s2 = sensor[102].rightDistance();
     c24:	ce 01       	movw	r24, r28
     c26:	0e 94 76 05 	call	0xaec	; 0xaec <_ZN8sensor_t13rightDistanceEv>
     c2a:	80 93 a0 01 	sts	0x01A0, r24
     c2e:	10 92 a1 01 	sts	0x01A1, r1
     c32:	17 e6       	ldi	r17, 0x67	; 103
     c34:	10 93 b1 01 	sts	0x01B1, r17
	c3 = sensor[103].centerDistance();
     c38:	ce 01       	movw	r24, r28
     c3a:	0e 94 55 05 	call	0xaaa	; 0xaaa <_ZN8sensor_t14centerDistanceEv>
     c3e:	80 93 9e 01 	sts	0x019E, r24
     c42:	10 92 9f 01 	sts	0x019F, r1
     c46:	10 93 b1 01 	sts	0x01B1, r17
	s3 = sensor[103].leftDistance();
     c4a:	ce 01       	movw	r24, r28
     c4c:	0e 94 b1 05 	call	0xb62	; 0xb62 <_ZN8sensor_t12leftDistanceEv>
     c50:	80 93 9c 01 	sts	0x019C, r24
     c54:	10 92 9d 01 	sts	0x019D, r1
	//pc<<c0<<","<<s0<<","<<c1<<","<<s1<<","<<c2<<","<<s2<<","<<c3<<","<<s3;
}
     c58:	df 91       	pop	r29
     c5a:	cf 91       	pop	r28
     c5c:	1f 91       	pop	r17
     c5e:	08 95       	ret

00000c60 <_Z5cekejv>:
#include "bioloid_v2.2.h"
#include <avr/delay.h>
void cekej()
{
     c60:	1f 93       	push	r17
     c62:	cf 93       	push	r28
     c64:	df 93       	push	r29
     c66:	0f 92       	push	r0
     c68:	cd b7       	in	r28, 0x3d	; 61
     c6a:	de b7       	in	r29, 0x3e	; 62
	#else
		//round up by default
		__ticks_dc = (uint32_t)(ceil(fabs(__tmp)));
	#endif

	__builtin_avr_delay_cycles(__ticks_dc);
     c6c:	8f ef       	ldi	r24, 0xFF	; 255
     c6e:	9c e4       	ldi	r25, 0x4C	; 76
     c70:	a8 e0       	ldi	r26, 0x08	; 8
     c72:	81 50       	subi	r24, 0x01	; 1
     c74:	90 40       	sbci	r25, 0x00	; 0
     c76:	a0 40       	sbci	r26, 0x00	; 0
     c78:	e1 f7       	brne	.-8      	; 0xc72 <_Z5cekejv+0x12>
     c7a:	00 c0       	rjmp	.+0      	; 0xc7c <_Z5cekejv+0x1c>
     c7c:	00 00       	nop
	uint8_t icekej=5;
     c7e:	15 e0       	ldi	r17, 0x05	; 5
     c80:	01 c0       	rjmp	.+2      	; 0xc84 <_Z5cekejv+0x24>
		_delay_ms(170);
		if (motor[icekej].present_speed()==0)	
		{	
			if (icekej==7)
			{
				icekej=9;
     c82:	19 e0       	ldi	r17, 0x09	; 9
     c84:	8f ef       	ldi	r24, 0xFF	; 255
     c86:	9c e4       	ldi	r25, 0x4C	; 76
     c88:	a8 e0       	ldi	r26, 0x08	; 8
     c8a:	81 50       	subi	r24, 0x01	; 1
     c8c:	90 40       	sbci	r25, 0x00	; 0
     c8e:	a0 40       	sbci	r26, 0x00	; 0
     c90:	e1 f7       	brne	.-8      	; 0xc8a <_Z5cekejv+0x2a>
     c92:	00 c0       	rjmp	.+0      	; 0xc94 <_Z5cekejv+0x34>
     c94:	00 00       	nop
		m_error.overwrite = true;
	}

	motor_t &operator [] (const uint8_t &id)
	{
		currentID = id;
     c96:	10 93 17 02 	sts	0x0217, r17
	}
	//_________________________________________________________________________________________________________
	uint8_t present_speed()
	{
		uint8_t sped;
		m_error.push(bus.readByte(currentID, P_PRESENT_SPEED_L, sped));
     c9a:	8d e7       	ldi	r24, 0x7D	; 125
     c9c:	92 e0       	ldi	r25, 0x02	; 2
     c9e:	61 2f       	mov	r22, r17
     ca0:	46 e2       	ldi	r20, 0x26	; 38
     ca2:	9e 01       	movw	r18, r28
     ca4:	2f 5f       	subi	r18, 0xFF	; 255
     ca6:	3f 4f       	sbci	r19, 0xFF	; 255
     ca8:	0e 94 12 05 	call	0xa24	; 0xa24 <_ZN11dynamixel_t8readByteEhhRh>
     cac:	68 2f       	mov	r22, r24
     cae:	88 e1       	ldi	r24, 0x18	; 24
     cb0:	92 e0       	ldi	r25, 0x02	; 2
     cb2:	0e 94 e1 02 	call	0x5c2	; 0x5c2 <_ZN5queueIhLj96EE4pushEh>
	uint8_t icekej=5;
	_delay_ms(170);
	while(icekej!=12)
	{
		_delay_ms(170);
		if (motor[icekej].present_speed()==0)	
     cb6:	89 81       	ldd	r24, Y+1	; 0x01
     cb8:	88 23       	and	r24, r24
     cba:	19 f4       	brne	.+6      	; 0xcc2 <_Z5cekejv+0x62>
		{	
			if (icekej==7)
     cbc:	17 30       	cpi	r17, 0x07	; 7
     cbe:	09 f3       	breq	.-62     	; 0xc82 <_Z5cekejv+0x22>
			{
				icekej=9;
			} 
			else
			{
				icekej++;
     cc0:	1f 5f       	subi	r17, 0xFF	; 255
#include <avr/delay.h>
void cekej()
{
	uint8_t icekej=5;
	_delay_ms(170);
	while(icekej!=12)
     cc2:	1c 30       	cpi	r17, 0x0C	; 12
     cc4:	f9 f6       	brne	.-66     	; 0xc84 <_Z5cekejv+0x24>
			{
				icekej++;
			}
		}
	}	
}
     cc6:	0f 90       	pop	r0
     cc8:	df 91       	pop	r29
     cca:	cf 91       	pop	r28
     ccc:	1f 91       	pop	r17
     cce:	08 95       	ret

00000cd0 <_ZN11dynamixel_t9writeWordEhhj>:
	int writeByte(uint8_t ID, uint8_t address, uint8_t data)
	{
		uint8_t repository[2] = {address, data};
		return com(ID, INST_WRITE, &repository[0], 2, DYNAMIXEL_RETURN==2?1:0, DYNAMIXEL_RESPOND_TIME)==0?repository[0]:(repository[0]|(1<<7));
	}
	int writeWord(uint8_t ID, uint8_t address, uint16_t data)
     cd0:	8f 92       	push	r8
     cd2:	9f 92       	push	r9
     cd4:	af 92       	push	r10
     cd6:	bf 92       	push	r11
     cd8:	cf 92       	push	r12
     cda:	df 92       	push	r13
     cdc:	ef 92       	push	r14
     cde:	0f 93       	push	r16
     ce0:	1f 93       	push	r17
     ce2:	cf 93       	push	r28
     ce4:	df 93       	push	r29
     ce6:	00 d0       	rcall	.+0      	; 0xce8 <_ZN11dynamixel_t9writeWordEhhj+0x18>
     ce8:	0f 92       	push	r0
     cea:	cd b7       	in	r28, 0x3d	; 61
     cec:	de b7       	in	r29, 0x3e	; 62
	{
		uint8_t repository[3] = {address, (data & 0x00FF), (data & 0xFF00) >> 8};
     cee:	49 83       	std	Y+1, r20	; 0x01
     cf0:	2a 83       	std	Y+2, r18	; 0x02
     cf2:	3b 83       	std	Y+3, r19	; 0x03
		return com(ID, INST_WRITE, &repository[0], 3, DYNAMIXEL_RETURN==2?1:0, DYNAMIXEL_RESPOND_TIME)==0?repository[0]:(repository[0]|(1<<7));
     cf4:	43 e0       	ldi	r20, 0x03	; 3
     cf6:	9e 01       	movw	r18, r28
     cf8:	2f 5f       	subi	r18, 0xFF	; 255
     cfa:	3f 4f       	sbci	r19, 0xFF	; 255
     cfc:	03 e0       	ldi	r16, 0x03	; 3
     cfe:	10 e0       	ldi	r17, 0x00	; 0
     d00:	ee 24       	eor	r14, r14
     d02:	e3 94       	inc	r14
     d04:	54 ef       	ldi	r21, 0xF4	; 244
     d06:	a5 2e       	mov	r10, r21
     d08:	51 e0       	ldi	r21, 0x01	; 1
     d0a:	b5 2e       	mov	r11, r21
     d0c:	c1 2c       	mov	r12, r1
     d0e:	d1 2c       	mov	r13, r1
     d10:	74 ef       	ldi	r23, 0xF4	; 244
     d12:	87 2e       	mov	r8, r23
     d14:	71 e0       	ldi	r23, 0x01	; 1
     d16:	97 2e       	mov	r9, r23
     d18:	0e 94 9a 03 	call	0x734	; 0x734 <_ZN11dynamixel_t3comEhhPhjhmj>
     d1c:	29 81       	ldd	r18, Y+1	; 0x01
     d1e:	00 97       	sbiw	r24, 0x00	; 0
     d20:	11 f4       	brne	.+4      	; 0xd26 <_ZN11dynamixel_t9writeWordEhhj+0x56>
     d22:	82 2f       	mov	r24, r18
     d24:	02 c0       	rjmp	.+4      	; 0xd2a <_ZN11dynamixel_t9writeWordEhhj+0x5a>
     d26:	82 2f       	mov	r24, r18
     d28:	80 68       	ori	r24, 0x80	; 128
	}
     d2a:	90 e0       	ldi	r25, 0x00	; 0
     d2c:	0f 90       	pop	r0
     d2e:	0f 90       	pop	r0
     d30:	0f 90       	pop	r0
     d32:	df 91       	pop	r29
     d34:	cf 91       	pop	r28
     d36:	1f 91       	pop	r17
     d38:	0f 91       	pop	r16
     d3a:	ef 90       	pop	r14
     d3c:	df 90       	pop	r13
     d3e:	cf 90       	pop	r12
     d40:	bf 90       	pop	r11
     d42:	af 90       	pop	r10
     d44:	9f 90       	pop	r9
     d46:	8f 90       	pop	r8
     d48:	08 95       	ret

00000d4a <_Z5zapniv>:
		}
		motor[i].torqueLimit(0);
	}
}
void zapni()
{
     d4a:	cf 93       	push	r28
     d4c:	df 93       	push	r29
	for(int i=5;i<12;i++)
     d4e:	c5 e0       	ldi	r28, 0x05	; 5
     d50:	d0 e0       	ldi	r29, 0x00	; 0
	{
		if(i==8)
     d52:	c8 30       	cpi	r28, 0x08	; 8
     d54:	d1 05       	cpc	r29, r1
     d56:	11 f4       	brne	.+4      	; 0xd5c <_Z5zapniv+0x12>
		{
			i=9;
     d58:	c9 e0       	ldi	r28, 0x09	; 9
     d5a:	d0 e0       	ldi	r29, 0x00	; 0
		m_error.overwrite = true;
	}

	motor_t &operator [] (const uint8_t &id)
	{
		currentID = id;
     d5c:	c0 93 17 02 	sts	0x0217, r28
		m_error.push(bus.writeByte(currentID, P_TORQUE_LIMIT_L, limit));
		return *this;
	}
	motor_t & torqueLimit(const int16_t &limit = 1023)
	{
		m_error.push(bus.writeWord(currentID, P_TORQUE_LIMIT_L, ((uint16_t)(limit))));
     d60:	8d e7       	ldi	r24, 0x7D	; 125
     d62:	92 e0       	ldi	r25, 0x02	; 2
     d64:	6c 2f       	mov	r22, r28
     d66:	42 e2       	ldi	r20, 0x22	; 34
     d68:	2f ef       	ldi	r18, 0xFF	; 255
     d6a:	33 e0       	ldi	r19, 0x03	; 3
     d6c:	0e 94 68 06 	call	0xcd0	; 0xcd0 <_ZN11dynamixel_t9writeWordEhhj>
     d70:	68 2f       	mov	r22, r24
     d72:	88 e1       	ldi	r24, 0x18	; 24
     d74:	92 e0       	ldi	r25, 0x02	; 2
     d76:	0e 94 e1 02 	call	0x5c2	; 0x5c2 <_ZN5queueIhLj96EE4pushEh>
		motor[i].torqueLimit(0);
	}
}
void zapni()
{
	for(int i=5;i<12;i++)
     d7a:	21 96       	adiw	r28, 0x01	; 1
     d7c:	cc 30       	cpi	r28, 0x0C	; 12
     d7e:	d1 05       	cpc	r29, r1
     d80:	44 f3       	brlt	.-48     	; 0xd52 <_Z5zapniv+0x8>
		{
			i=9;
		}
		motor[i].torqueLimit(1023);
	}
}
     d82:	df 91       	pop	r29
     d84:	cf 91       	pop	r28
     d86:	08 95       	ret

00000d88 <_Z5vypniv>:
		
		pc<<"Motor cislo "<<i << ".  "<< motor[i].position() <<endl;
	}
}
void vypni()
{
     d88:	cf 93       	push	r28
     d8a:	df 93       	push	r29
	for(int i=5;i<12;i++)
     d8c:	c5 e0       	ldi	r28, 0x05	; 5
     d8e:	d0 e0       	ldi	r29, 0x00	; 0
	{
		if(i==8)
     d90:	c8 30       	cpi	r28, 0x08	; 8
     d92:	d1 05       	cpc	r29, r1
     d94:	11 f4       	brne	.+4      	; 0xd9a <_Z5vypniv+0x12>
		{
			i=9;
     d96:	c9 e0       	ldi	r28, 0x09	; 9
     d98:	d0 e0       	ldi	r29, 0x00	; 0
		m_error.overwrite = true;
	}

	motor_t &operator [] (const uint8_t &id)
	{
		currentID = id;
     d9a:	c0 93 17 02 	sts	0x0217, r28
		m_error.push(bus.writeByte(currentID, P_TORQUE_LIMIT_L, limit));
		return *this;
	}
	motor_t & torqueLimit(const int16_t &limit = 1023)
	{
		m_error.push(bus.writeWord(currentID, P_TORQUE_LIMIT_L, ((uint16_t)(limit))));
     d9e:	8d e7       	ldi	r24, 0x7D	; 125
     da0:	92 e0       	ldi	r25, 0x02	; 2
     da2:	6c 2f       	mov	r22, r28
     da4:	42 e2       	ldi	r20, 0x22	; 34
     da6:	20 e0       	ldi	r18, 0x00	; 0
     da8:	30 e0       	ldi	r19, 0x00	; 0
     daa:	0e 94 68 06 	call	0xcd0	; 0xcd0 <_ZN11dynamixel_t9writeWordEhhj>
     dae:	68 2f       	mov	r22, r24
     db0:	88 e1       	ldi	r24, 0x18	; 24
     db2:	92 e0       	ldi	r25, 0x02	; 2
     db4:	0e 94 e1 02 	call	0x5c2	; 0x5c2 <_ZN5queueIhLj96EE4pushEh>
		pc<<"Motor cislo "<<i << ".  "<< motor[i].position() <<endl;
	}
}
void vypni()
{
	for(int i=5;i<12;i++)
     db8:	21 96       	adiw	r28, 0x01	; 1
     dba:	cc 30       	cpi	r28, 0x0C	; 12
     dbc:	d1 05       	cpc	r29, r1
     dbe:	44 f3       	brlt	.-48     	; 0xd90 <_Z5vypniv+0x8>
		{
			i=9;
		}
		motor[i].torqueLimit(0);
	}
}
     dc0:	df 91       	pop	r29
     dc2:	cf 91       	pop	r28
     dc4:	08 95       	ret

00000dc6 <_ZN7motor_t5speedERKi.isra.17.constprop.18>:
	motor_t & speed(const uint16_t &speed = 256)
	{
		m_error.push(bus.writeWord(currentID, P_GOAL_SPEED_L, speed));
		return *this;
	}
	motor_t & speed(const int16_t &speed = 256)
     dc6:	cf 93       	push	r28
     dc8:	df 93       	push	r29
     dca:	9c 01       	movw	r18, r24
	{
		m_error.push(bus.writeWord(currentID, P_GOAL_SPEED_L, ((uint16_t)(speed))));
     dcc:	c7 e1       	ldi	r28, 0x17	; 23
     dce:	d2 e0       	ldi	r29, 0x02	; 2
     dd0:	8d e7       	ldi	r24, 0x7D	; 125
     dd2:	92 e0       	ldi	r25, 0x02	; 2
     dd4:	60 91 17 02 	lds	r22, 0x0217
     dd8:	40 e2       	ldi	r20, 0x20	; 32
     dda:	0e 94 68 06 	call	0xcd0	; 0xcd0 <_ZN11dynamixel_t9writeWordEhhj>
     dde:	68 2f       	mov	r22, r24
     de0:	ce 01       	movw	r24, r28
     de2:	01 96       	adiw	r24, 0x01	; 1
     de4:	0e 94 e1 02 	call	0x5c2	; 0x5c2 <_ZN5queueIhLj96EE4pushEh>
		return *this;
	}
     de8:	ce 01       	movw	r24, r28
     dea:	df 91       	pop	r29
     dec:	cf 91       	pop	r28
     dee:	08 95       	ret

00000df0 <_Z7dopreduv>:
		m_error.overwrite = true;
	}

	motor_t &operator [] (const uint8_t &id)
	{
		currentID = id;
     df0:	81 e0       	ldi	r24, 0x01	; 1
     df2:	80 93 17 02 	sts	0x0217, r24
	}	
}

void dopredu()
{
	motor[1].speed(1023);
     df6:	8f ef       	ldi	r24, 0xFF	; 255
     df8:	93 e0       	ldi	r25, 0x03	; 3
     dfa:	0e 94 e3 06 	call	0xdc6	; 0xdc6 <_ZN7motor_t5speedERKi.isra.17.constprop.18>
     dfe:	82 e0       	ldi	r24, 0x02	; 2
     e00:	80 93 17 02 	sts	0x0217, r24
	motor[2].speed(1023);
     e04:	8f ef       	ldi	r24, 0xFF	; 255
     e06:	93 e0       	ldi	r25, 0x03	; 3
     e08:	0e 94 e3 06 	call	0xdc6	; 0xdc6 <_ZN7motor_t5speedERKi.isra.17.constprop.18>
     e0c:	83 e0       	ldi	r24, 0x03	; 3
     e0e:	80 93 17 02 	sts	0x0217, r24
	motor[3].speed(1023+1024);
     e12:	8f ef       	ldi	r24, 0xFF	; 255
     e14:	97 e0       	ldi	r25, 0x07	; 7
     e16:	0e 94 e3 06 	call	0xdc6	; 0xdc6 <_ZN7motor_t5speedERKi.isra.17.constprop.18>
     e1a:	84 e0       	ldi	r24, 0x04	; 4
     e1c:	80 93 17 02 	sts	0x0217, r24
	motor[4].speed(1023+1024);
     e20:	8f ef       	ldi	r24, 0xFF	; 255
     e22:	97 e0       	ldi	r25, 0x07	; 7
     e24:	0e 94 e3 06 	call	0xdc6	; 0xdc6 <_ZN7motor_t5speedERKi.isra.17.constprop.18>
}
     e28:	08 95       	ret

00000e2a <_Z6dozaduv>:
     e2a:	81 e0       	ldi	r24, 0x01	; 1
     e2c:	80 93 17 02 	sts	0x0217, r24
void dozadu()
{
	motor[1].speed(1023+1024);
     e30:	8f ef       	ldi	r24, 0xFF	; 255
     e32:	97 e0       	ldi	r25, 0x07	; 7
     e34:	0e 94 e3 06 	call	0xdc6	; 0xdc6 <_ZN7motor_t5speedERKi.isra.17.constprop.18>
     e38:	82 e0       	ldi	r24, 0x02	; 2
     e3a:	80 93 17 02 	sts	0x0217, r24
	motor[2].speed(1023+1024);
     e3e:	8f ef       	ldi	r24, 0xFF	; 255
     e40:	97 e0       	ldi	r25, 0x07	; 7
     e42:	0e 94 e3 06 	call	0xdc6	; 0xdc6 <_ZN7motor_t5speedERKi.isra.17.constprop.18>
     e46:	83 e0       	ldi	r24, 0x03	; 3
     e48:	80 93 17 02 	sts	0x0217, r24
	motor[3].speed(1023);
     e4c:	8f ef       	ldi	r24, 0xFF	; 255
     e4e:	93 e0       	ldi	r25, 0x03	; 3
     e50:	0e 94 e3 06 	call	0xdc6	; 0xdc6 <_ZN7motor_t5speedERKi.isra.17.constprop.18>
     e54:	84 e0       	ldi	r24, 0x04	; 4
     e56:	80 93 17 02 	sts	0x0217, r24
	motor[4].speed(1023);
     e5a:	8f ef       	ldi	r24, 0xFF	; 255
     e5c:	93 e0       	ldi	r25, 0x03	; 3
     e5e:	0e 94 e3 06 	call	0xdc6	; 0xdc6 <_ZN7motor_t5speedERKi.isra.17.constprop.18>
}
     e62:	08 95       	ret

00000e64 <_Z7dopravav>:
     e64:	81 e0       	ldi	r24, 0x01	; 1
     e66:	80 93 17 02 	sts	0x0217, r24
void doprava()
{
	motor[1].speed(1023);
     e6a:	8f ef       	ldi	r24, 0xFF	; 255
     e6c:	93 e0       	ldi	r25, 0x03	; 3
     e6e:	0e 94 e3 06 	call	0xdc6	; 0xdc6 <_ZN7motor_t5speedERKi.isra.17.constprop.18>
     e72:	82 e0       	ldi	r24, 0x02	; 2
     e74:	80 93 17 02 	sts	0x0217, r24
	motor[2].speed(1023);
     e78:	8f ef       	ldi	r24, 0xFF	; 255
     e7a:	93 e0       	ldi	r25, 0x03	; 3
     e7c:	0e 94 e3 06 	call	0xdc6	; 0xdc6 <_ZN7motor_t5speedERKi.isra.17.constprop.18>
     e80:	83 e0       	ldi	r24, 0x03	; 3
     e82:	80 93 17 02 	sts	0x0217, r24
	motor[3].speed(1023);
     e86:	8f ef       	ldi	r24, 0xFF	; 255
     e88:	93 e0       	ldi	r25, 0x03	; 3
     e8a:	0e 94 e3 06 	call	0xdc6	; 0xdc6 <_ZN7motor_t5speedERKi.isra.17.constprop.18>
     e8e:	84 e0       	ldi	r24, 0x04	; 4
     e90:	80 93 17 02 	sts	0x0217, r24
	motor[4].speed(1023);
     e94:	8f ef       	ldi	r24, 0xFF	; 255
     e96:	93 e0       	ldi	r25, 0x03	; 3
     e98:	0e 94 e3 06 	call	0xdc6	; 0xdc6 <_ZN7motor_t5speedERKi.isra.17.constprop.18>
}
     e9c:	08 95       	ret

00000e9e <_Z6dolevav>:
     e9e:	81 e0       	ldi	r24, 0x01	; 1
     ea0:	80 93 17 02 	sts	0x0217, r24
void doleva()
{
	motor[1].speed(1023+1024);
     ea4:	8f ef       	ldi	r24, 0xFF	; 255
     ea6:	97 e0       	ldi	r25, 0x07	; 7
     ea8:	0e 94 e3 06 	call	0xdc6	; 0xdc6 <_ZN7motor_t5speedERKi.isra.17.constprop.18>
     eac:	82 e0       	ldi	r24, 0x02	; 2
     eae:	80 93 17 02 	sts	0x0217, r24
	motor[2].speed(1023+1024);
     eb2:	8f ef       	ldi	r24, 0xFF	; 255
     eb4:	97 e0       	ldi	r25, 0x07	; 7
     eb6:	0e 94 e3 06 	call	0xdc6	; 0xdc6 <_ZN7motor_t5speedERKi.isra.17.constprop.18>
     eba:	83 e0       	ldi	r24, 0x03	; 3
     ebc:	80 93 17 02 	sts	0x0217, r24
	motor[3].speed(1023+1024);
     ec0:	8f ef       	ldi	r24, 0xFF	; 255
     ec2:	97 e0       	ldi	r25, 0x07	; 7
     ec4:	0e 94 e3 06 	call	0xdc6	; 0xdc6 <_ZN7motor_t5speedERKi.isra.17.constprop.18>
     ec8:	84 e0       	ldi	r24, 0x04	; 4
     eca:	80 93 17 02 	sts	0x0217, r24
	motor[4].speed(1023+1024);
     ece:	8f ef       	ldi	r24, 0xFF	; 255
     ed0:	97 e0       	ldi	r25, 0x07	; 7
     ed2:	0e 94 e3 06 	call	0xdc6	; 0xdc6 <_ZN7motor_t5speedERKi.isra.17.constprop.18>
}
     ed6:	08 95       	ret

00000ed8 <_Z4stopv>:
void stop()
{
     ed8:	cf 93       	push	r28
     eda:	c1 e0       	ldi	r28, 0x01	; 1
     edc:	c0 93 17 02 	sts	0x0217, r28
	for(int i=1;i<5;i++)
	motor[i].speed(0);
     ee0:	80 e0       	ldi	r24, 0x00	; 0
     ee2:	90 e0       	ldi	r25, 0x00	; 0
     ee4:	0e 94 e3 06 	call	0xdc6	; 0xdc6 <_ZN7motor_t5speedERKi.isra.17.constprop.18>
     ee8:	cf 5f       	subi	r28, 0xFF	; 255
	motor[3].speed(1023+1024);
	motor[4].speed(1023+1024);
}
void stop()
{
	for(int i=1;i<5;i++)
     eea:	c5 30       	cpi	r28, 0x05	; 5
     eec:	b9 f7       	brne	.-18     	; 0xedc <_Z4stopv+0x4>
	motor[i].speed(0);
}
     eee:	cf 91       	pop	r28
     ef0:	08 95       	ret

00000ef2 <_ZN7motor_t8positionERKi.isra.16.constprop.20>:
	motor_t & position(const uint16_t &position)
	{
		m_error.push(bus.writeWord(currentID, P_GOAL_POSITION_L, position));
		return *this;
	}
	motor_t & position(const int16_t &position)
     ef2:	cf 93       	push	r28
     ef4:	df 93       	push	r29
     ef6:	9c 01       	movw	r18, r24
	{
		m_error.push(bus.writeWord(currentID, P_GOAL_POSITION_L, ((uint16_t)(position))));
     ef8:	c7 e1       	ldi	r28, 0x17	; 23
     efa:	d2 e0       	ldi	r29, 0x02	; 2
     efc:	8d e7       	ldi	r24, 0x7D	; 125
     efe:	92 e0       	ldi	r25, 0x02	; 2
     f00:	60 91 17 02 	lds	r22, 0x0217
     f04:	4e e1       	ldi	r20, 0x1E	; 30
     f06:	0e 94 68 06 	call	0xcd0	; 0xcd0 <_ZN11dynamixel_t9writeWordEhhj>
     f0a:	68 2f       	mov	r22, r24
     f0c:	ce 01       	movw	r24, r28
     f0e:	01 96       	adiw	r24, 0x01	; 1
     f10:	0e 94 e1 02 	call	0x5c2	; 0x5c2 <_ZN5queueIhLj96EE4pushEh>
		return *this;
	}
     f14:	ce 01       	movw	r24, r28
     f16:	df 91       	pop	r29
     f18:	cf 91       	pop	r28
     f1a:	08 95       	ret

00000f1c <_Z7vychoziv>:
void vychozi()
{
     f1c:	cf 92       	push	r12
     f1e:	df 92       	push	r13
     f20:	ef 92       	push	r14
     f22:	ff 92       	push	r15
     f24:	0f 93       	push	r16
     f26:	1f 93       	push	r17
     f28:	cf 93       	push	r28
     f2a:	df 93       	push	r29
	for(int i=5;i<12;i++)
     f2c:	c5 e0       	ldi	r28, 0x05	; 5
     f2e:	d0 e0       	ldi	r29, 0x00	; 0
		m_error.overwrite = true;
	}

	motor_t &operator [] (const uint8_t &id)
	{
		currentID = id;
     f30:	e5 e0       	ldi	r30, 0x05	; 5
     f32:	ce 2e       	mov	r12, r30
     f34:	f6 e0       	ldi	r31, 0x06	; 6
     f36:	df 2e       	mov	r13, r31
     f38:	a7 e0       	ldi	r26, 0x07	; 7
     f3a:	ea 2e       	mov	r14, r26
     f3c:	b9 e0       	ldi	r27, 0x09	; 9
     f3e:	fb 2e       	mov	r15, r27
     f40:	0a e0       	ldi	r16, 0x0A	; 10
     f42:	1b e0       	ldi	r17, 0x0B	; 11
	{
		if(i==8) 
     f44:	c8 30       	cpi	r28, 0x08	; 8
     f46:	d1 05       	cpc	r29, r1
     f48:	11 f4       	brne	.+4      	; 0xf4e <_Z7vychoziv+0x32>
		{
			i=9;
     f4a:	c9 e0       	ldi	r28, 0x09	; 9
     f4c:	d0 e0       	ldi	r29, 0x00	; 0
		}		
	motor[i].speed(100);
     f4e:	c0 93 17 02 	sts	0x0217, r28
     f52:	84 e6       	ldi	r24, 0x64	; 100
     f54:	90 e0       	ldi	r25, 0x00	; 0
     f56:	0e 94 e3 06 	call	0xdc6	; 0xdc6 <_ZN7motor_t5speedERKi.isra.17.constprop.18>
     f5a:	c0 92 17 02 	sts	0x0217, r12
	motor[5].position(577);
     f5e:	81 e4       	ldi	r24, 0x41	; 65
     f60:	92 e0       	ldi	r25, 0x02	; 2
     f62:	0e 94 79 07 	call	0xef2	; 0xef2 <_ZN7motor_t8positionERKi.isra.16.constprop.20>
     f66:	d0 92 17 02 	sts	0x0217, r13
	motor[6].position(836);
     f6a:	84 e4       	ldi	r24, 0x44	; 68
     f6c:	93 e0       	ldi	r25, 0x03	; 3
     f6e:	0e 94 79 07 	call	0xef2	; 0xef2 <_ZN7motor_t8positionERKi.isra.16.constprop.20>
     f72:	e0 92 17 02 	sts	0x0217, r14
	motor[7].position(566);
     f76:	86 e3       	ldi	r24, 0x36	; 54
     f78:	92 e0       	ldi	r25, 0x02	; 2
     f7a:	0e 94 79 07 	call	0xef2	; 0xef2 <_ZN7motor_t8positionERKi.isra.16.constprop.20>
     f7e:	f0 92 17 02 	sts	0x0217, r15
	motor[9].position(577);
     f82:	81 e4       	ldi	r24, 0x41	; 65
     f84:	92 e0       	ldi	r25, 0x02	; 2
     f86:	0e 94 79 07 	call	0xef2	; 0xef2 <_ZN7motor_t8positionERKi.isra.16.constprop.20>
     f8a:	00 93 17 02 	sts	0x0217, r16
	motor[10].position(836);
     f8e:	84 e4       	ldi	r24, 0x44	; 68
     f90:	93 e0       	ldi	r25, 0x03	; 3
     f92:	0e 94 79 07 	call	0xef2	; 0xef2 <_ZN7motor_t8positionERKi.isra.16.constprop.20>
     f96:	10 93 17 02 	sts	0x0217, r17
	motor[11].position(566);
     f9a:	86 e3       	ldi	r24, 0x36	; 54
     f9c:	92 e0       	ldi	r25, 0x02	; 2
     f9e:	0e 94 79 07 	call	0xef2	; 0xef2 <_ZN7motor_t8positionERKi.isra.16.constprop.20>
	for(int i=1;i<5;i++)
	motor[i].speed(0);
}
void vychozi()
{
	for(int i=5;i<12;i++)
     fa2:	21 96       	adiw	r28, 0x01	; 1
     fa4:	cc 30       	cpi	r28, 0x0C	; 12
     fa6:	d1 05       	cpc	r29, r1
     fa8:	6c f2       	brlt	.-102    	; 0xf44 <_Z7vychoziv+0x28>
	motor[7].position(566);
	motor[9].position(577);
	motor[10].position(836);
	motor[11].position(566);
	}
}
     faa:	df 91       	pop	r29
     fac:	cf 91       	pop	r28
     fae:	1f 91       	pop	r17
     fb0:	0f 91       	pop	r16
     fb2:	ff 90       	pop	r15
     fb4:	ef 90       	pop	r14
     fb6:	df 90       	pop	r13
     fb8:	cf 90       	pop	r12
     fba:	08 95       	ret

00000fbc <_Z5krok1v>:
     fbc:	85 e0       	ldi	r24, 0x05	; 5
     fbe:	80 93 17 02 	sts	0x0217, r24
void krok1()
{
	motor[5].position(941);
     fc2:	8d ea       	ldi	r24, 0xAD	; 173
     fc4:	93 e0       	ldi	r25, 0x03	; 3
     fc6:	0e 94 79 07 	call	0xef2	; 0xef2 <_ZN7motor_t8positionERKi.isra.16.constprop.20>
     fca:	86 e0       	ldi	r24, 0x06	; 6
     fcc:	80 93 17 02 	sts	0x0217, r24
	motor[6].position(333);
     fd0:	8d e4       	ldi	r24, 0x4D	; 77
     fd2:	91 e0       	ldi	r25, 0x01	; 1
     fd4:	0e 94 79 07 	call	0xef2	; 0xef2 <_ZN7motor_t8positionERKi.isra.16.constprop.20>
     fd8:	87 e0       	ldi	r24, 0x07	; 7
     fda:	80 93 17 02 	sts	0x0217, r24
	motor[7].position(413);
     fde:	8d e9       	ldi	r24, 0x9D	; 157
     fe0:	91 e0       	ldi	r25, 0x01	; 1
     fe2:	0e 94 79 07 	call	0xef2	; 0xef2 <_ZN7motor_t8positionERKi.isra.16.constprop.20>
     fe6:	89 e0       	ldi	r24, 0x09	; 9
     fe8:	80 93 17 02 	sts	0x0217, r24
	motor[9].position(577);
     fec:	81 e4       	ldi	r24, 0x41	; 65
     fee:	92 e0       	ldi	r25, 0x02	; 2
     ff0:	0e 94 79 07 	call	0xef2	; 0xef2 <_ZN7motor_t8positionERKi.isra.16.constprop.20>
     ff4:	8a e0       	ldi	r24, 0x0A	; 10
     ff6:	80 93 17 02 	sts	0x0217, r24
	motor[10].position(836);
     ffa:	84 e4       	ldi	r24, 0x44	; 68
     ffc:	93 e0       	ldi	r25, 0x03	; 3
     ffe:	0e 94 79 07 	call	0xef2	; 0xef2 <_ZN7motor_t8positionERKi.isra.16.constprop.20>
    1002:	8b e0       	ldi	r24, 0x0B	; 11
    1004:	80 93 17 02 	sts	0x0217, r24
	motor[11].position(566);
    1008:	86 e3       	ldi	r24, 0x36	; 54
    100a:	92 e0       	ldi	r25, 0x02	; 2
    100c:	0e 94 79 07 	call	0xef2	; 0xef2 <_ZN7motor_t8positionERKi.isra.16.constprop.20>
}
    1010:	08 95       	ret

00001012 <_Z5krok2v>:
    1012:	85 e0       	ldi	r24, 0x05	; 5
    1014:	80 93 17 02 	sts	0x0217, r24
void krok2()
{
	motor[5].position(941);
    1018:	8d ea       	ldi	r24, 0xAD	; 173
    101a:	93 e0       	ldi	r25, 0x03	; 3
    101c:	0e 94 79 07 	call	0xef2	; 0xef2 <_ZN7motor_t8positionERKi.isra.16.constprop.20>
    1020:	86 e0       	ldi	r24, 0x06	; 6
    1022:	80 93 17 02 	sts	0x0217, r24
	motor[6].position(333);
    1026:	8d e4       	ldi	r24, 0x4D	; 77
    1028:	91 e0       	ldi	r25, 0x01	; 1
    102a:	0e 94 79 07 	call	0xef2	; 0xef2 <_ZN7motor_t8positionERKi.isra.16.constprop.20>
    102e:	87 e0       	ldi	r24, 0x07	; 7
    1030:	80 93 17 02 	sts	0x0217, r24
	motor[7].position(413);
    1034:	8d e9       	ldi	r24, 0x9D	; 157
    1036:	91 e0       	ldi	r25, 0x01	; 1
    1038:	0e 94 79 07 	call	0xef2	; 0xef2 <_ZN7motor_t8positionERKi.isra.16.constprop.20>
    103c:	89 e0       	ldi	r24, 0x09	; 9
    103e:	80 93 17 02 	sts	0x0217, r24
	motor[9].position(950);
    1042:	86 eb       	ldi	r24, 0xB6	; 182
    1044:	93 e0       	ldi	r25, 0x03	; 3
    1046:	0e 94 79 07 	call	0xef2	; 0xef2 <_ZN7motor_t8positionERKi.isra.16.constprop.20>
    104a:	8a e0       	ldi	r24, 0x0A	; 10
    104c:	80 93 17 02 	sts	0x0217, r24
	motor[10].position(300);
    1050:	8c e2       	ldi	r24, 0x2C	; 44
    1052:	91 e0       	ldi	r25, 0x01	; 1
    1054:	0e 94 79 07 	call	0xef2	; 0xef2 <_ZN7motor_t8positionERKi.isra.16.constprop.20>
    1058:	8b e0       	ldi	r24, 0x0B	; 11
    105a:	80 93 17 02 	sts	0x0217, r24
	motor[11].position(560);
    105e:	80 e3       	ldi	r24, 0x30	; 48
    1060:	92 e0       	ldi	r25, 0x02	; 2
    1062:	0e 94 79 07 	call	0xef2	; 0xef2 <_ZN7motor_t8positionERKi.isra.16.constprop.20>
}
    1066:	08 95       	ret

00001068 <_Z5krok3v>:
    1068:	85 e0       	ldi	r24, 0x05	; 5
    106a:	80 93 17 02 	sts	0x0217, r24
void krok3()
{
	motor[5].position(577);
    106e:	81 e4       	ldi	r24, 0x41	; 65
    1070:	92 e0       	ldi	r25, 0x02	; 2
    1072:	0e 94 79 07 	call	0xef2	; 0xef2 <_ZN7motor_t8positionERKi.isra.16.constprop.20>
    1076:	86 e0       	ldi	r24, 0x06	; 6
    1078:	80 93 17 02 	sts	0x0217, r24
	motor[6].position(836);
    107c:	84 e4       	ldi	r24, 0x44	; 68
    107e:	93 e0       	ldi	r25, 0x03	; 3
    1080:	0e 94 79 07 	call	0xef2	; 0xef2 <_ZN7motor_t8positionERKi.isra.16.constprop.20>
    1084:	87 e0       	ldi	r24, 0x07	; 7
    1086:	80 93 17 02 	sts	0x0217, r24
	motor[7].position(566);
    108a:	86 e3       	ldi	r24, 0x36	; 54
    108c:	92 e0       	ldi	r25, 0x02	; 2
    108e:	0e 94 79 07 	call	0xef2	; 0xef2 <_ZN7motor_t8positionERKi.isra.16.constprop.20>
    1092:	89 e0       	ldi	r24, 0x09	; 9
    1094:	80 93 17 02 	sts	0x0217, r24
	motor[9].position(950);
    1098:	86 eb       	ldi	r24, 0xB6	; 182
    109a:	93 e0       	ldi	r25, 0x03	; 3
    109c:	0e 94 79 07 	call	0xef2	; 0xef2 <_ZN7motor_t8positionERKi.isra.16.constprop.20>
    10a0:	8a e0       	ldi	r24, 0x0A	; 10
    10a2:	80 93 17 02 	sts	0x0217, r24
	motor[10].position(300);
    10a6:	8c e2       	ldi	r24, 0x2C	; 44
    10a8:	91 e0       	ldi	r25, 0x01	; 1
    10aa:	0e 94 79 07 	call	0xef2	; 0xef2 <_ZN7motor_t8positionERKi.isra.16.constprop.20>
    10ae:	8b e0       	ldi	r24, 0x0B	; 11
    10b0:	80 93 17 02 	sts	0x0217, r24
	motor[11].position(560);
    10b4:	80 e3       	ldi	r24, 0x30	; 48
    10b6:	92 e0       	ldi	r25, 0x02	; 2
    10b8:	0e 94 79 07 	call	0xef2	; 0xef2 <_ZN7motor_t8positionERKi.isra.16.constprop.20>
}
    10bc:	08 95       	ret

000010be <_Z5krok4v>:
    10be:	85 e0       	ldi	r24, 0x05	; 5
    10c0:	80 93 17 02 	sts	0x0217, r24

void krok4()
{
	motor[5].position(577);
    10c4:	81 e4       	ldi	r24, 0x41	; 65
    10c6:	92 e0       	ldi	r25, 0x02	; 2
    10c8:	0e 94 79 07 	call	0xef2	; 0xef2 <_ZN7motor_t8positionERKi.isra.16.constprop.20>
    10cc:	86 e0       	ldi	r24, 0x06	; 6
    10ce:	80 93 17 02 	sts	0x0217, r24
	motor[6].position(836);
    10d2:	84 e4       	ldi	r24, 0x44	; 68
    10d4:	93 e0       	ldi	r25, 0x03	; 3
    10d6:	0e 94 79 07 	call	0xef2	; 0xef2 <_ZN7motor_t8positionERKi.isra.16.constprop.20>
    10da:	87 e0       	ldi	r24, 0x07	; 7
    10dc:	80 93 17 02 	sts	0x0217, r24
	motor[7].position(566);
    10e0:	86 e3       	ldi	r24, 0x36	; 54
    10e2:	92 e0       	ldi	r25, 0x02	; 2
    10e4:	0e 94 79 07 	call	0xef2	; 0xef2 <_ZN7motor_t8positionERKi.isra.16.constprop.20>
    10e8:	89 e0       	ldi	r24, 0x09	; 9
    10ea:	80 93 17 02 	sts	0x0217, r24
	motor[9].position(577);
    10ee:	81 e4       	ldi	r24, 0x41	; 65
    10f0:	92 e0       	ldi	r25, 0x02	; 2
    10f2:	0e 94 79 07 	call	0xef2	; 0xef2 <_ZN7motor_t8positionERKi.isra.16.constprop.20>
    10f6:	8a e0       	ldi	r24, 0x0A	; 10
    10f8:	80 93 17 02 	sts	0x0217, r24
	motor[10].position(836);
    10fc:	84 e4       	ldi	r24, 0x44	; 68
    10fe:	93 e0       	ldi	r25, 0x03	; 3
    1100:	0e 94 79 07 	call	0xef2	; 0xef2 <_ZN7motor_t8positionERKi.isra.16.constprop.20>
    1104:	8b e0       	ldi	r24, 0x0B	; 11
    1106:	80 93 17 02 	sts	0x0217, r24
	motor[11].position(566);
    110a:	86 e3       	ldi	r24, 0x36	; 54
    110c:	92 e0       	ldi	r25, 0x02	; 2
    110e:	0e 94 79 07 	call	0xef2	; 0xef2 <_ZN7motor_t8positionERKi.isra.16.constprop.20>

}
    1112:	08 95       	ret

00001114 <_Z8prekazkav>:
void prekazka()												//pekonvn pekky
{
    1114:	bf 92       	push	r11
    1116:	cf 92       	push	r12
    1118:	df 92       	push	r13
    111a:	ef 92       	push	r14
    111c:	ff 92       	push	r15
    111e:	0f 93       	push	r16
    1120:	1f 93       	push	r17
    1122:	cf 93       	push	r28
    1124:	df 93       	push	r29
    1126:	cd b7       	in	r28, 0x3d	; 61
    1128:	de b7       	in	r29, 0x3e	; 62
    112a:	60 97       	sbiw	r28, 0x10	; 16
    112c:	0f b6       	in	r0, 0x3f	; 63
    112e:	f8 94       	cli
    1130:	de bf       	out	0x3e, r29	; 62
    1132:	0f be       	out	0x3f, r0	; 63
    1134:	cd bf       	out	0x3d, r28	; 61
		currentID = 100;
	}

	sensor_t &operator [] (const uint8_t &id)
	{
		currentID = id;
    1136:	85 e6       	ldi	r24, 0x65	; 101
    1138:	80 93 b1 01 	sts	0x01B1, r24
	int r1;
	int strana=1;
	r1 = sensor[101].rightDistance();
    113c:	81 eb       	ldi	r24, 0xB1	; 177
    113e:	91 e0       	ldi	r25, 0x01	; 1
    1140:	0e 94 76 05 	call	0xaec	; 0xaec <_ZN8sensor_t13rightDistanceEv>
    1144:	08 2f       	mov	r16, r24
    1146:	10 e0       	ldi	r17, 0x00	; 0
	stop();
    1148:	0e 94 6c 07 	call	0xed8	; 0xed8 <_Z4stopv>
	krok1();
    114c:	0e 94 de 07 	call	0xfbc	; 0xfbc <_Z5krok1v>
	cekej();
    1150:	0e 94 30 06 	call	0xc60	; 0xc60 <_Z5cekejv>
	dopredu();
    1154:	0e 94 f8 06 	call	0xdf0	; 0xdf0 <_Z7dopreduv>
	wait(1000000);
    1158:	80 e4       	ldi	r24, 0x40	; 64
    115a:	92 e4       	ldi	r25, 0x42	; 66
    115c:	af e0       	ldi	r26, 0x0F	; 15
    115e:	b0 e0       	ldi	r27, 0x00	; 0
    1160:	8d 87       	std	Y+13, r24	; 0x0d
    1162:	9e 87       	std	Y+14, r25	; 0x0e
    1164:	af 87       	std	Y+15, r26	; 0x0f
    1166:	b8 8b       	std	Y+16, r27	; 0x10
    1168:	ce 01       	movw	r24, r28
    116a:	0d 96       	adiw	r24, 0x0d	; 13
    116c:	0e 94 db 00 	call	0x1b6	; 0x1b6 <_Z4waitRKm>
	stop();
    1170:	0e 94 6c 07 	call	0xed8	; 0xed8 <_Z4stopv>
	krok2();
    1174:	0e 94 09 08 	call	0x1012	; 0x1012 <_Z5krok2v>
	krok3();
    1178:	0e 94 34 08 	call	0x1068	; 0x1068 <_Z5krok3v>
	cekej();
    117c:	0e 94 30 06 	call	0xc60	; 0xc60 <_Z5cekejv>
	dopredu();
    1180:	0e 94 f8 06 	call	0xdf0	; 0xdf0 <_Z7dopreduv>
	wait(500000);
    1184:	80 e2       	ldi	r24, 0x20	; 32
    1186:	91 ea       	ldi	r25, 0xA1	; 161
    1188:	a7 e0       	ldi	r26, 0x07	; 7
    118a:	b0 e0       	ldi	r27, 0x00	; 0
    118c:	89 87       	std	Y+9, r24	; 0x09
    118e:	9a 87       	std	Y+10, r25	; 0x0a
    1190:	ab 87       	std	Y+11, r26	; 0x0b
    1192:	bc 87       	std	Y+12, r27	; 0x0c
    1194:	ce 01       	movw	r24, r28
    1196:	09 96       	adiw	r24, 0x09	; 9
    1198:	0e 94 db 00 	call	0x1b6	; 0x1b6 <_Z4waitRKm>
	stop();
    119c:	0e 94 6c 07 	call	0xed8	; 0xed8 <_Z4stopv>
	krok4();
    11a0:	0e 94 5f 08 	call	0x10be	; 0x10be <_Z5krok4v>
	cekej();
    11a4:	0e 94 30 06 	call	0xc60	; 0xc60 <_Z5cekejv>
    11a8:	25 e6       	ldi	r18, 0x65	; 101
    11aa:	b2 2e       	mov	r11, r18
						wait(2000000);
					}
				if(r1<=150)													// kdy sensor zm 150 a mn, tak neme sjet, couvne a oto se doprava
					{
						dozadu();
						wait(500000);
    11ac:	30 e2       	ldi	r19, 0x20	; 32
    11ae:	c3 2e       	mov	r12, r19
    11b0:	31 ea       	ldi	r19, 0xA1	; 161
    11b2:	d3 2e       	mov	r13, r19
    11b4:	37 e0       	ldi	r19, 0x07	; 7
    11b6:	e3 2e       	mov	r14, r19
    11b8:	f1 2c       	mov	r15, r1
    11ba:	0a c0       	rjmp	.+20     	; 0x11d0 <_Z8prekazkav+0xbc>
    11bc:	b0 92 b1 01 	sts	0x01B1, r11
	krok4();
	cekej();
	
	again:	while(r1>=252)												// kdy m sensor 252 a vc tak me jet dl dokud nedojede ke konci pekky *2
				{
					r1 = sensor[101].rightDistance();
    11c0:	81 eb       	ldi	r24, 0xB1	; 177
    11c2:	91 e0       	ldi	r25, 0x01	; 1
    11c4:	0e 94 76 05 	call	0xaec	; 0xaec <_ZN8sensor_t13rightDistanceEv>
    11c8:	08 2f       	mov	r16, r24
    11ca:	10 e0       	ldi	r17, 0x00	; 0
					dopredu();
    11cc:	0e 94 f8 06 	call	0xdf0	; 0xdf0 <_Z7dopreduv>
	wait(500000);
	stop();
	krok4();
	cekej();
	
	again:	while(r1>=252)												// kdy m sensor 252 a vc tak me jet dl dokud nedojede ke konci pekky *2
    11d0:	0c 3f       	cpi	r16, 0xFC	; 252
    11d2:	11 05       	cpc	r17, r1
    11d4:	9c f7       	brge	.-26     	; 0x11bc <_Z8prekazkav+0xa8>
				{
					r1 = sensor[101].rightDistance();
					dopredu();
				}
				if(r1<252 && r1>150)										// *2, kdy sensor zm 151-251 tak me bezpen sjet z pekky
    11d6:	c8 01       	movw	r24, r16
    11d8:	87 59       	subi	r24, 0x97	; 151
    11da:	90 40       	sbci	r25, 0x00	; 0
    11dc:	85 36       	cpi	r24, 0x65	; 101
    11de:	91 05       	cpc	r25, r1
    11e0:	10 f5       	brcc	.+68     	; 0x1226 <_Z8prekazkav+0x112>
					{
						dopredu();
    11e2:	0e 94 f8 06 	call	0xdf0	; 0xdf0 <_Z7dopreduv>
						wait(2000000);
    11e6:	80 e8       	ldi	r24, 0x80	; 128
    11e8:	94 e8       	ldi	r25, 0x84	; 132
    11ea:	ae e1       	ldi	r26, 0x1E	; 30
    11ec:	b0 e0       	ldi	r27, 0x00	; 0
    11ee:	8d 83       	std	Y+5, r24	; 0x05
    11f0:	9e 83       	std	Y+6, r25	; 0x06
    11f2:	af 83       	std	Y+7, r26	; 0x07
    11f4:	b8 87       	std	Y+8, r27	; 0x08
    11f6:	ce 01       	movw	r24, r28
    11f8:	05 96       	adiw	r24, 0x05	; 5
    11fa:	0e 94 db 00 	call	0x1b6	; 0x1b6 <_Z4waitRKm>
						}					
						goto again;											// smyka, dokud nenajde msto ke sjet
					}
	else
		{
			stop();
    11fe:	0e 94 6c 07 	call	0xed8	; 0xed8 <_Z4stopv>
		}
	stop();
    1202:	0e 94 6c 07 	call	0xed8	; 0xed8 <_Z4stopv>
	vychozi();
	wait(500000);
	dopredu();
	wait(1500000);
	stop();*/
}
    1206:	60 96       	adiw	r28, 0x10	; 16
    1208:	0f b6       	in	r0, 0x3f	; 63
    120a:	f8 94       	cli
    120c:	de bf       	out	0x3e, r29	; 62
    120e:	0f be       	out	0x3f, r0	; 63
    1210:	cd bf       	out	0x3d, r28	; 61
    1212:	df 91       	pop	r29
    1214:	cf 91       	pop	r28
    1216:	1f 91       	pop	r17
    1218:	0f 91       	pop	r16
    121a:	ff 90       	pop	r15
    121c:	ef 90       	pop	r14
    121e:	df 90       	pop	r13
    1220:	cf 90       	pop	r12
    1222:	bf 90       	pop	r11
    1224:	08 95       	ret
						dopredu();
						wait(2000000);
					}
				if(r1<=150)													// kdy sensor zm 150 a mn, tak neme sjet, couvne a oto se doprava
					{
						dozadu();
    1226:	0e 94 15 07 	call	0xe2a	; 0xe2a <_Z6dozaduv>
						wait(500000);
    122a:	c9 82       	std	Y+1, r12	; 0x01
    122c:	da 82       	std	Y+2, r13	; 0x02
    122e:	eb 82       	std	Y+3, r14	; 0x03
    1230:	fc 82       	std	Y+4, r15	; 0x04
    1232:	ce 01       	movw	r24, r28
    1234:	01 96       	adiw	r24, 0x01	; 1
    1236:	0e 94 db 00 	call	0x1b6	; 0x1b6 <_Z4waitRKm>
						stop();
    123a:	0e 94 6c 07 	call	0xed8	; 0xed8 <_Z4stopv>
    123e:	c8 cf       	rjmp	.-112    	; 0x11d0 <_Z8prekazkav+0xbc>

00001240 <_Z5jizdav>:
    1240:	15 e6       	ldi	r17, 0x65	; 101
			dopredu();
			c1 = sensor[101].centerDistance();
			pc<<"sensor :"<< sensor[101].centerDistance() <<endl;
			_delay_ms(75);
		}
	if(c1=255)
    1242:	cf ef       	ldi	r28, 0xFF	; 255
    1244:	d0 e0       	ldi	r29, 0x00	; 0
    1246:	10 93 b1 01 	sts	0x01B1, r17
}
void jizda()
{
for(;;)
{
	c1 = sensor[101].centerDistance();
    124a:	81 eb       	ldi	r24, 0xB1	; 177
    124c:	91 e0       	ldi	r25, 0x01	; 1
    124e:	0e 94 55 05 	call	0xaaa	; 0xaaa <_ZN8sensor_t14centerDistanceEv>
    1252:	80 93 a8 01 	sts	0x01A8, r24
    1256:	10 92 a9 01 	sts	0x01A9, r1
		sendChar(ch);
		return *this;
	}
	USART1_t &operator << (const char *ch)
	{
		send(ch);
    125a:	8d e1       	ldi	r24, 0x1D	; 29
    125c:	91 e0       	ldi	r25, 0x01	; 1
    125e:	0e 94 1e 02 	call	0x43c	; 0x43c <_ZN8USART1_t4sendEPKc.constprop.19>
		currentID = 100;
	}

	sensor_t &operator [] (const uint8_t &id)
	{
		currentID = id;
    1262:	10 93 b1 01 	sts	0x01B1, r17
	pc<<"sensor "<< sensor[101].centerDistance() <<endl;
    1266:	81 eb       	ldi	r24, 0xB1	; 177
    1268:	91 e0       	ldi	r25, 0x01	; 1
    126a:	0e 94 55 05 	call	0xaaa	; 0xaaa <_ZN8sensor_t14centerDistanceEv>
		sendNumber(n, numbersSpaces);
		return *this;
	}
	USART1_t &operator << (const uint8_t &n)
	{
		sendNumber(n, numbersSpaces);
    126e:	48 2f       	mov	r20, r24
    1270:	50 e0       	ldi	r21, 0x00	; 0
    1272:	60 e0       	ldi	r22, 0x00	; 0
    1274:	70 e0       	ldi	r23, 0x00	; 0
    1276:	8b e4       	ldi	r24, 0x4B	; 75
    1278:	93 e0       	ldi	r25, 0x03	; 3
    127a:	20 91 15 04 	lds	r18, 0x0415
    127e:	0e 94 6c 01 	call	0x2d8	; 0x2d8 <_ZN8USART1_t10sendNumberElh>
		sendChar(ch);
		return *this;
	}
	USART1_t &operator << (const char *ch)
	{
		send(ch);
    1282:	81 e1       	ldi	r24, 0x11	; 17
    1284:	91 e0       	ldi	r25, 0x01	; 1
    1286:	0e 94 1e 02 	call	0x43c	; 0x43c <_ZN8USART1_t4sendEPKc.constprop.19>
    128a:	2d c0       	rjmp	.+90     	; 0x12e6 <_Z5jizdav+0xa6>
	while(c1<255)
		{
			dopredu();
    128c:	0e 94 f8 06 	call	0xdf0	; 0xdf0 <_Z7dopreduv>
		currentID = 100;
	}

	sensor_t &operator [] (const uint8_t &id)
	{
		currentID = id;
    1290:	10 93 b1 01 	sts	0x01B1, r17
			c1 = sensor[101].centerDistance();
    1294:	81 eb       	ldi	r24, 0xB1	; 177
    1296:	91 e0       	ldi	r25, 0x01	; 1
    1298:	0e 94 55 05 	call	0xaaa	; 0xaaa <_ZN8sensor_t14centerDistanceEv>
    129c:	80 93 a8 01 	sts	0x01A8, r24
    12a0:	10 92 a9 01 	sts	0x01A9, r1
		sendChar(ch);
		return *this;
	}
	USART1_t &operator << (const char *ch)
	{
		send(ch);
    12a4:	84 e1       	ldi	r24, 0x14	; 20
    12a6:	91 e0       	ldi	r25, 0x01	; 1
    12a8:	0e 94 1e 02 	call	0x43c	; 0x43c <_ZN8USART1_t4sendEPKc.constprop.19>
		currentID = 100;
	}

	sensor_t &operator [] (const uint8_t &id)
	{
		currentID = id;
    12ac:	10 93 b1 01 	sts	0x01B1, r17
			pc<<"sensor :"<< sensor[101].centerDistance() <<endl;
    12b0:	81 eb       	ldi	r24, 0xB1	; 177
    12b2:	91 e0       	ldi	r25, 0x01	; 1
    12b4:	0e 94 55 05 	call	0xaaa	; 0xaaa <_ZN8sensor_t14centerDistanceEv>
		sendNumber(n, numbersSpaces);
		return *this;
	}
	USART1_t &operator << (const uint8_t &n)
	{
		sendNumber(n, numbersSpaces);
    12b8:	48 2f       	mov	r20, r24
    12ba:	50 e0       	ldi	r21, 0x00	; 0
    12bc:	60 e0       	ldi	r22, 0x00	; 0
    12be:	70 e0       	ldi	r23, 0x00	; 0
    12c0:	8b e4       	ldi	r24, 0x4B	; 75
    12c2:	93 e0       	ldi	r25, 0x03	; 3
    12c4:	20 91 15 04 	lds	r18, 0x0415
    12c8:	0e 94 6c 01 	call	0x2d8	; 0x2d8 <_ZN8USART1_t10sendNumberElh>
		sendChar(ch);
		return *this;
	}
	USART1_t &operator << (const char *ch)
	{
		send(ch);
    12cc:	81 e1       	ldi	r24, 0x11	; 17
    12ce:	91 e0       	ldi	r25, 0x01	; 1
    12d0:	0e 94 1e 02 	call	0x43c	; 0x43c <_ZN8USART1_t4sendEPKc.constprop.19>
    12d4:	8f e7       	ldi	r24, 0x7F	; 127
    12d6:	99 ea       	ldi	r25, 0xA9	; 169
    12d8:	a3 e0       	ldi	r26, 0x03	; 3
    12da:	81 50       	subi	r24, 0x01	; 1
    12dc:	90 40       	sbci	r25, 0x00	; 0
    12de:	a0 40       	sbci	r26, 0x00	; 0
    12e0:	e1 f7       	brne	.-8      	; 0x12da <_Z5jizdav+0x9a>
    12e2:	00 c0       	rjmp	.+0      	; 0x12e4 <_Z5jizdav+0xa4>
    12e4:	00 00       	nop
{
for(;;)
{
	c1 = sensor[101].centerDistance();
	pc<<"sensor "<< sensor[101].centerDistance() <<endl;
	while(c1<255)
    12e6:	80 91 a8 01 	lds	r24, 0x01A8
    12ea:	90 91 a9 01 	lds	r25, 0x01A9
    12ee:	8f 3f       	cpi	r24, 0xFF	; 255
    12f0:	91 05       	cpc	r25, r1
    12f2:	64 f2       	brlt	.-104    	; 0x128c <_Z5jizdav+0x4c>
			dopredu();
			c1 = sensor[101].centerDistance();
			pc<<"sensor :"<< sensor[101].centerDistance() <<endl;
			_delay_ms(75);
		}
	if(c1=255)
    12f4:	d0 93 a9 01 	sts	0x01A9, r29
    12f8:	c0 93 a8 01 	sts	0x01A8, r28
		{
		prekazka();
    12fc:	0e 94 8a 08 	call	0x1114	; 0x1114 <_Z8prekazkav>
    1300:	a2 cf       	rjmp	.-188    	; 0x1246 <_Z5jizdav+0x6>

00001302 <_Z3runv>:
		}
		stop();
	}*/
}
void run()
{
    1302:	cf 93       	push	r28
    1304:	df 93       	push	r29
    1306:	0f 92       	push	r0
    1308:	cd b7       	in	r28, 0x3d	; 61
    130a:	de b7       	in	r29, 0x3e	; 62
	vychozi();
    130c:	0e 94 8e 07 	call	0xf1c	; 0xf1c <_Z7vychoziv>
		m_error.overwrite = true;
	}

	motor_t &operator [] (const uint8_t &id)
	{
		currentID = id;
    1310:	15 e0       	ldi	r17, 0x05	; 5
    1312:	46 e0       	ldi	r20, 0x06	; 6
    1314:	e4 2e       	mov	r14, r20
    1316:	57 e0       	ldi	r21, 0x07	; 7
    1318:	f5 2e       	mov	r15, r21
    131a:	09 e0       	ldi	r16, 0x09	; 9
	volatile uint16_t m_write;
public:
	volatile bool overwrite;
	bool is_empty() const
	{
		if(m_write == m_read)
    131c:	20 91 ad 03 	lds	r18, 0x03AD
    1320:	30 91 ae 03 	lds	r19, 0x03AE
    1324:	80 91 ab 03 	lds	r24, 0x03AB
    1328:	90 91 ac 03 	lds	r25, 0x03AC
    132c:	28 17       	cp	r18, r24
    132e:	39 07       	cpc	r19, r25
    1330:	09 f0       	breq	.+2      	; 0x1334 <_Z3runv+0x32>
    1332:	c1 c0       	rjmp	.+386    	; 0x14b6 <_Z3runv+0x1b4>
    1334:	f3 cf       	rjmp	.-26     	; 0x131c <_Z3runv+0x1a>
		jizda();*/
		x=pc.get();
		pc<<x;
		switch(x)
		{
			case 'w': dopredu();
    1336:	0e 94 f8 06 	call	0xdf0	; 0xdf0 <_Z7dopreduv>
				break;
    133a:	f0 cf       	rjmp	.-32     	; 0x131c <_Z3runv+0x1a>
			case 's': dozadu();
    133c:	0e 94 15 07 	call	0xe2a	; 0xe2a <_Z6dozaduv>
				break;
    1340:	ed cf       	rjmp	.-38     	; 0x131c <_Z3runv+0x1a>
			case 'a': doleva();
    1342:	0e 94 4f 07 	call	0xe9e	; 0xe9e <_Z6dolevav>
				break;
    1346:	ea cf       	rjmp	.-44     	; 0x131c <_Z3runv+0x1a>
			case 'd': doprava();
    1348:	0e 94 32 07 	call	0xe64	; 0xe64 <_Z7dopravav>
				break;
    134c:	e7 cf       	rjmp	.-50     	; 0x131c <_Z3runv+0x1a>
			case 'q': stop();
    134e:	0e 94 6c 07 	call	0xed8	; 0xed8 <_Z4stopv>
				break;
    1352:	e4 cf       	rjmp	.-56     	; 0x131c <_Z3runv+0x1a>
			case 'f': jizda();
    1354:	0e 94 20 09 	call	0x1240	; 0x1240 <_Z5jizdav>
				break;
			case 'g': mer();
    1358:	0e 94 d2 05 	call	0xba4	; 0xba4 <_Z3merv>
				break;
    135c:	df cf       	rjmp	.-66     	; 0x131c <_Z3runv+0x1a>
			case 'v': vypni();
    135e:	0e 94 c4 06 	call	0xd88	; 0xd88 <_Z5vypniv>
				break;
    1362:	dc cf       	rjmp	.-72     	; 0x131c <_Z3runv+0x1a>
			case 'y': zapni();
    1364:	0e 94 a5 06 	call	0xd4a	; 0xd4a <_Z5zapniv>
				break;
    1368:	d9 cf       	rjmp	.-78     	; 0x131c <_Z3runv+0x1a>
		sendChar(ch);
		return *this;
	}
	USART1_t &operator << (const char *ch)
	{
		send(ch);
    136a:	81 e1       	ldi	r24, 0x11	; 17
    136c:	91 e0       	ldi	r25, 0x01	; 1
    136e:	0e 94 1e 02 	call	0x43c	; 0x43c <_ZN8USART1_t4sendEPKc.constprop.19>
    1372:	85 e2       	ldi	r24, 0x25	; 37
    1374:	91 e0       	ldi	r25, 0x01	; 1
    1376:	0e 94 1e 02 	call	0x43c	; 0x43c <_ZN8USART1_t4sendEPKc.constprop.19>
		m_error.overwrite = true;
	}

	motor_t &operator [] (const uint8_t &id)
	{
		currentID = id;
    137a:	10 93 17 02 	sts	0x0217, r17
			case 'b': 
					pc<<endl<<"Motor cislo 5.  "<< motor[5].position() <<endl;
    137e:	87 e1       	ldi	r24, 0x17	; 23
    1380:	92 e0       	ldi	r25, 0x02	; 2
    1382:	0e 94 85 04 	call	0x90a	; 0x90a <_ZN7motor_t8positionEv>
		sendNumber(n, numbersSpaces);
		return *this;
	}
	USART1_t &operator << (const uint16_t &n)
	{
		sendNumber(n, numbersSpaces);
    1386:	ac 01       	movw	r20, r24
    1388:	60 e0       	ldi	r22, 0x00	; 0
    138a:	70 e0       	ldi	r23, 0x00	; 0
    138c:	8b e4       	ldi	r24, 0x4B	; 75
    138e:	93 e0       	ldi	r25, 0x03	; 3
    1390:	20 91 15 04 	lds	r18, 0x0415
    1394:	0e 94 6c 01 	call	0x2d8	; 0x2d8 <_ZN8USART1_t10sendNumberElh>
		sendChar(ch);
		return *this;
	}
	USART1_t &operator << (const char *ch)
	{
		send(ch);
    1398:	81 e1       	ldi	r24, 0x11	; 17
    139a:	91 e0       	ldi	r25, 0x01	; 1
    139c:	0e 94 1e 02 	call	0x43c	; 0x43c <_ZN8USART1_t4sendEPKc.constprop.19>
    13a0:	86 e3       	ldi	r24, 0x36	; 54
    13a2:	91 e0       	ldi	r25, 0x01	; 1
    13a4:	0e 94 1e 02 	call	0x43c	; 0x43c <_ZN8USART1_t4sendEPKc.constprop.19>
		m_error.overwrite = true;
	}

	motor_t &operator [] (const uint8_t &id)
	{
		currentID = id;
    13a8:	e0 92 17 02 	sts	0x0217, r14
					pc<<"Motor cislo 6.  "<< motor[6].position() <<endl;
    13ac:	87 e1       	ldi	r24, 0x17	; 23
    13ae:	92 e0       	ldi	r25, 0x02	; 2
    13b0:	0e 94 85 04 	call	0x90a	; 0x90a <_ZN7motor_t8positionEv>
		sendNumber(n, numbersSpaces);
		return *this;
	}
	USART1_t &operator << (const uint16_t &n)
	{
		sendNumber(n, numbersSpaces);
    13b4:	ac 01       	movw	r20, r24
    13b6:	60 e0       	ldi	r22, 0x00	; 0
    13b8:	70 e0       	ldi	r23, 0x00	; 0
    13ba:	8b e4       	ldi	r24, 0x4B	; 75
    13bc:	93 e0       	ldi	r25, 0x03	; 3
    13be:	20 91 15 04 	lds	r18, 0x0415
    13c2:	0e 94 6c 01 	call	0x2d8	; 0x2d8 <_ZN8USART1_t10sendNumberElh>
		sendChar(ch);
		return *this;
	}
	USART1_t &operator << (const char *ch)
	{
		send(ch);
    13c6:	81 e1       	ldi	r24, 0x11	; 17
    13c8:	91 e0       	ldi	r25, 0x01	; 1
    13ca:	0e 94 1e 02 	call	0x43c	; 0x43c <_ZN8USART1_t4sendEPKc.constprop.19>
    13ce:	87 e4       	ldi	r24, 0x47	; 71
    13d0:	91 e0       	ldi	r25, 0x01	; 1
    13d2:	0e 94 1e 02 	call	0x43c	; 0x43c <_ZN8USART1_t4sendEPKc.constprop.19>
		m_error.overwrite = true;
	}

	motor_t &operator [] (const uint8_t &id)
	{
		currentID = id;
    13d6:	f0 92 17 02 	sts	0x0217, r15
					pc<<"Motor cislo 7.  "<< motor[7].position() <<endl;
    13da:	87 e1       	ldi	r24, 0x17	; 23
    13dc:	92 e0       	ldi	r25, 0x02	; 2
    13de:	0e 94 85 04 	call	0x90a	; 0x90a <_ZN7motor_t8positionEv>
		sendNumber(n, numbersSpaces);
		return *this;
	}
	USART1_t &operator << (const uint16_t &n)
	{
		sendNumber(n, numbersSpaces);
    13e2:	ac 01       	movw	r20, r24
    13e4:	60 e0       	ldi	r22, 0x00	; 0
    13e6:	70 e0       	ldi	r23, 0x00	; 0
    13e8:	8b e4       	ldi	r24, 0x4B	; 75
    13ea:	93 e0       	ldi	r25, 0x03	; 3
    13ec:	20 91 15 04 	lds	r18, 0x0415
    13f0:	0e 94 6c 01 	call	0x2d8	; 0x2d8 <_ZN8USART1_t10sendNumberElh>
		sendChar(ch);
		return *this;
	}
	USART1_t &operator << (const char *ch)
	{
		send(ch);
    13f4:	81 e1       	ldi	r24, 0x11	; 17
    13f6:	91 e0       	ldi	r25, 0x01	; 1
    13f8:	0e 94 1e 02 	call	0x43c	; 0x43c <_ZN8USART1_t4sendEPKc.constprop.19>
    13fc:	88 e5       	ldi	r24, 0x58	; 88
    13fe:	91 e0       	ldi	r25, 0x01	; 1
    1400:	0e 94 1e 02 	call	0x43c	; 0x43c <_ZN8USART1_t4sendEPKc.constprop.19>
		m_error.overwrite = true;
	}

	motor_t &operator [] (const uint8_t &id)
	{
		currentID = id;
    1404:	00 93 17 02 	sts	0x0217, r16
					pc<<"Motor cislo 9.  "<< motor[9].position() <<endl;
    1408:	87 e1       	ldi	r24, 0x17	; 23
    140a:	92 e0       	ldi	r25, 0x02	; 2
    140c:	0e 94 85 04 	call	0x90a	; 0x90a <_ZN7motor_t8positionEv>
		sendNumber(n, numbersSpaces);
		return *this;
	}
	USART1_t &operator << (const uint16_t &n)
	{
		sendNumber(n, numbersSpaces);
    1410:	ac 01       	movw	r20, r24
    1412:	60 e0       	ldi	r22, 0x00	; 0
    1414:	70 e0       	ldi	r23, 0x00	; 0
    1416:	8b e4       	ldi	r24, 0x4B	; 75
    1418:	93 e0       	ldi	r25, 0x03	; 3
    141a:	20 91 15 04 	lds	r18, 0x0415
    141e:	0e 94 6c 01 	call	0x2d8	; 0x2d8 <_ZN8USART1_t10sendNumberElh>
		sendChar(ch);
		return *this;
	}
	USART1_t &operator << (const char *ch)
	{
		send(ch);
    1422:	81 e1       	ldi	r24, 0x11	; 17
    1424:	91 e0       	ldi	r25, 0x01	; 1
    1426:	0e 94 1e 02 	call	0x43c	; 0x43c <_ZN8USART1_t4sendEPKc.constprop.19>
    142a:	89 e6       	ldi	r24, 0x69	; 105
    142c:	91 e0       	ldi	r25, 0x01	; 1
    142e:	0e 94 1e 02 	call	0x43c	; 0x43c <_ZN8USART1_t4sendEPKc.constprop.19>
		m_error.overwrite = true;
	}

	motor_t &operator [] (const uint8_t &id)
	{
		currentID = id;
    1432:	8a e0       	ldi	r24, 0x0A	; 10
    1434:	80 93 17 02 	sts	0x0217, r24
					pc<<"Motor cislo 10.  "<< motor[10].position() <<endl;
    1438:	87 e1       	ldi	r24, 0x17	; 23
    143a:	92 e0       	ldi	r25, 0x02	; 2
    143c:	0e 94 85 04 	call	0x90a	; 0x90a <_ZN7motor_t8positionEv>
		sendNumber(n, numbersSpaces);
		return *this;
	}
	USART1_t &operator << (const uint16_t &n)
	{
		sendNumber(n, numbersSpaces);
    1440:	ac 01       	movw	r20, r24
    1442:	60 e0       	ldi	r22, 0x00	; 0
    1444:	70 e0       	ldi	r23, 0x00	; 0
    1446:	8b e4       	ldi	r24, 0x4B	; 75
    1448:	93 e0       	ldi	r25, 0x03	; 3
    144a:	20 91 15 04 	lds	r18, 0x0415
    144e:	0e 94 6c 01 	call	0x2d8	; 0x2d8 <_ZN8USART1_t10sendNumberElh>
		sendChar(ch);
		return *this;
	}
	USART1_t &operator << (const char *ch)
	{
		send(ch);
    1452:	81 e1       	ldi	r24, 0x11	; 17
    1454:	91 e0       	ldi	r25, 0x01	; 1
    1456:	0e 94 1e 02 	call	0x43c	; 0x43c <_ZN8USART1_t4sendEPKc.constprop.19>
    145a:	8b e7       	ldi	r24, 0x7B	; 123
    145c:	91 e0       	ldi	r25, 0x01	; 1
    145e:	0e 94 1e 02 	call	0x43c	; 0x43c <_ZN8USART1_t4sendEPKc.constprop.19>
		m_error.overwrite = true;
	}

	motor_t &operator [] (const uint8_t &id)
	{
		currentID = id;
    1462:	8b e0       	ldi	r24, 0x0B	; 11
    1464:	80 93 17 02 	sts	0x0217, r24
					pc<<"Motor cislo 11.  "<< motor[11].position() <<endl;
    1468:	87 e1       	ldi	r24, 0x17	; 23
    146a:	92 e0       	ldi	r25, 0x02	; 2
    146c:	0e 94 85 04 	call	0x90a	; 0x90a <_ZN7motor_t8positionEv>
		sendNumber(n, numbersSpaces);
		return *this;
	}
	USART1_t &operator << (const uint16_t &n)
	{
		sendNumber(n, numbersSpaces);
    1470:	ac 01       	movw	r20, r24
    1472:	60 e0       	ldi	r22, 0x00	; 0
    1474:	70 e0       	ldi	r23, 0x00	; 0
    1476:	8b e4       	ldi	r24, 0x4B	; 75
    1478:	93 e0       	ldi	r25, 0x03	; 3
    147a:	20 91 15 04 	lds	r18, 0x0415
    147e:	0e 94 6c 01 	call	0x2d8	; 0x2d8 <_ZN8USART1_t10sendNumberElh>
		sendChar(ch);
		return *this;
	}
	USART1_t &operator << (const char *ch)
	{
		send(ch);
    1482:	81 e1       	ldi	r24, 0x11	; 17
    1484:	91 e0       	ldi	r25, 0x01	; 1
    1486:	0e 94 1e 02 	call	0x43c	; 0x43c <_ZN8USART1_t4sendEPKc.constprop.19>
    148a:	48 cf       	rjmp	.-368    	; 0x131c <_Z3runv+0x1a>
				
				break;
			case 'j': vychozi();
    148c:	0e 94 8e 07 	call	0xf1c	; 0xf1c <_Z7vychoziv>
				break;
    1490:	45 cf       	rjmp	.-374    	; 0x131c <_Z3runv+0x1a>
			case 'o': mer2();
    1492:	0e 94 97 05 	call	0xb2e	; 0xb2e <_Z4mer2v>
				break;
    1496:	42 cf       	rjmp	.-380    	; 0x131c <_Z3runv+0x1a>
			case 'k': prekazka();
    1498:	0e 94 8a 08 	call	0x1114	; 0x1114 <_Z8prekazkav>
				break;
    149c:	3f cf       	rjmp	.-386    	; 0x131c <_Z3runv+0x1a>
			case '1': krok1();
    149e:	0e 94 de 07 	call	0xfbc	; 0xfbc <_Z5krok1v>
				break;
    14a2:	3c cf       	rjmp	.-392    	; 0x131c <_Z3runv+0x1a>
			case '2': krok2();
    14a4:	0e 94 09 08 	call	0x1012	; 0x1012 <_Z5krok2v>
				break;
    14a8:	39 cf       	rjmp	.-398    	; 0x131c <_Z3runv+0x1a>
			case '3': krok3();
    14aa:	0e 94 34 08 	call	0x1068	; 0x1068 <_Z5krok3v>
				break;
    14ae:	36 cf       	rjmp	.-404    	; 0x131c <_Z3runv+0x1a>
			case '4': krok4();
    14b0:	0e 94 5f 08 	call	0x10be	; 0x10be <_Z5krok4v>
				break;
    14b4:	33 cf       	rjmp	.-410    	; 0x131c <_Z3runv+0x1a>

	bool peek(char & data)
	{
		if(m_rx.is_empty())
			return false;
		data = m_rx.pop();
    14b6:	8b e4       	ldi	r24, 0x4B	; 75
    14b8:	93 e0       	ldi	r25, 0x03	; 3
    14ba:	0e 94 7d 02 	call	0x4fa	; 0x4fa <_ZN5queueIcLj96EE3popEv>
    14be:	28 2f       	mov	r18, r24
		numbersSpaces = n>0?n:1;
	}
//********
	USART1_t &operator << (const char &ch)
	{
		sendChar(ch);
    14c0:	8b e4       	ldi	r24, 0x4B	; 75
    14c2:	93 e0       	ldi	r25, 0x03	; 3
    14c4:	62 2f       	mov	r22, r18
    14c6:	29 83       	std	Y+1, r18	; 0x01
    14c8:	0e 94 56 01 	call	0x2ac	; 0x2ac <_ZN8USART1_t8sendCharEc>
	{
/*		if(buttons.isStart())
		jizda();*/
		x=pc.get();
		pc<<x;
		switch(x)
    14cc:	29 81       	ldd	r18, Y+1	; 0x01
    14ce:	27 36       	cpi	r18, 0x67	; 103
    14d0:	09 f4       	brne	.+2      	; 0x14d4 <_Z3runv+0x1d2>
    14d2:	42 cf       	rjmp	.-380    	; 0x1358 <_Z3runv+0x56>
    14d4:	28 36       	cpi	r18, 0x68	; 104
    14d6:	e0 f4       	brcc	.+56     	; 0x1510 <_Z3runv+0x20e>
    14d8:	24 33       	cpi	r18, 0x34	; 52
    14da:	51 f3       	breq	.-44     	; 0x14b0 <_Z3runv+0x1ae>
    14dc:	25 33       	cpi	r18, 0x35	; 53
    14de:	40 f4       	brcc	.+16     	; 0x14f0 <_Z3runv+0x1ee>
    14e0:	22 33       	cpi	r18, 0x32	; 50
    14e2:	01 f3       	breq	.-64     	; 0x14a4 <_Z3runv+0x1a2>
    14e4:	23 33       	cpi	r18, 0x33	; 51
    14e6:	08 f7       	brcc	.-62     	; 0x14aa <_Z3runv+0x1a8>
    14e8:	21 33       	cpi	r18, 0x31	; 49
    14ea:	09 f0       	breq	.+2      	; 0x14ee <_Z3runv+0x1ec>
    14ec:	17 cf       	rjmp	.-466    	; 0x131c <_Z3runv+0x1a>
    14ee:	d7 cf       	rjmp	.-82     	; 0x149e <_Z3runv+0x19c>
    14f0:	22 36       	cpi	r18, 0x62	; 98
    14f2:	09 f4       	brne	.+2      	; 0x14f6 <_Z3runv+0x1f4>
    14f4:	3a cf       	rjmp	.-396    	; 0x136a <_Z3runv+0x68>
    14f6:	23 36       	cpi	r18, 0x63	; 99
    14f8:	20 f4       	brcc	.+8      	; 0x1502 <_Z3runv+0x200>
    14fa:	21 36       	cpi	r18, 0x61	; 97
    14fc:	09 f0       	breq	.+2      	; 0x1500 <_Z3runv+0x1fe>
    14fe:	0e cf       	rjmp	.-484    	; 0x131c <_Z3runv+0x1a>
    1500:	20 cf       	rjmp	.-448    	; 0x1342 <_Z3runv+0x40>
    1502:	24 36       	cpi	r18, 0x64	; 100
    1504:	09 f4       	brne	.+2      	; 0x1508 <_Z3runv+0x206>
    1506:	20 cf       	rjmp	.-448    	; 0x1348 <_Z3runv+0x46>
    1508:	26 36       	cpi	r18, 0x66	; 102
    150a:	09 f0       	breq	.+2      	; 0x150e <_Z3runv+0x20c>
    150c:	07 cf       	rjmp	.-498    	; 0x131c <_Z3runv+0x1a>
    150e:	22 cf       	rjmp	.-444    	; 0x1354 <_Z3runv+0x52>
    1510:	21 37       	cpi	r18, 0x71	; 113
    1512:	09 f4       	brne	.+2      	; 0x1516 <_Z3runv+0x214>
    1514:	1c cf       	rjmp	.-456    	; 0x134e <_Z3runv+0x4c>
    1516:	22 37       	cpi	r18, 0x72	; 114
    1518:	50 f4       	brcc	.+20     	; 0x152e <_Z3runv+0x22c>
    151a:	2b 36       	cpi	r18, 0x6B	; 107
    151c:	09 f4       	brne	.+2      	; 0x1520 <_Z3runv+0x21e>
    151e:	bc cf       	rjmp	.-136    	; 0x1498 <_Z3runv+0x196>
    1520:	2f 36       	cpi	r18, 0x6F	; 111
    1522:	09 f4       	brne	.+2      	; 0x1526 <_Z3runv+0x224>
    1524:	b6 cf       	rjmp	.-148    	; 0x1492 <_Z3runv+0x190>
    1526:	2a 36       	cpi	r18, 0x6A	; 106
    1528:	09 f0       	breq	.+2      	; 0x152c <_Z3runv+0x22a>
    152a:	f8 ce       	rjmp	.-528    	; 0x131c <_Z3runv+0x1a>
    152c:	af cf       	rjmp	.-162    	; 0x148c <_Z3runv+0x18a>
    152e:	26 37       	cpi	r18, 0x76	; 118
    1530:	09 f4       	brne	.+2      	; 0x1534 <_Z3runv+0x232>
    1532:	15 cf       	rjmp	.-470    	; 0x135e <_Z3runv+0x5c>
    1534:	27 37       	cpi	r18, 0x77	; 119
    1536:	20 f4       	brcc	.+8      	; 0x1540 <_Z3runv+0x23e>
    1538:	23 37       	cpi	r18, 0x73	; 115
    153a:	09 f0       	breq	.+2      	; 0x153e <_Z3runv+0x23c>
    153c:	ef ce       	rjmp	.-546    	; 0x131c <_Z3runv+0x1a>
    153e:	fe ce       	rjmp	.-516    	; 0x133c <_Z3runv+0x3a>
    1540:	27 37       	cpi	r18, 0x77	; 119
    1542:	09 f4       	brne	.+2      	; 0x1546 <_Z3runv+0x244>
    1544:	f8 ce       	rjmp	.-528    	; 0x1336 <_Z3runv+0x34>
    1546:	29 37       	cpi	r18, 0x79	; 121
    1548:	09 f0       	breq	.+2      	; 0x154c <_Z3runv+0x24a>
    154a:	e8 ce       	rjmp	.-560    	; 0x131c <_Z3runv+0x1a>
    154c:	0b cf       	rjmp	.-490    	; 0x1364 <_Z3runv+0x62>

0000154e <__vector_19>:
	if((UCSR0A & (1<<FE0)) == (1<<FE0))
		return;
	bus.data_in(ch);
}
ISR(USART0_UDRE_vect)
{
    154e:	1f 92       	push	r1
    1550:	0f 92       	push	r0
    1552:	0f b6       	in	r0, 0x3f	; 63
    1554:	0f 92       	push	r0
    1556:	0b b6       	in	r0, 0x3b	; 59
    1558:	0f 92       	push	r0
    155a:	11 24       	eor	r1, r1
    155c:	2f 93       	push	r18
    155e:	3f 93       	push	r19
    1560:	4f 93       	push	r20
    1562:	5f 93       	push	r21
    1564:	6f 93       	push	r22
    1566:	7f 93       	push	r23
    1568:	8f 93       	push	r24
    156a:	9f 93       	push	r25
    156c:	af 93       	push	r26
    156e:	bf 93       	push	r27
    1570:	ef 93       	push	r30
    1572:	ff 93       	push	r31
	volatile uint16_t m_write;
public:
	volatile bool overwrite;
	bool is_empty() const
	{
		if(m_write == m_read)
    1574:	20 91 44 03 	lds	r18, 0x0344
    1578:	30 91 45 03 	lds	r19, 0x0345
    157c:	80 91 42 03 	lds	r24, 0x0342
    1580:	90 91 43 03 	lds	r25, 0x0343
    1584:	28 17       	cp	r18, r24
    1586:	39 07       	cpc	r19, r25
    1588:	11 f4       	brne	.+4      	; 0x158e <__vector_19+0x40>
	}
	else
	{
		//PORTE &= ~(1<<PE2);
		//PORTE |= (1<<PE3);
		UCSR0B &= ~(1<<UDRIE0);
    158a:	55 98       	cbi	0x0a, 5	; 10
    158c:	05 c0       	rjmp	.+10     	; 0x1598 <__vector_19+0x4a>

	bool data_out(uint8_t &ch)
	{
		if(m_tx.is_empty())
			return false;
		ch = m_tx.pop();
    158e:	82 ee       	ldi	r24, 0xE2	; 226
    1590:	92 e0       	ldi	r25, 0x02	; 2
    1592:	0e 94 5a 03 	call	0x6b4	; 0x6b4 <_ZN5queueIhLj96EE3popEv>
	uint8_t data;
	if(bus.data_out(data))
	{
		//PORTE &= ~(1<<PE3);
		//PORTE |= (1<<PE2);
		UDR0 = data;
    1596:	8c b9       	out	0x0c, r24	; 12
	{
		//PORTE &= ~(1<<PE2);
		//PORTE |= (1<<PE3);
		UCSR0B &= ~(1<<UDRIE0);
	}
}
    1598:	ff 91       	pop	r31
    159a:	ef 91       	pop	r30
    159c:	bf 91       	pop	r27
    159e:	af 91       	pop	r26
    15a0:	9f 91       	pop	r25
    15a2:	8f 91       	pop	r24
    15a4:	7f 91       	pop	r23
    15a6:	6f 91       	pop	r22
    15a8:	5f 91       	pop	r21
    15aa:	4f 91       	pop	r20
    15ac:	3f 91       	pop	r19
    15ae:	2f 91       	pop	r18
    15b0:	0f 90       	pop	r0
    15b2:	0b be       	out	0x3b, r0	; 59
    15b4:	0f 90       	pop	r0
    15b6:	0f be       	out	0x3f, r0	; 63
    15b8:	0f 90       	pop	r0
    15ba:	1f 90       	pop	r1
    15bc:	18 95       	reti

000015be <main>:
void run();

int main()
{
	//LEDs initialization
	DDRC = (1<<PC0)|(1<<PC1)|(1<<PC2)|(1<<PC3)|(1<<PC4)|(1<<PC5)|(1<<PC6);
    15be:	8f e7       	ldi	r24, 0x7F	; 127
    15c0:	84 bb       	out	0x14, r24	; 20
	PORTC = (1<<PC1)|(1<<PC2)|(1<<PC3)|(1<<PC4)|(1<<PC5)|(1<<PC6);
    15c2:	8e e7       	ldi	r24, 0x7E	; 126
    15c4:	85 bb       	out	0x15, r24	; 21
	//buttons initialization
	DDRE = (1<<PE2)|(1<<PE3);
    15c6:	8c e0       	ldi	r24, 0x0C	; 12
    15c8:	82 b9       	out	0x02, r24	; 2
	PORTE = (1<<PE7)|(1<<PE6)|(1<<PE5)|(1<<PE4)|(1<<PE0);
    15ca:	81 ef       	ldi	r24, 0xF1	; 241
    15cc:	83 b9       	out	0x03, r24	; 3
	DDRD = (1<<PD5);
    15ce:	80 e2       	ldi	r24, 0x20	; 32
    15d0:	81 bb       	out	0x11, r24	; 17
	PORTD = (1<<PD0)|(1<<PD5);
    15d2:	81 e2       	ldi	r24, 0x21	; 33
    15d4:	82 bb       	out	0x12, r24	; 18
		return true;
	}

	void init(uint32_t speed)
	{
		m_tx.overwrite = false;
    15d6:	10 92 14 04 	sts	0x0414, r1
		m_rx.overwrite = false;
    15da:	10 92 af 03 	sts	0x03AF, r1
		UCSR1A = (1<<U2X1);
    15de:	d2 e0       	ldi	r29, 0x02	; 2
    15e0:	d0 93 9b 00 	sts	0x009B, r29
		UCSR1B = ((1<<RXCIE1)|(1<<RXEN1)|(1<<TXEN1));
    15e4:	98 e9       	ldi	r25, 0x98	; 152
    15e6:	90 93 9a 00 	sts	0x009A, r25
		UCSR1C = ((1<<UCSZ10)|(1<<UCSZ11));
    15ea:	86 e0       	ldi	r24, 0x06	; 6
    15ec:	80 93 9d 00 	sts	0x009D, r24
		speed = (((F_CPU/(float(8*speed)))-1)-((F_CPU/(8*speed))-1))<0.5?((F_CPU/(8*speed))-1):((F_CPU/(8*speed)));
		UBRR1H = ((speed&0xFF00)>>8);
    15f0:	10 92 98 00 	sts	0x0098, r1
		UBRR1L = (speed&0x00FF);
    15f4:	22 e2       	ldi	r18, 0x22	; 34
    15f6:	20 93 99 00 	sts	0x0099, r18
		numbersSpaces = 1;
    15fa:	c1 e0       	ldi	r28, 0x01	; 1
    15fc:	c0 93 15 04 	sts	0x0415, r28
		cin_isFirst = true;
    1600:	c0 93 16 04 	sts	0x0416, r28
		cin_isGood = true;
    1604:	c0 93 38 04 	sts	0x0438, r28
		UCSR0B = (1<<RXCIE0)|(1<<RXEN0);
	}

	void init(uint32_t speed)
	{
		m_tx.overwrite = false;
    1608:	10 92 46 03 	sts	0x0346, r1
		m_rx.overwrite = false;
    160c:	10 92 e1 02 	sts	0x02E1, r1
		UCSR0A = (1<<U2X0);
    1610:	db b9       	out	0x0b, r29	; 11
		UCSR0B = (1<<RXCIE0)|(1<<RXEN0)|(1<<TXEN0);
    1612:	9a b9       	out	0x0a, r25	; 10
		UCSR0C = (1<<UCSZ00)|(1<<UCSZ01);
    1614:	80 93 95 00 	sts	0x0095, r24
		speed = (((F_CPU/(float(8*speed)))-1)-((F_CPU/(8*speed))-1))<0.5?((F_CPU/(8*speed))-1):((F_CPU/(8*speed)));
		UBRR0H = ((speed&0xFF00)>>8);
    1618:	10 92 90 00 	sts	0x0090, r1
		UBRR0L = (speed&0x00FF);
    161c:	c9 b9       	out	0x09, r28	; 9
		DDRE |= (1<<PE2)|(1<<PE3);
    161e:	82 b1       	in	r24, 0x02	; 2
    1620:	8c 60       	ori	r24, 0x0C	; 12
    1622:	82 b9       	out	0x02, r24	; 2
		receive();
    1624:	0e 94 a8 00 	call	0x150	; 0x150 <_ZN11dynamixel_t7receiveEv.isra.1>
	// Initialize the RS232 line to PC
	pc.init(DYNAMIXEL_PC_BPS);
	//Dynamixel bus initialization
	bus.init(DYNAMIXEL_BUS_BPS);
	//stopwatch initialization
	TIMSK = (1<<TOIE0);
    1628:	c7 bf       	out	0x37, r28	; 55
	TCCR0 = (1<<CS01);
    162a:	d3 bf       	out	0x33, r29	; 51
	//starting program
	sei();
    162c:	78 94       	sei
	syncWait(1000);
    162e:	68 ee       	ldi	r22, 0xE8	; 232
    1630:	73 e0       	ldi	r23, 0x03	; 3
    1632:	80 e0       	ldi	r24, 0x00	; 0
    1634:	90 e0       	ldi	r25, 0x00	; 0
    1636:	0e 94 8a 00 	call	0x114	; 0x114 <_Z8syncWaitm>
	pc.send("\n\n\r  ok \n\r");
    163a:	8d e8       	ldi	r24, 0x8D	; 141
    163c:	91 e0       	ldi	r25, 0x01	; 1
    163e:	0e 94 1e 02 	call	0x43c	; 0x43c <_ZN8USART1_t4sendEPKc.constprop.19>
	volatile uint16_t m_write;
public:
	volatile bool overwrite;
	bool is_empty() const
	{
		if(m_write == m_read)
    1642:	20 91 12 04 	lds	r18, 0x0412
    1646:	30 91 13 04 	lds	r19, 0x0413
    164a:	80 91 10 04 	lds	r24, 0x0410
    164e:	90 91 11 04 	lds	r25, 0x0411
    1652:	28 17       	cp	r18, r24
    1654:	39 07       	cpc	r19, r25
    1656:	21 f0       	breq	.+8      	; 0x1660 <main+0xa2>
		return true;
	}

	bool is_send() const
	{
		if(!m_tx.is_empty() && ((UCSR1A & (1<<TXC1)) == 0))
    1658:	80 91 9b 00 	lds	r24, 0x009B
    165c:	86 ff       	sbrs	r24, 6
    165e:	f1 cf       	rjmp	.-30     	; 0x1642 <main+0x84>
			return false;
		UCSR1A |= (1<<TXC1);
    1660:	80 91 9b 00 	lds	r24, 0x009B
    1664:	80 64       	ori	r24, 0x40	; 64
    1666:	80 93 9b 00 	sts	0x009B, r24
	//starting program
	sei();
	syncWait(1000);
	pc.send("\n\n\r  ok \n\r");
	pc.wait();
	run();//user program
    166a:	0e 94 81 09 	call	0x1302	; 0x1302 <_Z3runv>

0000166e <_GLOBAL__sub_I__Z3absl>:
	uint8_t pointer;
public:
	string()
	{
		//m_size = STRING_DEFAULT_SIZE;
		for(pointer = 0; pointer != m_size; ++pointer)
    166e:	80 e0       	ldi	r24, 0x00	; 0
    1670:	06 c0       	rjmp	.+12     	; 0x167e <_GLOBAL__sub_I__Z3absl+0x10>
			m_data[pointer] = 0;
    1672:	e8 2f       	mov	r30, r24
    1674:	f0 e0       	ldi	r31, 0x00	; 0
    1676:	e9 5e       	subi	r30, 0xE9	; 233
    1678:	fb 4f       	sbci	r31, 0xFB	; 251
    167a:	10 82       	st	Z, r1
    167c:	8f 5f       	subi	r24, 0xFF	; 255
	uint8_t pointer;
public:
	string()
	{
		//m_size = STRING_DEFAULT_SIZE;
		for(pointer = 0; pointer != m_size; ++pointer)
    167e:	80 32       	cpi	r24, 0x20	; 32
    1680:	c1 f7       	brne	.-16     	; 0x1672 <_GLOBAL__sub_I__Z3absl+0x4>
			m_data[pointer] = 0;
		pointer = 0;
    1682:	10 92 37 04 	sts	0x0437, r1
	uint8_t currentID;
	queue <uint8_t, AX_ERROR_BUF> m_error;

	motor_t()
	{
		m_error.overwrite = true;
    1686:	81 e0       	ldi	r24, 0x01	; 1
    1688:	80 93 7c 02 	sts	0x027C, r24
	uint8_t currentID;
	queue <uint8_t, AX_ERROR_BUF> m_error;

	sensor_t()
	{
		m_error.overwrite = true;
    168c:	80 93 16 02 	sts	0x0216, r24
		currentID = 100;
    1690:	84 e6       	ldi	r24, 0x64	; 100
    1692:	80 93 b1 01 	sts	0x01B1, r24
			case '4': krok4();
				break;
			
		}
	}
}
    1696:	08 95       	ret

00001698 <__divmodsi4>:
    1698:	97 fb       	bst	r25, 7
    169a:	09 2e       	mov	r0, r25
    169c:	05 26       	eor	r0, r21
    169e:	0e d0       	rcall	.+28     	; 0x16bc <__divmodsi4_neg1>
    16a0:	57 fd       	sbrc	r21, 7
    16a2:	04 d0       	rcall	.+8      	; 0x16ac <__divmodsi4_neg2>
    16a4:	14 d0       	rcall	.+40     	; 0x16ce <__udivmodsi4>
    16a6:	0a d0       	rcall	.+20     	; 0x16bc <__divmodsi4_neg1>
    16a8:	00 1c       	adc	r0, r0
    16aa:	38 f4       	brcc	.+14     	; 0x16ba <__divmodsi4_exit>

000016ac <__divmodsi4_neg2>:
    16ac:	50 95       	com	r21
    16ae:	40 95       	com	r20
    16b0:	30 95       	com	r19
    16b2:	21 95       	neg	r18
    16b4:	3f 4f       	sbci	r19, 0xFF	; 255
    16b6:	4f 4f       	sbci	r20, 0xFF	; 255
    16b8:	5f 4f       	sbci	r21, 0xFF	; 255

000016ba <__divmodsi4_exit>:
    16ba:	08 95       	ret

000016bc <__divmodsi4_neg1>:
    16bc:	f6 f7       	brtc	.-4      	; 0x16ba <__divmodsi4_exit>
    16be:	90 95       	com	r25
    16c0:	80 95       	com	r24
    16c2:	70 95       	com	r23
    16c4:	61 95       	neg	r22
    16c6:	7f 4f       	sbci	r23, 0xFF	; 255
    16c8:	8f 4f       	sbci	r24, 0xFF	; 255
    16ca:	9f 4f       	sbci	r25, 0xFF	; 255
    16cc:	08 95       	ret

000016ce <__udivmodsi4>:
    16ce:	a1 e2       	ldi	r26, 0x21	; 33
    16d0:	1a 2e       	mov	r1, r26
    16d2:	aa 1b       	sub	r26, r26
    16d4:	bb 1b       	sub	r27, r27
    16d6:	fd 01       	movw	r30, r26
    16d8:	0d c0       	rjmp	.+26     	; 0x16f4 <__udivmodsi4_ep>

000016da <__udivmodsi4_loop>:
    16da:	aa 1f       	adc	r26, r26
    16dc:	bb 1f       	adc	r27, r27
    16de:	ee 1f       	adc	r30, r30
    16e0:	ff 1f       	adc	r31, r31
    16e2:	a2 17       	cp	r26, r18
    16e4:	b3 07       	cpc	r27, r19
    16e6:	e4 07       	cpc	r30, r20
    16e8:	f5 07       	cpc	r31, r21
    16ea:	20 f0       	brcs	.+8      	; 0x16f4 <__udivmodsi4_ep>
    16ec:	a2 1b       	sub	r26, r18
    16ee:	b3 0b       	sbc	r27, r19
    16f0:	e4 0b       	sbc	r30, r20
    16f2:	f5 0b       	sbc	r31, r21

000016f4 <__udivmodsi4_ep>:
    16f4:	66 1f       	adc	r22, r22
    16f6:	77 1f       	adc	r23, r23
    16f8:	88 1f       	adc	r24, r24
    16fa:	99 1f       	adc	r25, r25
    16fc:	1a 94       	dec	r1
    16fe:	69 f7       	brne	.-38     	; 0x16da <__udivmodsi4_loop>
    1700:	60 95       	com	r22
    1702:	70 95       	com	r23
    1704:	80 95       	com	r24
    1706:	90 95       	com	r25
    1708:	9b 01       	movw	r18, r22
    170a:	ac 01       	movw	r20, r24
    170c:	bd 01       	movw	r22, r26
    170e:	cf 01       	movw	r24, r30
    1710:	08 95       	ret

00001712 <__tablejump_elpm__>:
    1712:	07 90       	elpm	r0, Z+
    1714:	f6 91       	elpm	r31, Z
    1716:	e0 2d       	mov	r30, r0
    1718:	09 94       	ijmp

0000171a <_exit>:
    171a:	f8 94       	cli

0000171c <__stop_program>:
    171c:	ff cf       	rjmp	.-2      	; 0x171c <__stop_program>
