
Robot_vychozi_CM5.elf:     file format elf32-avr

Sections:
Idx Name          Size      VMA       LMA       File off  Algn
  0 .data         000000e2  00800100  000029bc  00002a50  2**0
                  CONTENTS, ALLOC, LOAD, DATA
  1 .text         000029bc  00000000  00000000  00000094  2**1
                  CONTENTS, ALLOC, LOAD, READONLY, CODE
  2 .bss          00000293  008001e2  008001e2  00002b32  2**0
                  ALLOC
  3 .stab         0000351c  00000000  00000000  00002b34  2**2
                  CONTENTS, READONLY, DEBUGGING
  4 .stabstr      00000c5f  00000000  00000000  00006050  2**0
                  CONTENTS, READONLY, DEBUGGING
  5 .debug_aranges 00000150  00000000  00000000  00006cb0  2**3
                  CONTENTS, READONLY, DEBUGGING
  6 .debug_info   00005215  00000000  00000000  00006e00  2**0
                  CONTENTS, READONLY, DEBUGGING
  7 .debug_abbrev 0000081f  00000000  00000000  0000c015  2**0
                  CONTENTS, READONLY, DEBUGGING
  8 .debug_line   00000eff  00000000  00000000  0000c834  2**0
                  CONTENTS, READONLY, DEBUGGING
  9 .debug_frame  00000834  00000000  00000000  0000d734  2**2
                  CONTENTS, READONLY, DEBUGGING
 10 .debug_str    00001ffb  00000000  00000000  0000df68  2**0
                  CONTENTS, READONLY, DEBUGGING
 11 .debug_loc    000021f9  00000000  00000000  0000ff63  2**0
                  CONTENTS, READONLY, DEBUGGING
 12 .debug_ranges 00000248  00000000  00000000  0001215c  2**0
                  CONTENTS, READONLY, DEBUGGING

Disassembly of section .text:

00000000 <__vectors>:
       0:	0c 94 f1 00 	jmp	0x1e2	; 0x1e2 <__ctors_end>
       4:	0c 94 20 01 	jmp	0x240	; 0x240 <__bad_interrupt>
       8:	0c 94 20 01 	jmp	0x240	; 0x240 <__bad_interrupt>
       c:	0c 94 20 01 	jmp	0x240	; 0x240 <__bad_interrupt>
      10:	0c 94 20 01 	jmp	0x240	; 0x240 <__bad_interrupt>
      14:	0c 94 20 01 	jmp	0x240	; 0x240 <__bad_interrupt>
      18:	0c 94 20 01 	jmp	0x240	; 0x240 <__bad_interrupt>
      1c:	0c 94 20 01 	jmp	0x240	; 0x240 <__bad_interrupt>
      20:	0c 94 20 01 	jmp	0x240	; 0x240 <__bad_interrupt>
      24:	0c 94 20 01 	jmp	0x240	; 0x240 <__bad_interrupt>
      28:	0c 94 20 01 	jmp	0x240	; 0x240 <__bad_interrupt>
      2c:	0c 94 20 01 	jmp	0x240	; 0x240 <__bad_interrupt>
      30:	0c 94 20 01 	jmp	0x240	; 0x240 <__bad_interrupt>
      34:	0c 94 20 01 	jmp	0x240	; 0x240 <__bad_interrupt>
      38:	0c 94 20 01 	jmp	0x240	; 0x240 <__bad_interrupt>
      3c:	0c 94 20 01 	jmp	0x240	; 0x240 <__bad_interrupt>
      40:	0c 94 5f 01 	jmp	0x2be	; 0x2be <__vector_16>
      44:	0c 94 20 01 	jmp	0x240	; 0x240 <__bad_interrupt>
      48:	0c 94 59 06 	jmp	0xcb2	; 0xcb2 <__vector_18>
      4c:	0c 94 15 10 	jmp	0x202a	; 0x202a <__vector_19>
      50:	0c 94 20 01 	jmp	0x240	; 0x240 <__bad_interrupt>
      54:	0c 94 20 01 	jmp	0x240	; 0x240 <__bad_interrupt>
      58:	0c 94 20 01 	jmp	0x240	; 0x240 <__bad_interrupt>
      5c:	0c 94 20 01 	jmp	0x240	; 0x240 <__bad_interrupt>
      60:	0c 94 20 01 	jmp	0x240	; 0x240 <__bad_interrupt>
      64:	0c 94 20 01 	jmp	0x240	; 0x240 <__bad_interrupt>
      68:	0c 94 20 01 	jmp	0x240	; 0x240 <__bad_interrupt>
      6c:	0c 94 20 01 	jmp	0x240	; 0x240 <__bad_interrupt>
      70:	0c 94 20 01 	jmp	0x240	; 0x240 <__bad_interrupt>
      74:	0c 94 20 01 	jmp	0x240	; 0x240 <__bad_interrupt>
      78:	0c 94 1c 03 	jmp	0x638	; 0x638 <__vector_30>
      7c:	0c 94 d5 05 	jmp	0xbaa	; 0xbaa <__vector_31>
      80:	0c 94 20 01 	jmp	0x240	; 0x240 <__bad_interrupt>
      84:	0c 94 20 01 	jmp	0x240	; 0x240 <__bad_interrupt>
      88:	0c 94 20 01 	jmp	0x240	; 0x240 <__bad_interrupt>
      8c:	08 4a       	sbci	r16, 0xA8	; 168
      8e:	d7 3b       	cpi	r29, 0xB7	; 183
      90:	3b ce       	rjmp	.-906    	; 0xfffffd08 <__eeprom_end+0xff7efd08>
      92:	01 6e       	ori	r16, 0xE1	; 225
      94:	84 bc       	out	0x24, r8	; 36
      96:	bf fd       	.word	0xfdbf	; ????
      98:	c1 2f       	mov	r28, r17
      9a:	3d 6c       	ori	r19, 0xCD	; 205
      9c:	74 31       	cpi	r23, 0x14	; 20
      9e:	9a bd       	out	0x2a, r25	; 42
      a0:	56 83       	std	Z+6, r21	; 0x06
      a2:	3d da       	rcall	.-2950   	; 0xfffff51e <__eeprom_end+0xff7ef51e>
      a4:	3d 00       	.word	0x003d	; ????
      a6:	c7 7f       	andi	r28, 0xF7	; 247
      a8:	11 be       	out	0x31, r1	; 49
      aa:	d9 e4       	ldi	r29, 0x49	; 73
      ac:	bb 4c       	sbci	r27, 0xCB	; 203
      ae:	3e 91       	ld	r19, -X
      b0:	6b aa       	sts	0x9b, r22
      b2:	aa be       	out	0x3a, r10	; 58
      b4:	00 00       	nop
      b6:	00 80       	ld	r0, Z
      b8:	3f 07       	cpc	r19, r31
      ba:	2c 7a       	andi	r18, 0xAC	; 172
      bc:	a5 ba       	out	0x15, r10	; 21
      be:	6c c5       	rjmp	.+2776   	; 0xb98 <_Z21aktualizuj_hraci_polev+0x44a>
      c0:	90 da       	rcall	.-2784   	; 0xfffff5e2 <__eeprom_end+0xff7ef5e2>
      c2:	3b 93       	.word	0x933b	; ????
      c4:	65 fc       	sbrc	r6, 5
      c6:	8b bc       	out	0x2b, r8	; 43
      c8:	53 f8       	bld	r5, 3
      ca:	10 fd       	sbrc	r17, 0
      cc:	3c 56       	subi	r19, 0x6C	; 108
      ce:	92 83       	std	Z+2, r25	; 0x02
      d0:	4d bd       	out	0x2d, r20	; 45
      d2:	87 9d       	mul	r24, r7
      d4:	3a b6       	in	r3, 0x3a	; 58
      d6:	3d cb       	rjmp	.-2438   	; 0xfffff752 <__eeprom_end+0xff7ef752>
      d8:	c9 bf       	out	0x39, r28	; 57
      da:	5b be       	out	0x3b, r5	; 59
      dc:	73 da       	rcall	.-2842   	; 0xfffff5c4 <__eeprom_end+0xff7ef5c4>
      de:	0f c9       	rjmp	.-3554   	; 0xfffff2fe <__eeprom_end+0xff7ef2fe>
      e0:	3f 05       	cpc	r19, r15
      e2:	a8 4c       	sbci	r26, 0xC8	; 200
      e4:	cd b2       	in	r12, 0x1d	; 29
      e6:	d4 4e       	sbci	r29, 0xE4	; 228
      e8:	b9 38       	cpi	r27, 0x89	; 137
      ea:	36 a9       	sts	0x46, r19
      ec:	02 0c       	add	r0, r2
      ee:	50 b9       	out	0x00, r21	; 0
      f0:	91 86       	std	Z+9, r9	; 0x09
      f2:	88 08       	sbc	r8, r8
      f4:	3c a6       	lds	r19, 0xbc
      f6:	aa aa       	sts	0x9a, r26
      f8:	2a be       	out	0x3a, r2	; 58
      fa:	00 00       	nop
      fc:	00 80       	ld	r0, Z
      fe:	3f c8       	rjmp	.-3970   	; 0xfffff17e <__eeprom_end+0xff7ef17e>

000000ff <_ZL16hodnoty_rychlost>:
      ff:	c8 00 c8 00 c8 00 c8 00 c8 00 c8 00 c8 00           ..............

0000010d <_ZL13VychoziPozice>:
     10d:	00 02 2c 02 a7 00 cf 03 8b 02 e6 01 24 02           ..,.........$.

0000011b <_ZL7Motor_1>:
     11b:	00 02 32 00 0e 00 4b 02 2a 02 fe 01 d4 01 ac 01     ..2...K.*.......
     12b:	f6 03 cc 03 a7 03 7c 03 5a 03 33 03 0c 03 e7 02     ......|.Z.3.....
     13b:	bc 02 93 02 72 02 4d 02 24 02 fe 01 d6 01 b2 01     ....r.M.$.......
     14b:	88 01 60 01 3c 01 1b 01 ef 00 ca 00 a8 00 7e 00     ..`.<.........~.
     15b:	58 00 c6 00 46 03 a8 00 a8 00 14 03                 X...F.......

00000167 <_ZL18PohybyOstaniMotory>:
     167:	5f 01 4e 01 22 01 62 02 62 02 eb 02 f1 00 f1 00     _.N.".b.b.......
     177:	f1 00 2f 02 2f 02 8c 02 5d 02 50 02 9f 01 2c 03     .././...].P...,.
     187:	28 03 2b 03 12 02 12 02 a1 00 f4 02 f4 02 f4 02     (.+.............
     197:	d3 01 d3 01 f4 00 27 00 2e 01 bf 01 c9 00 0e 01     ......'.........
     1a7:	0e 01 b1 02 b1 02 f8 02 89 01 89 01 27 01 ca 00     ............'...
     1b7:	ca 00 5a 01 d1 03 9b 01 dd 01 b6 00 b6 00 b7 00     ..Z.............
     1c7:	18 03 18 03 53 03 b5 00 b5 00 fe 00 f5 00 f5 00     ....S...........
     1d7:	be 00 b0 02 d6 00 aa 00 00                          .........

000001e0 <__ctors_start>:
     1e0:	1f 11       	cpse	r17, r15

000001e2 <__ctors_end>:
     1e2:	11 24       	eor	r1, r1
     1e4:	1f be       	out	0x3f, r1	; 63
     1e6:	cf ef       	ldi	r28, 0xFF	; 255
     1e8:	d0 e1       	ldi	r29, 0x10	; 16
     1ea:	de bf       	out	0x3e, r29	; 62
     1ec:	cd bf       	out	0x3d, r28	; 61

000001ee <__do_copy_data>:
     1ee:	11 e0       	ldi	r17, 0x01	; 1
     1f0:	a0 e0       	ldi	r26, 0x00	; 0
     1f2:	b1 e0       	ldi	r27, 0x01	; 1
     1f4:	ec eb       	ldi	r30, 0xBC	; 188
     1f6:	f9 e2       	ldi	r31, 0x29	; 41
     1f8:	00 e0       	ldi	r16, 0x00	; 0
     1fa:	0b bf       	out	0x3b, r16	; 59
     1fc:	02 c0       	rjmp	.+4      	; 0x202 <__do_copy_data+0x14>
     1fe:	07 90       	elpm	r0, Z+
     200:	0d 92       	st	X+, r0
     202:	a2 3e       	cpi	r26, 0xE2	; 226
     204:	b1 07       	cpc	r27, r17
     206:	d9 f7       	brne	.-10     	; 0x1fe <__do_copy_data+0x10>

00000208 <__do_clear_bss>:
     208:	14 e0       	ldi	r17, 0x04	; 4
     20a:	a2 ee       	ldi	r26, 0xE2	; 226
     20c:	b1 e0       	ldi	r27, 0x01	; 1
     20e:	01 c0       	rjmp	.+2      	; 0x212 <.do_clear_bss_start>

00000210 <.do_clear_bss_loop>:
     210:	1d 92       	st	X+, r1

00000212 <.do_clear_bss_start>:
     212:	a5 37       	cpi	r26, 0x75	; 117
     214:	b1 07       	cpc	r27, r17
     216:	e1 f7       	brne	.-8      	; 0x210 <.do_clear_bss_loop>

00000218 <__do_global_ctors>:
     218:	11 e0       	ldi	r17, 0x01	; 1
     21a:	c2 ee       	ldi	r28, 0xE2	; 226
     21c:	d1 e0       	ldi	r29, 0x01	; 1
     21e:	00 e0       	ldi	r16, 0x00	; 0
     220:	06 c0       	rjmp	.+12     	; 0x22e <__do_global_ctors+0x16>
     222:	22 97       	sbiw	r28, 0x02	; 2
     224:	01 09       	sbc	r16, r1
     226:	fe 01       	movw	r30, r28
     228:	0b bf       	out	0x3b, r16	; 59
     22a:	0e 94 d8 14 	call	0x29b0	; 0x29b0 <__tablejump_elpm__>
     22e:	c0 3e       	cpi	r28, 0xE0	; 224
     230:	d1 07       	cpc	r29, r17
     232:	80 e0       	ldi	r24, 0x00	; 0
     234:	08 07       	cpc	r16, r24
     236:	a9 f7       	brne	.-22     	; 0x222 <__do_global_ctors+0xa>
     238:	0e 94 c7 10 	call	0x218e	; 0x218e <main>
     23c:	0c 94 dc 14 	jmp	0x29b8	; 0x29b8 <_exit>

00000240 <__bad_interrupt>:
     240:	0c 94 00 00 	jmp	0	; 0x0 <__vectors>

00000244 <_Z3absl>:
		pointer = 0;
	}
};

int32_t abs(int32_t n)
{
     244:	0f 93       	push	r16
     246:	1f 93       	push	r17
	return n<0?-n:n;
     248:	8b 01       	movw	r16, r22
     24a:	9c 01       	movw	r18, r24
     24c:	37 ff       	sbrs	r19, 7
     24e:	07 c0       	rjmp	.+14     	; 0x25e <_Z3absl+0x1a>
     250:	30 95       	com	r19
     252:	20 95       	com	r18
     254:	10 95       	com	r17
     256:	01 95       	neg	r16
     258:	1f 4f       	sbci	r17, 0xFF	; 255
     25a:	2f 4f       	sbci	r18, 0xFF	; 255
     25c:	3f 4f       	sbci	r19, 0xFF	; 255
}
     25e:	b8 01       	movw	r22, r16
     260:	c9 01       	movw	r24, r18
     262:	1f 91       	pop	r17
     264:	0f 91       	pop	r16
     266:	08 95       	ret

00000268 <_Z8syncWaitm>:
Cekani
Funguje od 2 do 4294967294 us
Zadava se v us pro F_CPU 16000000
*/ 
void syncWait(uint32_t time)
{
     268:	ab 01       	movw	r20, r22
     26a:	bc 01       	movw	r22, r24
	time -= 2;
     26c:	42 50       	subi	r20, 0x02	; 2
     26e:	50 40       	sbci	r21, 0x00	; 0
     270:	60 40       	sbci	r22, 0x00	; 0
     272:	70 40       	sbci	r23, 0x00	; 0
	...
	__asm__ volatile ("nop");
	__asm__ volatile ("nop");
	__asm__ volatile ("nop");
	__asm__ volatile ("nop");
	__asm__ volatile ("nop");
	for(uint32_t i = 0; i < time; ++i)
     280:	80 e0       	ldi	r24, 0x00	; 0
     282:	90 e0       	ldi	r25, 0x00	; 0
     284:	dc 01       	movw	r26, r24
     286:	84 17       	cp	r24, r20
     288:	95 07       	cpc	r25, r21
     28a:	a6 07       	cpc	r26, r22
     28c:	b7 07       	cpc	r27, r23
     28e:	48 f4       	brcc	.+18     	; 0x2a2 <_Z8syncWaitm+0x3a>
	...
	{
		for(uint8_t j = 0; j < 5; ++j)
		{
			__asm__ volatile ("nop");
     298:	00 00       	nop
	__asm__ volatile ("nop");
	__asm__ volatile ("nop");
	__asm__ volatile ("nop");
	__asm__ volatile ("nop");
	__asm__ volatile ("nop");
	for(uint32_t i = 0; i < time; ++i)
     29a:	01 96       	adiw	r24, 0x01	; 1
     29c:	a1 1d       	adc	r26, r1
     29e:	b1 1d       	adc	r27, r1
     2a0:	f2 cf       	rjmp	.-28     	; 0x286 <_Z8syncWaitm+0x1e>
     2a2:	08 95       	ret

000002a4 <_ZN11dynamixel_t7receiveEv.isra.1>:
		UCSR0B = (1<<TXEN0);
	}

	void receive()
	{
		PORTE = (PORTE & ~(1<<PE2))|(1<<PE3);
     2a4:	83 b1       	in	r24, 0x03	; 3
     2a6:	83 7f       	andi	r24, 0xF3	; 243
     2a8:	88 60       	ori	r24, 0x08	; 8
     2aa:	83 b9       	out	0x03, r24	; 3
		syncWait(10);
     2ac:	6a e0       	ldi	r22, 0x0A	; 10
     2ae:	70 e0       	ldi	r23, 0x00	; 0
     2b0:	80 e0       	ldi	r24, 0x00	; 0
     2b2:	90 e0       	ldi	r25, 0x00	; 0
     2b4:	0e 94 34 01 	call	0x268	; 0x268 <_Z8syncWaitm>
		UCSR0B = (1<<RXCIE0)|(1<<RXEN0);
     2b8:	80 e9       	ldi	r24, 0x90	; 144
     2ba:	8a b9       	out	0x0a, r24	; 10
	}
     2bc:	08 95       	ret

000002be <__vector_16>:
		return time;
	}
};

ISR(TIMER0_OVF_vect)
{
     2be:	1f 92       	push	r1
     2c0:	0f 92       	push	r0
     2c2:	0f b6       	in	r0, 0x3f	; 63
     2c4:	0f 92       	push	r0
     2c6:	11 24       	eor	r1, r1
     2c8:	8f 93       	push	r24
     2ca:	9f 93       	push	r25
     2cc:	af 93       	push	r26
     2ce:	bf 93       	push	r27
	g_stopwatch_tickCounter += 128;
     2d0:	80 91 82 03 	lds	r24, 0x0382
     2d4:	90 91 83 03 	lds	r25, 0x0383
     2d8:	a0 91 84 03 	lds	r26, 0x0384
     2dc:	b0 91 85 03 	lds	r27, 0x0385
     2e0:	80 58       	subi	r24, 0x80	; 128
     2e2:	9f 4f       	sbci	r25, 0xFF	; 255
     2e4:	af 4f       	sbci	r26, 0xFF	; 255
     2e6:	bf 4f       	sbci	r27, 0xFF	; 255
     2e8:	80 93 82 03 	sts	0x0382, r24
     2ec:	90 93 83 03 	sts	0x0383, r25
     2f0:	a0 93 84 03 	sts	0x0384, r26
     2f4:	b0 93 85 03 	sts	0x0385, r27
}
     2f8:	bf 91       	pop	r27
     2fa:	af 91       	pop	r26
     2fc:	9f 91       	pop	r25
     2fe:	8f 91       	pop	r24
     300:	0f 90       	pop	r0
     302:	0f be       	out	0x3f, r0	; 63
     304:	0f 90       	pop	r0
     306:	1f 90       	pop	r1
     308:	18 95       	reti

0000030a <_Z4waitRKm>:

void wait(const uint32_t &time)
{
     30a:	cf 92       	push	r12
     30c:	df 92       	push	r13
     30e:	ef 92       	push	r14
     310:	ff 92       	push	r15
     312:	0f 93       	push	r16
     314:	1f 93       	push	r17
     316:	fc 01       	movw	r30, r24
	uint32_t time;
	bool running;
public:
	stopwatch()
	{
		offset = g_stopwatch_tickCounter + (TCNT0>>1);
     318:	80 91 82 03 	lds	r24, 0x0382
     31c:	90 91 83 03 	lds	r25, 0x0383
     320:	a0 91 84 03 	lds	r26, 0x0384
     324:	b0 91 85 03 	lds	r27, 0x0385
     328:	22 b7       	in	r18, 0x32	; 50
     32a:	30 e0       	ldi	r19, 0x00	; 0
     32c:	35 95       	asr	r19
     32e:	27 95       	ror	r18
     330:	a9 01       	movw	r20, r18
     332:	66 27       	eor	r22, r22
     334:	57 fd       	sbrc	r21, 7
     336:	60 95       	com	r22
     338:	76 2f       	mov	r23, r22
ISR(TIMER0_OVF_vect)
{
	g_stopwatch_tickCounter += 128;
}

void wait(const uint32_t &time)
     33a:	84 0f       	add	r24, r20
     33c:	95 1f       	adc	r25, r21
     33e:	a6 1f       	adc	r26, r22
     340:	b7 1f       	adc	r27, r23
{
	stopwatch s;
	while(time > s.getTime()){}
     342:	c0 80       	ld	r12, Z
     344:	d1 80       	ldd	r13, Z+1	; 0x01
     346:	e2 80       	ldd	r14, Z+2	; 0x02
     348:	f3 80       	ldd	r15, Z+3	; 0x03
		time = 0;
	}
	uint32_t getTime()
	{
		if(running)
			return g_stopwatch_tickCounter + (TCNT0>>1) - offset;
     34a:	40 91 82 03 	lds	r20, 0x0382
     34e:	50 91 83 03 	lds	r21, 0x0383
     352:	60 91 84 03 	lds	r22, 0x0384
     356:	70 91 85 03 	lds	r23, 0x0385
     35a:	22 b7       	in	r18, 0x32	; 50
     35c:	30 e0       	ldi	r19, 0x00	; 0
     35e:	35 95       	asr	r19
     360:	27 95       	ror	r18
     362:	f9 01       	movw	r30, r18
     364:	8f 01       	movw	r16, r30
     366:	22 27       	eor	r18, r18
     368:	17 fd       	sbrc	r17, 7
     36a:	20 95       	com	r18
     36c:	32 2f       	mov	r19, r18
     36e:	04 0f       	add	r16, r20
     370:	15 1f       	adc	r17, r21
     372:	26 1f       	adc	r18, r22
     374:	37 1f       	adc	r19, r23
     376:	08 1b       	sub	r16, r24
     378:	19 0b       	sbc	r17, r25
     37a:	2a 0b       	sbc	r18, r26
     37c:	3b 0b       	sbc	r19, r27
}

void wait(const uint32_t &time)
{
	stopwatch s;
	while(time > s.getTime()){}
     37e:	0c 15       	cp	r16, r12
     380:	1d 05       	cpc	r17, r13
     382:	2e 05       	cpc	r18, r14
     384:	3f 05       	cpc	r19, r15
     386:	08 f3       	brcs	.-62     	; 0x34a <_Z4waitRKm+0x40>
}
     388:	1f 91       	pop	r17
     38a:	0f 91       	pop	r16
     38c:	ff 90       	pop	r15
     38e:	ef 90       	pop	r14
     390:	df 90       	pop	r13
     392:	cf 90       	pop	r12
     394:	08 95       	ret

00000396 <_Z12inicializacev>:
 0,	1,	8,	9		
};

void inicializace()
{
	TCCR0 |= (1 << CS00);
     396:	83 b7       	in	r24, 0x33	; 51
     398:	81 60       	ori	r24, 0x01	; 1
     39a:	83 bf       	out	0x33, r24	; 51
}
     39c:	08 95       	ret

0000039e <_Z16check_hraci_polev>:
	PoziceM1(8);
	otevri();
}

bool check_hraci_pole()
{
     39e:	cf 92       	push	r12
     3a0:	df 92       	push	r13
     3a2:	ef 92       	push	r14
     3a4:	ff 92       	push	r15
	bool vysledek=false;
	for (i=1; i!=32; i++)
	{
		if(CHECKPOLICKO(i)) {i=31; vysledek=true;}
     3a6:	c0 90 e3 01 	lds	r12, 0x01E3
     3aa:	d0 90 e4 01 	lds	r13, 0x01E4
     3ae:	e0 90 e5 01 	lds	r14, 0x01E5
     3b2:	f0 90 e6 01 	lds	r15, 0x01E6
     3b6:	91 e0       	ldi	r25, 0x01	; 1
	otevri();
}

bool check_hraci_pole()
{
	bool vysledek=false;
     3b8:	80 e0       	ldi	r24, 0x00	; 0
	for (i=1; i!=32; i++)
	{
		if(CHECKPOLICKO(i)) {i=31; vysledek=true;}
     3ba:	21 e0       	ldi	r18, 0x01	; 1
     3bc:	30 e0       	ldi	r19, 0x00	; 0
     3be:	a9 01       	movw	r20, r18
     3c0:	09 2e       	mov	r0, r25
     3c2:	02 c0       	rjmp	.+4      	; 0x3c8 <_Z16check_hraci_polev+0x2a>
     3c4:	44 0f       	add	r20, r20
     3c6:	55 1f       	adc	r21, r21
     3c8:	0a 94       	dec	r0
     3ca:	e2 f7       	brpl	.-8      	; 0x3c4 <_Z16check_hraci_polev+0x26>
     3cc:	66 27       	eor	r22, r22
     3ce:	57 fd       	sbrc	r21, 7
     3d0:	60 95       	com	r22
     3d2:	76 2f       	mov	r23, r22
     3d4:	4c 21       	and	r20, r12
     3d6:	5d 21       	and	r21, r13
     3d8:	6e 21       	and	r22, r14
     3da:	7f 21       	and	r23, r15
     3dc:	41 15       	cp	r20, r1
     3de:	51 05       	cpc	r21, r1
     3e0:	61 05       	cpc	r22, r1
     3e2:	71 05       	cpc	r23, r1
     3e4:	11 f0       	breq	.+4      	; 0x3ea <_Z16check_hraci_polev+0x4c>
     3e6:	9f e1       	ldi	r25, 0x1F	; 31
     3e8:	81 e0       	ldi	r24, 0x01	; 1
}

bool check_hraci_pole()
{
	bool vysledek=false;
	for (i=1; i!=32; i++)
     3ea:	9f 5f       	subi	r25, 0xFF	; 255
     3ec:	90 32       	cpi	r25, 0x20	; 32
     3ee:	39 f7       	brne	.-50     	; 0x3be <_Z16check_hraci_polev+0x20>
     3f0:	90 93 e8 01 	sts	0x01E8, r25
	{
		if(CHECKPOLICKO(i)) {i=31; vysledek=true;}
	}
	return vysledek;
}
     3f4:	ff 90       	pop	r15
     3f6:	ef 90       	pop	r14
     3f8:	df 90       	pop	r13
     3fa:	cf 90       	pop	r12
     3fc:	08 95       	ret

000003fe <_Z13zapis_domecekhb>:

void zapis_domecek(uint8_t BIT,bool VAL)
{
     3fe:	90 91 e2 01 	lds	r25, 0x01E2
	if (VAL)
	{
		SETBIT(promena_DOMECEK, BIT);
     402:	21 e0       	ldi	r18, 0x01	; 1
     404:	30 e0       	ldi	r19, 0x00	; 0
     406:	02 c0       	rjmp	.+4      	; 0x40c <_Z13zapis_domecekhb+0xe>
     408:	22 0f       	add	r18, r18
     40a:	33 1f       	adc	r19, r19
     40c:	8a 95       	dec	r24
     40e:	e2 f7       	brpl	.-8      	; 0x408 <_Z13zapis_domecekhb+0xa>
	return vysledek;
}

void zapis_domecek(uint8_t BIT,bool VAL)
{
	if (VAL)
     410:	66 23       	and	r22, r22
     412:	11 f0       	breq	.+4      	; 0x418 <_Z13zapis_domecekhb+0x1a>
	{
		SETBIT(promena_DOMECEK, BIT);
     414:	29 2b       	or	r18, r25
     416:	02 c0       	rjmp	.+4      	; 0x41c <_Z13zapis_domecekhb+0x1e>
	}
	else CLEARBIT(promena_DOMECEK, BIT);
     418:	20 95       	com	r18
     41a:	29 23       	and	r18, r25
     41c:	20 93 e2 01 	sts	0x01E2, r18
     420:	08 95       	ret

00000422 <_ZN5queueIcLj96EE4pushEc>:
	{
		if((m_write == (m_read - 1))||((m_write == (size - 1))&&(m_read == 0)))
			return true;
		return false;
	}
	bool push (T data)
     422:	ac 01       	movw	r20, r24
	{
		m[m_write] = data;
     424:	fc 01       	movw	r30, r24
     426:	ee 59       	subi	r30, 0x9E	; 158
     428:	ff 4f       	sbci	r31, 0xFF	; 255
     42a:	a0 81       	ld	r26, Z
     42c:	b1 81       	ldd	r27, Z+1	; 0x01
     42e:	a8 0f       	add	r26, r24
     430:	b9 1f       	adc	r27, r25
     432:	6c 93       	st	X, r22
			return true;
		return false;
	}
	bool is_full() const
	{
		if((m_write == (m_read - 1))||((m_write == (size - 1))&&(m_read == 0)))
     434:	20 81       	ld	r18, Z
     436:	31 81       	ldd	r19, Z+1	; 0x01
     438:	dc 01       	movw	r26, r24
     43a:	a0 5a       	subi	r26, 0xA0	; 160
     43c:	bf 4f       	sbci	r27, 0xFF	; 255
     43e:	8d 91       	ld	r24, X+
     440:	9c 91       	ld	r25, X
     442:	11 97       	sbiw	r26, 0x01	; 1
     444:	01 97       	sbiw	r24, 0x01	; 1
     446:	28 17       	cp	r18, r24
     448:	39 07       	cpc	r19, r25
     44a:	51 f0       	breq	.+20     	; 0x460 <_ZN5queueIcLj96EE4pushEc+0x3e>
     44c:	80 81       	ld	r24, Z
     44e:	91 81       	ldd	r25, Z+1	; 0x01
     450:	8f 35       	cpi	r24, 0x5F	; 95
     452:	91 05       	cpc	r25, r1
     454:	89 f4       	brne	.+34     	; 0x478 <_ZN5queueIcLj96EE4pushEc+0x56>
     456:	8d 91       	ld	r24, X+
     458:	9c 91       	ld	r25, X
     45a:	11 97       	sbiw	r26, 0x01	; 1
     45c:	00 97       	sbiw	r24, 0x00	; 0
     45e:	61 f4       	brne	.+24     	; 0x478 <_ZN5queueIcLj96EE4pushEc+0x56>
		return false;
	}
	bool push (T data)
	{
		m[m_write] = data;
		if(is_full()&&!overwrite)
     460:	4c 59       	subi	r20, 0x9C	; 156
     462:	5f 4f       	sbci	r21, 0xFF	; 255
     464:	da 01       	movw	r26, r20
     466:	8c 91       	ld	r24, X
     468:	88 23       	and	r24, r24
     46a:	21 f0       	breq	.+8      	; 0x474 <_ZN5queueIcLj96EE4pushEc+0x52>
     46c:	05 c0       	rjmp	.+10     	; 0x478 <_ZN5queueIcLj96EE4pushEc+0x56>
			return false;
		if(++m_write == size)
			m_write = 0;
     46e:	11 82       	std	Z+1, r1	; 0x01
     470:	10 82       	st	Z, r1
     472:	0a c0       	rjmp	.+20     	; 0x488 <_ZN5queueIcLj96EE4pushEc+0x66>
	}
	bool push (T data)
	{
		m[m_write] = data;
		if(is_full()&&!overwrite)
			return false;
     474:	80 e0       	ldi	r24, 0x00	; 0
		if(++m_write == size)
			m_write = 0;
		return true;
	}
     476:	08 95       	ret
	bool push (T data)
	{
		m[m_write] = data;
		if(is_full()&&!overwrite)
			return false;
		if(++m_write == size)
     478:	80 81       	ld	r24, Z
     47a:	91 81       	ldd	r25, Z+1	; 0x01
     47c:	01 96       	adiw	r24, 0x01	; 1
     47e:	91 83       	std	Z+1, r25	; 0x01
     480:	80 83       	st	Z, r24
     482:	80 36       	cpi	r24, 0x60	; 96
     484:	91 05       	cpc	r25, r1
     486:	99 f3       	breq	.-26     	; 0x46e <_ZN5queueIcLj96EE4pushEc+0x4c>
     488:	81 e0       	ldi	r24, 0x01	; 1
     48a:	08 95       	ret

0000048c <_ZN8USART1_t8sendCharEc>:
		UBRR1L = (speed&0x00FF);
		numbersSpaces = 1;
		cin_isFirst = true;
		cin_isGood = true;
	}
	void sendChar(char data)
     48c:	1f 93       	push	r17
     48e:	cf 93       	push	r28
     490:	df 93       	push	r29
     492:	16 2f       	mov	r17, r22
	{
		while(!m_tx.push(data)) {}
     494:	ec 01       	movw	r28, r24
     496:	cb 59       	subi	r28, 0x9B	; 155
     498:	df 4f       	sbci	r29, 0xFF	; 255
     49a:	ce 01       	movw	r24, r28
     49c:	61 2f       	mov	r22, r17
     49e:	0e 94 11 02 	call	0x422	; 0x422 <_ZN5queueIcLj96EE4pushEc>
     4a2:	88 23       	and	r24, r24
     4a4:	d1 f3       	breq	.-12     	; 0x49a <_ZN8USART1_t8sendCharEc+0xe>
		UCSR1B |= (1<<UDRIE1);
     4a6:	80 91 9a 00 	lds	r24, 0x009A
     4aa:	80 62       	ori	r24, 0x20	; 32
     4ac:	80 93 9a 00 	sts	0x009A, r24
	}
     4b0:	df 91       	pop	r29
     4b2:	cf 91       	pop	r28
     4b4:	1f 91       	pop	r17
     4b6:	08 95       	ret

000004b8 <_ZN8USART1_t10sendNumberElh>:
	{
		for(; *str != 0; ++str)
			sendCharImediatly(*str);
	}

	void sendNumber(int32_t number, uint8_t width = 4)
     4b8:	2f 92       	push	r2
     4ba:	3f 92       	push	r3
     4bc:	4f 92       	push	r4
     4be:	5f 92       	push	r5
     4c0:	6f 92       	push	r6
     4c2:	7f 92       	push	r7
     4c4:	8f 92       	push	r8
     4c6:	9f 92       	push	r9
     4c8:	af 92       	push	r10
     4ca:	bf 92       	push	r11
     4cc:	cf 92       	push	r12
     4ce:	df 92       	push	r13
     4d0:	ef 92       	push	r14
     4d2:	ff 92       	push	r15
     4d4:	0f 93       	push	r16
     4d6:	1f 93       	push	r17
     4d8:	cf 93       	push	r28
     4da:	df 93       	push	r29
     4dc:	cd b7       	in	r28, 0x3d	; 61
     4de:	de b7       	in	r29, 0x3e	; 62
     4e0:	60 97       	sbiw	r28, 0x10	; 16
     4e2:	0f b6       	in	r0, 0x3f	; 63
     4e4:	f8 94       	cli
     4e6:	de bf       	out	0x3e, r29	; 62
     4e8:	0f be       	out	0x3f, r0	; 63
     4ea:	cd bf       	out	0x3d, r28	; 61
     4ec:	1c 01       	movw	r2, r24
     4ee:	6a 01       	movw	r12, r20
     4f0:	7b 01       	movw	r14, r22
     4f2:	12 2f       	mov	r17, r18
	{
		char buff[12];
		uint8_t buffP = 0;
		if(number == 0)
     4f4:	41 15       	cp	r20, r1
     4f6:	51 05       	cpc	r21, r1
     4f8:	61 05       	cpc	r22, r1
     4fa:	71 05       	cpc	r23, r1
     4fc:	31 f0       	breq	.+12     	; 0x50a <_ZN8USART1_t10sendNumberElh+0x52>
     4fe:	0d c0       	rjmp	.+26     	; 0x51a <_ZN8USART1_t10sendNumberElh+0x62>
		{
			for(uint8_t i = 1; i < width; ++i)
				sendChar(' ');
     500:	60 e2       	ldi	r22, 0x20	; 32
     502:	0e 94 46 02 	call	0x48c	; 0x48c <_ZN8USART1_t8sendCharEc>
	{
		char buff[12];
		uint8_t buffP = 0;
		if(number == 0)
		{
			for(uint8_t i = 1; i < width; ++i)
     506:	0f 5f       	subi	r16, 0xFF	; 255
     508:	01 c0       	rjmp	.+2      	; 0x50c <_ZN8USART1_t10sendNumberElh+0x54>

	void sendNumber(int32_t number, uint8_t width = 4)
	{
		char buff[12];
		uint8_t buffP = 0;
		if(number == 0)
     50a:	01 e0       	ldi	r16, 0x01	; 1
		{
			for(uint8_t i = 1; i < width; ++i)
				sendChar(' ');
     50c:	c1 01       	movw	r24, r2
	{
		char buff[12];
		uint8_t buffP = 0;
		if(number == 0)
		{
			for(uint8_t i = 1; i < width; ++i)
     50e:	01 17       	cp	r16, r17
     510:	b8 f3       	brcs	.-18     	; 0x500 <_ZN8USART1_t10sendNumberElh+0x48>
				sendChar(' ');
			sendChar('0');
     512:	60 e3       	ldi	r22, 0x30	; 48
     514:	0e 94 46 02 	call	0x48c	; 0x48c <_ZN8USART1_t8sendCharEc>
			return;
     518:	68 c0       	rjmp	.+208    	; 0x5ea <_ZN8USART1_t10sendNumberElh+0x132>
		}
		else if(number < 0)
     51a:	77 ff       	sbrs	r23, 7
     51c:	0d c0       	rjmp	.+26     	; 0x538 <_ZN8USART1_t10sendNumberElh+0x80>
		{
			buff[buffP++] = '-';
     51e:	8d e2       	ldi	r24, 0x2D	; 45
     520:	89 83       	std	Y+1, r24	; 0x01
			number = -number;
     522:	f0 94       	com	r15
     524:	e0 94       	com	r14
     526:	d0 94       	com	r13
     528:	c0 94       	com	r12
     52a:	c1 1c       	adc	r12, r1
     52c:	d1 1c       	adc	r13, r1
     52e:	e1 1c       	adc	r14, r1
     530:	f1 1c       	adc	r15, r1
			--width;
     532:	11 50       	subi	r17, 0x01	; 1
			sendChar('0');
			return;
		}
		else if(number < 0)
		{
			buff[buffP++] = '-';
     534:	01 e0       	ldi	r16, 0x01	; 1
     536:	01 c0       	rjmp	.+2      	; 0x53a <_ZN8USART1_t10sendNumberElh+0x82>
	}

	void sendNumber(int32_t number, uint8_t width = 4)
	{
		char buff[12];
		uint8_t buffP = 0;
     538:	00 e0       	ldi	r16, 0x00	; 0
			sendChar('0');
			return;
		}
		else if(number < 0)
		{
			buff[buffP++] = '-';
     53a:	8a e0       	ldi	r24, 0x0A	; 10
     53c:	90 e0       	ldi	r25, 0x00	; 0
     53e:	9e 87       	std	Y+14, r25	; 0x0e
     540:	8d 87       	std	Y+13, r24	; 0x0d
			number = -number;
			--width;
		}
		for(int32_t i = 1000000000;i >= 1; i = (i / 10))
     542:	81 2c       	mov	r8, r1
     544:	2a ec       	ldi	r18, 0xCA	; 202
     546:	92 2e       	mov	r9, r18
     548:	2a e9       	ldi	r18, 0x9A	; 154
     54a:	a2 2e       	mov	r10, r18
     54c:	2b e3       	ldi	r18, 0x3B	; 59
     54e:	b2 2e       	mov	r11, r18
		{
			if(number >= i)
			{
				buff[buffP++] = ('0' + ((number / i) % 10));
     550:	3a e0       	ldi	r19, 0x0A	; 10
     552:	43 2e       	mov	r4, r19
     554:	51 2c       	mov	r5, r1
     556:	61 2c       	mov	r6, r1
     558:	71 2c       	mov	r7, r1
			number = -number;
			--width;
		}
		for(int32_t i = 1000000000;i >= 1; i = (i / 10))
		{
			if(number >= i)
     55a:	c8 14       	cp	r12, r8
     55c:	d9 04       	cpc	r13, r9
     55e:	ea 04       	cpc	r14, r10
     560:	fb 04       	cpc	r15, r11
     562:	dc f0       	brlt	.+54     	; 0x59a <_ZN8USART1_t10sendNumberElh+0xe2>
			{
				buff[buffP++] = ('0' + ((number / i) % 10));
     564:	e1 e0       	ldi	r30, 0x01	; 1
     566:	f0 e0       	ldi	r31, 0x00	; 0
     568:	ec 0f       	add	r30, r28
     56a:	fd 1f       	adc	r31, r29
     56c:	e0 0f       	add	r30, r16
     56e:	f1 1d       	adc	r31, r1
     570:	f8 8b       	std	Y+16, r31	; 0x10
     572:	ef 87       	std	Y+15, r30	; 0x0f
     574:	c7 01       	movw	r24, r14
     576:	b6 01       	movw	r22, r12
     578:	a5 01       	movw	r20, r10
     57a:	94 01       	movw	r18, r8
     57c:	0e 94 9b 14 	call	0x2936	; 0x2936 <__divmodsi4>
     580:	ca 01       	movw	r24, r20
     582:	b9 01       	movw	r22, r18
     584:	a3 01       	movw	r20, r6
     586:	92 01       	movw	r18, r4
     588:	0e 94 9b 14 	call	0x2936	; 0x2936 <__divmodsi4>
     58c:	60 5d       	subi	r22, 0xD0	; 208
     58e:	ef 85       	ldd	r30, Y+15	; 0x0f
     590:	f8 89       	ldd	r31, Y+16	; 0x10
     592:	60 83       	st	Z, r22
     594:	0f 5f       	subi	r16, 0xFF	; 255
				if(width != 0)
     596:	11 11       	cpse	r17, r1
					--width;
     598:	11 50       	subi	r17, 0x01	; 1
		{
			buff[buffP++] = '-';
			number = -number;
			--width;
		}
		for(int32_t i = 1000000000;i >= 1; i = (i / 10))
     59a:	c5 01       	movw	r24, r10
     59c:	b4 01       	movw	r22, r8
     59e:	a3 01       	movw	r20, r6
     5a0:	92 01       	movw	r18, r4
     5a2:	0e 94 9b 14 	call	0x2936	; 0x2936 <__divmodsi4>
     5a6:	49 01       	movw	r8, r18
     5a8:	5a 01       	movw	r10, r20
     5aa:	8d 85       	ldd	r24, Y+13	; 0x0d
     5ac:	9e 85       	ldd	r25, Y+14	; 0x0e
     5ae:	01 97       	sbiw	r24, 0x01	; 1
     5b0:	9e 87       	std	Y+14, r25	; 0x0e
     5b2:	8d 87       	std	Y+13, r24	; 0x0d
     5b4:	00 97       	sbiw	r24, 0x00	; 0
     5b6:	89 f6       	brne	.-94     	; 0x55a <_ZN8USART1_t10sendNumberElh+0xa2>
     5b8:	cc 24       	eor	r12, r12
     5ba:	05 c0       	rjmp	.+10     	; 0x5c6 <_ZN8USART1_t10sendNumberElh+0x10e>
				if(width != 0)
					--width;
			}
		}
		for(uint8_t i = 0; i < width; ++i)
			sendChar(' ');
     5bc:	c1 01       	movw	r24, r2
     5be:	60 e2       	ldi	r22, 0x20	; 32
     5c0:	0e 94 46 02 	call	0x48c	; 0x48c <_ZN8USART1_t8sendCharEc>
				buff[buffP++] = ('0' + ((number / i) % 10));
				if(width != 0)
					--width;
			}
		}
		for(uint8_t i = 0; i < width; ++i)
     5c4:	c3 94       	inc	r12
     5c6:	c1 16       	cp	r12, r17
     5c8:	c9 f7       	brne	.-14     	; 0x5bc <_ZN8USART1_t10sendNumberElh+0x104>
     5ca:	4e 01       	movw	r8, r28
     5cc:	08 94       	sec
     5ce:	81 1c       	adc	r8, r1
     5d0:	91 1c       	adc	r9, r1
     5d2:	64 01       	movw	r12, r8
     5d4:	06 c0       	rjmp	.+12     	; 0x5e2 <_ZN8USART1_t10sendNumberElh+0x12a>
			sendChar(' ');
		for(uint8_t i = 0; i < buffP; ++i)
			sendChar(buff[i]);
     5d6:	f6 01       	movw	r30, r12
     5d8:	61 91       	ld	r22, Z+
     5da:	6f 01       	movw	r12, r30
     5dc:	c1 01       	movw	r24, r2
     5de:	0e 94 46 02 	call	0x48c	; 0x48c <_ZN8USART1_t8sendCharEc>
					--width;
			}
		}
		for(uint8_t i = 0; i < width; ++i)
			sendChar(' ');
		for(uint8_t i = 0; i < buffP; ++i)
     5e2:	8c 2d       	mov	r24, r12
     5e4:	88 19       	sub	r24, r8
     5e6:	80 17       	cp	r24, r16
     5e8:	b0 f3       	brcs	.-20     	; 0x5d6 <_ZN8USART1_t10sendNumberElh+0x11e>
			sendChar(buff[i]);
	}
     5ea:	60 96       	adiw	r28, 0x10	; 16
     5ec:	0f b6       	in	r0, 0x3f	; 63
     5ee:	f8 94       	cli
     5f0:	de bf       	out	0x3e, r29	; 62
     5f2:	0f be       	out	0x3f, r0	; 63
     5f4:	cd bf       	out	0x3d, r28	; 61
     5f6:	df 91       	pop	r29
     5f8:	cf 91       	pop	r28
     5fa:	1f 91       	pop	r17
     5fc:	0f 91       	pop	r16
     5fe:	ff 90       	pop	r15
     600:	ef 90       	pop	r14
     602:	df 90       	pop	r13
     604:	cf 90       	pop	r12
     606:	bf 90       	pop	r11
     608:	af 90       	pop	r10
     60a:	9f 90       	pop	r9
     60c:	8f 90       	pop	r8
     60e:	7f 90       	pop	r7
     610:	6f 90       	pop	r6
     612:	5f 90       	pop	r5
     614:	4f 90       	pop	r4
     616:	3f 90       	pop	r3
     618:	2f 90       	pop	r2
     61a:	08 95       	ret

0000061c <_ZN8USART1_t4sendEPKc.constprop.22>:
		UCSR1A |= (1<<TXC1);
		UDR1 = data;
		while((UCSR1A & (1<<TXC1)) == 0){}
	}

	void send(const char * str)
     61c:	cf 93       	push	r28
     61e:	df 93       	push	r29
     620:	ec 01       	movw	r28, r24
     622:	04 c0       	rjmp	.+8      	; 0x62c <_ZN8USART1_t4sendEPKc.constprop.22+0x10>
	{
		for(; *str != 0; ++str)
			sendChar(*str);
     624:	86 e8       	ldi	r24, 0x86	; 134
     626:	93 e0       	ldi	r25, 0x03	; 3
     628:	0e 94 46 02 	call	0x48c	; 0x48c <_ZN8USART1_t8sendCharEc>
		while((UCSR1A & (1<<TXC1)) == 0){}
	}

	void send(const char * str)
	{
		for(; *str != 0; ++str)
     62c:	69 91       	ld	r22, Y+
     62e:	66 23       	and	r22, r22
     630:	c9 f7       	brne	.-14     	; 0x624 <_ZN8USART1_t4sendEPKc.constprop.22+0x8>
			sendChar(*str);
	}
     632:	df 91       	pop	r29
     634:	cf 91       	pop	r28
     636:	08 95       	ret

00000638 <__vector_30>:
		cin_isGood = true;
	}
}; USART1_t pc;

ISR(USART1_RX_vect)
{
     638:	1f 92       	push	r1
     63a:	0f 92       	push	r0
     63c:	0f b6       	in	r0, 0x3f	; 63
     63e:	0f 92       	push	r0
     640:	0b b6       	in	r0, 0x3b	; 59
     642:	0f 92       	push	r0
     644:	11 24       	eor	r1, r1
     646:	2f 93       	push	r18
     648:	3f 93       	push	r19
     64a:	4f 93       	push	r20
     64c:	5f 93       	push	r21
     64e:	6f 93       	push	r22
     650:	7f 93       	push	r23
     652:	8f 93       	push	r24
     654:	9f 93       	push	r25
     656:	af 93       	push	r26
     658:	bf 93       	push	r27
     65a:	cf 93       	push	r28
     65c:	ef 93       	push	r30
     65e:	ff 93       	push	r31
	char data = UDR1;
     660:	c0 91 9c 00 	lds	r28, 0x009C
	if((UCSR1A & (1<<FE1)) == (1<<FE1))
     664:	80 91 9b 00 	lds	r24, 0x009B
     668:	84 fd       	sbrc	r24, 4
     66a:	23 c0       	rjmp	.+70     	; 0x6b2 <__vector_30+0x7a>

public:

	void data_in(char &ch)
	{
		m_rx.push(ch);
     66c:	86 e8       	ldi	r24, 0x86	; 134
     66e:	93 e0       	ldi	r25, 0x03	; 3
     670:	6c 2f       	mov	r22, r28
     672:	0e 94 11 02 	call	0x422	; 0x422 <_ZN5queueIcLj96EE4pushEc>
	if((UCSR1A & (1<<FE1)) == (1<<FE1))
		return;
	pc.data_in(data);
	static const unsigned char bootSeq[] = { '#', '#', '#', '#' };
	static uint8_t state = 0;
	if (data == bootSeq[state])
     676:	80 91 74 04 	lds	r24, 0x0474
     67a:	e8 2f       	mov	r30, r24
     67c:	f0 e0       	ldi	r31, 0x00	; 0
     67e:	e2 52       	subi	r30, 0x22	; 34
     680:	fe 4f       	sbci	r31, 0xFE	; 254
     682:	90 81       	ld	r25, Z
     684:	c9 17       	cp	r28, r25
     686:	99 f4       	brne	.+38     	; 0x6ae <__vector_30+0x76>
	{
		if (++state == 4)
     688:	8f 5f       	subi	r24, 0xFF	; 255
     68a:	80 93 74 04 	sts	0x0474, r24
     68e:	84 30       	cpi	r24, 0x04	; 4
     690:	81 f4       	brne	.+32     	; 0x6b2 <__vector_30+0x7a>
		{
#ifndef DYNAMIXEL_BOOTLOADER_WDT
			UCSR1A = 0;
     692:	10 92 9b 00 	sts	0x009B, r1
			UCSR1B = 0;
     696:	10 92 9a 00 	sts	0x009A, r1
			UCSR1C = 0;
     69a:	10 92 9d 00 	sts	0x009D, r1
			UBRR1L = 0;
     69e:	10 92 99 00 	sts	0x0099, r1
			UBRR1H = 0;
     6a2:	10 92 98 00 	sts	0x0098, r1
			DYNAMIXEL_BOOTLOADER_SEQ();
     6a6:	f0 ef       	ldi	r31, 0xF0	; 240
     6a8:	e0 e0       	ldi	r30, 0x00	; 0
     6aa:	09 94       	ijmp
     6ac:	02 c0       	rjmp	.+4      	; 0x6b2 <__vector_30+0x7a>
			WDTCR |= (1<<WDE);
#endif
		}
	}
	else
		state = 0;
     6ae:	10 92 74 04 	sts	0x0474, r1
}
     6b2:	ff 91       	pop	r31
     6b4:	ef 91       	pop	r30
     6b6:	cf 91       	pop	r28
     6b8:	bf 91       	pop	r27
     6ba:	af 91       	pop	r26
     6bc:	9f 91       	pop	r25
     6be:	8f 91       	pop	r24
     6c0:	7f 91       	pop	r23
     6c2:	6f 91       	pop	r22
     6c4:	5f 91       	pop	r21
     6c6:	4f 91       	pop	r20
     6c8:	3f 91       	pop	r19
     6ca:	2f 91       	pop	r18
     6cc:	0f 90       	pop	r0
     6ce:	0b be       	out	0x3b, r0	; 59
     6d0:	0f 90       	pop	r0
     6d2:	0f be       	out	0x3f, r0	; 63
     6d4:	0f 90       	pop	r0
     6d6:	1f 90       	pop	r1
     6d8:	18 95       	reti

000006da <_ZN5queueIcLj96EE3popEv>:
			return false;
		if(++m_write == size)
			m_write = 0;
		return true;
	}
	T pop ()
     6da:	ac 01       	movw	r20, r24
	volatile uint16_t m_write;
public:
	volatile bool overwrite;
	bool is_empty() const
	{
		if(m_write == m_read)
     6dc:	fc 01       	movw	r30, r24
     6de:	ee 59       	subi	r30, 0x9E	; 158
     6e0:	ff 4f       	sbci	r31, 0xFF	; 255
     6e2:	20 81       	ld	r18, Z
     6e4:	31 81       	ldd	r19, Z+1	; 0x01
     6e6:	fc 01       	movw	r30, r24
     6e8:	e0 5a       	subi	r30, 0xA0	; 160
     6ea:	ff 4f       	sbci	r31, 0xFF	; 255
     6ec:	80 81       	ld	r24, Z
     6ee:	91 81       	ldd	r25, Z+1	; 0x01
     6f0:	28 17       	cp	r18, r24
     6f2:	39 07       	cpc	r19, r25
     6f4:	51 f4       	brne	.+20     	; 0x70a <_ZN5queueIcLj96EE3popEv+0x30>
		return true;
	}
	T pop ()
	{
		if(is_empty())
			return m[m_read];
     6f6:	01 90       	ld	r0, Z+
     6f8:	f0 81       	ld	r31, Z
     6fa:	e0 2d       	mov	r30, r0
     6fc:	e4 0f       	add	r30, r20
     6fe:	f5 1f       	adc	r31, r21
     700:	80 81       	ld	r24, Z
     702:	08 95       	ret
		T data = m[m_read];
		if(++m_read == size)
			m_read = 0;
     704:	11 82       	std	Z+1, r1	; 0x01
     706:	10 82       	st	Z, r1
		return data;
	}
     708:	08 95       	ret
	}
	T pop ()
	{
		if(is_empty())
			return m[m_read];
		T data = m[m_read];
     70a:	a0 81       	ld	r26, Z
     70c:	b1 81       	ldd	r27, Z+1	; 0x01
     70e:	a4 0f       	add	r26, r20
     710:	b5 1f       	adc	r27, r21
     712:	8c 91       	ld	r24, X
		if(++m_read == size)
     714:	20 81       	ld	r18, Z
     716:	31 81       	ldd	r19, Z+1	; 0x01
     718:	2f 5f       	subi	r18, 0xFF	; 255
     71a:	3f 4f       	sbci	r19, 0xFF	; 255
     71c:	31 83       	std	Z+1, r19	; 0x01
     71e:	20 83       	st	Z, r18
     720:	20 36       	cpi	r18, 0x60	; 96
     722:	31 05       	cpc	r19, r1
     724:	89 f7       	brne	.-30     	; 0x708 <_ZN5queueIcLj96EE3popEv+0x2e>
     726:	ee cf       	rjmp	.-36     	; 0x704 <_ZN5queueIcLj96EE3popEv+0x2a>

00000728 <_ZN8USART1_t3getEv>:
			return false;
		data = m_rx.pop();
		return true;
	}

	char get()
     728:	ac 01       	movw	r20, r24
	volatile uint16_t m_write;
public:
	volatile bool overwrite;
	bool is_empty() const
	{
		if(m_write == m_read)
     72a:	fc 01       	movw	r30, r24
     72c:	ee 59       	subi	r30, 0x9E	; 158
     72e:	ff 4f       	sbci	r31, 0xFF	; 255
     730:	dc 01       	movw	r26, r24
     732:	a0 5a       	subi	r26, 0xA0	; 160
     734:	bf 4f       	sbci	r27, 0xFF	; 255
     736:	80 81       	ld	r24, Z
     738:	91 81       	ldd	r25, Z+1	; 0x01
     73a:	2d 91       	ld	r18, X+
     73c:	3c 91       	ld	r19, X
     73e:	11 97       	sbiw	r26, 0x01	; 1
     740:	82 17       	cp	r24, r18
     742:	93 07       	cpc	r25, r19
     744:	c1 f3       	breq	.-16     	; 0x736 <_ZN8USART1_t3getEv+0xe>

	bool peek(char & data)
	{
		if(m_rx.is_empty())
			return false;
		data = m_rx.pop();
     746:	ca 01       	movw	r24, r20
     748:	0e 94 6d 03 	call	0x6da	; 0x6da <_ZN5queueIcLj96EE3popEv>
	char get()
	{
		char data;
		while(!peek(data)) {}
		return data;
	}
     74c:	08 95       	ret

0000074e <_Z21aktualizuj_hraci_polev>:
}

uint8_t aktualizuj_hraci_pole()	//pøidat další funkci, která zkontroluje, zda hodnoty v curr_pos[] odpovídají skuteènosti
{
     74e:	3f 92       	push	r3
     750:	4f 92       	push	r4
     752:	5f 92       	push	r5
     754:	6f 92       	push	r6
     756:	7f 92       	push	r7
     758:	8f 92       	push	r8
     75a:	9f 92       	push	r9
     75c:	af 92       	push	r10
     75e:	bf 92       	push	r11
     760:	cf 92       	push	r12
     762:	df 92       	push	r13
     764:	ef 92       	push	r14
     766:	ff 92       	push	r15
     768:	0f 93       	push	r16
     76a:	1f 93       	push	r17
     76c:	cf 93       	push	r28
     76e:	df 93       	push	r29
	uint8_t temp_pozice = 0;
	for (i=0; i!=4; i++)
     770:	10 92 e8 01 	sts	0x01E8, r1
	{
		temp_pozice  = pc.get(); 
		pc<<temp_pozice<<endl;
		for (i2=0; i2!=8; i2++)
		{
			if (CHECKBIT(temp_pozice,i2)==1)	{SETBIT  (hraci_pole,i*8+i2);}			
     774:	c1 e0       	ldi	r28, 0x01	; 1
     776:	d0 e0       	ldi	r29, 0x00	; 0
}

uint8_t aktualizuj_hraci_pole()	//pøidat další funkci, která zkontroluje, zda hodnoty v curr_pos[] odpovídají skuteènosti
{
	uint8_t temp_pozice = 0;
	for (i=0; i!=4; i++)
     778:	a6 c0       	rjmp	.+332    	; 0x8c6 <_Z21aktualizuj_hraci_polev+0x178>
	{
		temp_pozice  = pc.get(); 
     77a:	86 e8       	ldi	r24, 0x86	; 134
     77c:	93 e0       	ldi	r25, 0x03	; 3
     77e:	0e 94 94 03 	call	0x728	; 0x728 <_ZN8USART1_t3getEv>
     782:	08 2f       	mov	r16, r24
		sendNumber(n, numbersSpaces);
		return *this;
	}
	USART1_t &operator << (const uint8_t &n)
	{
		sendNumber(n, numbersSpaces);
     784:	48 2f       	mov	r20, r24
     786:	50 e0       	ldi	r21, 0x00	; 0
     788:	60 e0       	ldi	r22, 0x00	; 0
     78a:	70 e0       	ldi	r23, 0x00	; 0
     78c:	86 e8       	ldi	r24, 0x86	; 134
     78e:	93 e0       	ldi	r25, 0x03	; 3
     790:	20 91 50 04 	lds	r18, 0x0450
     794:	0e 94 5c 02 	call	0x4b8	; 0x4b8 <_ZN8USART1_t10sendNumberElh>
		sendChar(ch);
		return *this;
	}
	USART1_t &operator << (const char *ch)
	{
		send(ch);
     798:	8b e0       	ldi	r24, 0x0B	; 11
     79a:	91 e0       	ldi	r25, 0x01	; 1
     79c:	0e 94 0e 03 	call	0x61c	; 0x61c <_ZN8USART1_t4sendEPKc.constprop.22>
		pc<<temp_pozice<<endl;
		for (i2=0; i2!=8; i2++)
     7a0:	10 92 e7 01 	sts	0x01E7, r1
		{
			if (CHECKBIT(temp_pozice,i2)==1)	{SETBIT  (hraci_pole,i*8+i2);}			
     7a4:	10 e0       	ldi	r17, 0x00	; 0
	uint8_t temp_pozice = 0;
	for (i=0; i!=4; i++)
	{
		temp_pozice  = pc.get(); 
		pc<<temp_pozice<<endl;
		for (i2=0; i2!=8; i2++)
     7a6:	73 c0       	rjmp	.+230    	; 0x88e <_Z21aktualizuj_hraci_polev+0x140>
		{
			if (CHECKBIT(temp_pozice,i2)==1)	{SETBIT  (hraci_pole,i*8+i2);}			
     7a8:	28 2f       	mov	r18, r24
     7aa:	30 e0       	ldi	r19, 0x00	; 0
     7ac:	a8 01       	movw	r20, r16
     7ae:	02 c0       	rjmp	.+4      	; 0x7b4 <_Z21aktualizuj_hraci_polev+0x66>
     7b0:	55 95       	asr	r21
     7b2:	47 95       	ror	r20
     7b4:	8a 95       	dec	r24
     7b6:	e2 f7       	brpl	.-8      	; 0x7b0 <_Z21aktualizuj_hraci_polev+0x62>
     7b8:	fa 01       	movw	r30, r20
     7ba:	e1 70       	andi	r30, 0x01	; 1
     7bc:	f0 70       	andi	r31, 0x00	; 0
     7be:	40 ff       	sbrs	r20, 0
     7c0:	29 c0       	rjmp	.+82     	; 0x814 <_Z21aktualizuj_hraci_polev+0xc6>
     7c2:	40 91 e8 01 	lds	r20, 0x01E8
     7c6:	50 e0       	ldi	r21, 0x00	; 0
     7c8:	a3 e0       	ldi	r26, 0x03	; 3
     7ca:	44 0f       	add	r20, r20
     7cc:	55 1f       	adc	r21, r21
     7ce:	aa 95       	dec	r26
     7d0:	e1 f7       	brne	.-8      	; 0x7ca <_Z21aktualizuj_hraci_polev+0x7c>
     7d2:	42 0f       	add	r20, r18
     7d4:	53 1f       	adc	r21, r19
     7d6:	ce 01       	movw	r24, r28
     7d8:	02 c0       	rjmp	.+4      	; 0x7de <_Z21aktualizuj_hraci_polev+0x90>
     7da:	88 0f       	add	r24, r24
     7dc:	99 1f       	adc	r25, r25
     7de:	4a 95       	dec	r20
     7e0:	e2 f7       	brpl	.-8      	; 0x7da <_Z21aktualizuj_hraci_polev+0x8c>
     7e2:	ac 01       	movw	r20, r24
     7e4:	66 27       	eor	r22, r22
     7e6:	57 fd       	sbrc	r21, 7
     7e8:	60 95       	com	r22
     7ea:	76 2f       	mov	r23, r22
     7ec:	80 91 e3 01 	lds	r24, 0x01E3
     7f0:	90 91 e4 01 	lds	r25, 0x01E4
     7f4:	a0 91 e5 01 	lds	r26, 0x01E5
     7f8:	b0 91 e6 01 	lds	r27, 0x01E6
     7fc:	84 2b       	or	r24, r20
     7fe:	95 2b       	or	r25, r21
     800:	a6 2b       	or	r26, r22
     802:	b7 2b       	or	r27, r23
     804:	80 93 e3 01 	sts	0x01E3, r24
     808:	90 93 e4 01 	sts	0x01E4, r25
     80c:	a0 93 e5 01 	sts	0x01E5, r26
     810:	b0 93 e6 01 	sts	0x01E6, r27
			if (CHECKBIT(temp_pozice,i2)==0)	{CLEARBIT(hraci_pole,i*8+i2);}			 		
     814:	30 97       	sbiw	r30, 0x00	; 0
     816:	71 f5       	brne	.+92     	; 0x874 <_Z21aktualizuj_hraci_polev+0x126>
     818:	40 91 e8 01 	lds	r20, 0x01E8
     81c:	50 e0       	ldi	r21, 0x00	; 0
     81e:	f3 e0       	ldi	r31, 0x03	; 3
     820:	44 0f       	add	r20, r20
     822:	55 1f       	adc	r21, r21
     824:	fa 95       	dec	r31
     826:	e1 f7       	brne	.-8      	; 0x820 <_Z21aktualizuj_hraci_polev+0xd2>
     828:	42 0f       	add	r20, r18
     82a:	53 1f       	adc	r21, r19
     82c:	9e 01       	movw	r18, r28
     82e:	02 c0       	rjmp	.+4      	; 0x834 <_Z21aktualizuj_hraci_polev+0xe6>
     830:	22 0f       	add	r18, r18
     832:	33 1f       	adc	r19, r19
     834:	4a 95       	dec	r20
     836:	e2 f7       	brpl	.-8      	; 0x830 <_Z21aktualizuj_hraci_polev+0xe2>
     838:	a9 01       	movw	r20, r18
     83a:	40 95       	com	r20
     83c:	50 95       	com	r21
     83e:	66 27       	eor	r22, r22
     840:	57 fd       	sbrc	r21, 7
     842:	60 95       	com	r22
     844:	76 2f       	mov	r23, r22
     846:	80 91 e3 01 	lds	r24, 0x01E3
     84a:	90 91 e4 01 	lds	r25, 0x01E4
     84e:	a0 91 e5 01 	lds	r26, 0x01E5
     852:	b0 91 e6 01 	lds	r27, 0x01E6
     856:	84 23       	and	r24, r20
     858:	95 23       	and	r25, r21
     85a:	a6 23       	and	r26, r22
     85c:	b7 23       	and	r27, r23
     85e:	80 93 e3 01 	sts	0x01E3, r24
     862:	90 93 e4 01 	sts	0x01E4, r25
     866:	a0 93 e5 01 	sts	0x01E5, r26
     86a:	b0 93 e6 01 	sts	0x01E6, r27
		sendNumber(n, numbersSpaces);
		return *this;
	}
	USART1_t &operator << (const bool &n)
	{
		send(n?"true":"false");
     86e:	85 e0       	ldi	r24, 0x05	; 5
     870:	91 e0       	ldi	r25, 0x01	; 1
     872:	02 c0       	rjmp	.+4      	; 0x878 <_Z21aktualizuj_hraci_polev+0x12a>
     874:	80 e0       	ldi	r24, 0x00	; 0
     876:	91 e0       	ldi	r25, 0x01	; 1
     878:	0e 94 0e 03 	call	0x61c	; 0x61c <_ZN8USART1_t4sendEPKc.constprop.22>
		sendChar(ch);
		return *this;
	}
	USART1_t &operator << (const char *ch)
	{
		send(ch);
     87c:	8e e0       	ldi	r24, 0x0E	; 14
     87e:	91 e0       	ldi	r25, 0x01	; 1
     880:	0e 94 0e 03 	call	0x61c	; 0x61c <_ZN8USART1_t4sendEPKc.constprop.22>
	uint8_t temp_pozice = 0;
	for (i=0; i!=4; i++)
	{
		temp_pozice  = pc.get(); 
		pc<<temp_pozice<<endl;
		for (i2=0; i2!=8; i2++)
     884:	80 91 e7 01 	lds	r24, 0x01E7
     888:	8f 5f       	subi	r24, 0xFF	; 255
     88a:	80 93 e7 01 	sts	0x01E7, r24
     88e:	80 91 e7 01 	lds	r24, 0x01E7
     892:	88 30       	cpi	r24, 0x08	; 8
     894:	09 f0       	breq	.+2      	; 0x898 <_Z21aktualizuj_hraci_polev+0x14a>
     896:	88 cf       	rjmp	.-240    	; 0x7a8 <_Z21aktualizuj_hraci_polev+0x5a>
		sendNumber(n, numbersSpaces);
		return *this;
	}
	USART1_t &operator << (const uint32_t &n)
	{
		sendNumber(n, numbersSpaces);
     898:	40 91 e3 01 	lds	r20, 0x01E3
     89c:	50 91 e4 01 	lds	r21, 0x01E4
     8a0:	60 91 e5 01 	lds	r22, 0x01E5
     8a4:	70 91 e6 01 	lds	r23, 0x01E6
     8a8:	86 e8       	ldi	r24, 0x86	; 134
     8aa:	93 e0       	ldi	r25, 0x03	; 3
     8ac:	20 91 50 04 	lds	r18, 0x0450
     8b0:	0e 94 5c 02 	call	0x4b8	; 0x4b8 <_ZN8USART1_t10sendNumberElh>
		sendChar(ch);
		return *this;
	}
	USART1_t &operator << (const char *ch)
	{
		send(ch);
     8b4:	8b e0       	ldi	r24, 0x0B	; 11
     8b6:	91 e0       	ldi	r25, 0x01	; 1
     8b8:	0e 94 0e 03 	call	0x61c	; 0x61c <_ZN8USART1_t4sendEPKc.constprop.22>
}

uint8_t aktualizuj_hraci_pole()	//pøidat další funkci, která zkontroluje, zda hodnoty v curr_pos[] odpovídají skuteènosti
{
	uint8_t temp_pozice = 0;
	for (i=0; i!=4; i++)
     8bc:	80 91 e8 01 	lds	r24, 0x01E8
     8c0:	8f 5f       	subi	r24, 0xFF	; 255
     8c2:	80 93 e8 01 	sts	0x01E8, r24
     8c6:	80 91 e8 01 	lds	r24, 0x01E8
     8ca:	84 30       	cpi	r24, 0x04	; 4
     8cc:	09 f0       	breq	.+2      	; 0x8d0 <_Z21aktualizuj_hraci_polev+0x182>
     8ce:	55 cf       	rjmp	.-342    	; 0x77a <_Z21aktualizuj_hraci_polev+0x2c>
			pc<<((temp_pozice & (1 << i2)) != 0)<<"_";
		}
		pc<<hraci_pole<<endl;
	}
	
	for (i=0; i!=1; i++)
     8d0:	10 92 e8 01 	sts	0x01E8, r1
     8d4:	58 c0       	rjmp	.+176    	; 0x986 <_Z21aktualizuj_hraci_polev+0x238>
	{
		temp_pozice  = pc.get();
     8d6:	86 e8       	ldi	r24, 0x86	; 134
     8d8:	93 e0       	ldi	r25, 0x03	; 3
     8da:	0e 94 94 03 	call	0x728	; 0x728 <_ZN8USART1_t3getEv>
     8de:	c8 2f       	mov	r28, r24
		sendNumber(n, numbersSpaces);
		return *this;
	}
	USART1_t &operator << (const uint8_t &n)
	{
		sendNumber(n, numbersSpaces);
     8e0:	48 2f       	mov	r20, r24
     8e2:	50 e0       	ldi	r21, 0x00	; 0
     8e4:	60 e0       	ldi	r22, 0x00	; 0
     8e6:	70 e0       	ldi	r23, 0x00	; 0
     8e8:	86 e8       	ldi	r24, 0x86	; 134
     8ea:	93 e0       	ldi	r25, 0x03	; 3
     8ec:	20 91 50 04 	lds	r18, 0x0450
     8f0:	0e 94 5c 02 	call	0x4b8	; 0x4b8 <_ZN8USART1_t10sendNumberElh>
		sendChar(ch);
		return *this;
	}
	USART1_t &operator << (const char *ch)
	{
		send(ch);
     8f4:	8b e0       	ldi	r24, 0x0B	; 11
     8f6:	91 e0       	ldi	r25, 0x01	; 1
     8f8:	0e 94 0e 03 	call	0x61c	; 0x61c <_ZN8USART1_t4sendEPKc.constprop.22>
		pc<<temp_pozice<<endl;
		for (i2=0; i2!=8; i2++)
     8fc:	10 92 e7 01 	sts	0x01E7, r1
		{
			zapis_domecek(i2,((temp_pozice & (1 << i2)) != 0));
     900:	d0 e0       	ldi	r29, 0x00	; 0
	
	for (i=0; i!=1; i++)
	{
		temp_pozice  = pc.get();
		pc<<temp_pozice<<endl;
		for (i2=0; i2!=8; i2++)
     902:	25 c0       	rjmp	.+74     	; 0x94e <_Z21aktualizuj_hraci_polev+0x200>
		{
			zapis_domecek(i2,((temp_pozice & (1 << i2)) != 0));
     904:	be 01       	movw	r22, r28
     906:	08 2e       	mov	r0, r24
     908:	02 c0       	rjmp	.+4      	; 0x90e <_Z21aktualizuj_hraci_polev+0x1c0>
     90a:	75 95       	asr	r23
     90c:	67 95       	ror	r22
     90e:	0a 94       	dec	r0
     910:	e2 f7       	brpl	.-8      	; 0x90a <_Z21aktualizuj_hraci_polev+0x1bc>
     912:	61 70       	andi	r22, 0x01	; 1
     914:	70 70       	andi	r23, 0x00	; 0
     916:	0e 94 ff 01 	call	0x3fe	; 0x3fe <_Z13zapis_domecekhb>
			pc<<((temp_pozice & (1 << i2)) != 0)<<"_";
     91a:	ce 01       	movw	r24, r28
     91c:	00 90 e7 01 	lds	r0, 0x01E7
     920:	02 c0       	rjmp	.+4      	; 0x926 <_Z21aktualizuj_hraci_polev+0x1d8>
     922:	95 95       	asr	r25
     924:	87 95       	ror	r24
     926:	0a 94       	dec	r0
     928:	e2 f7       	brpl	.-8      	; 0x922 <_Z21aktualizuj_hraci_polev+0x1d4>
		sendNumber(n, numbersSpaces);
		return *this;
	}
	USART1_t &operator << (const bool &n)
	{
		send(n?"true":"false");
     92a:	80 ff       	sbrs	r24, 0
     92c:	03 c0       	rjmp	.+6      	; 0x934 <_Z21aktualizuj_hraci_polev+0x1e6>
     92e:	80 e0       	ldi	r24, 0x00	; 0
     930:	91 e0       	ldi	r25, 0x01	; 1
     932:	02 c0       	rjmp	.+4      	; 0x938 <_Z21aktualizuj_hraci_polev+0x1ea>
     934:	85 e0       	ldi	r24, 0x05	; 5
     936:	91 e0       	ldi	r25, 0x01	; 1
     938:	0e 94 0e 03 	call	0x61c	; 0x61c <_ZN8USART1_t4sendEPKc.constprop.22>
		sendChar(ch);
		return *this;
	}
	USART1_t &operator << (const char *ch)
	{
		send(ch);
     93c:	8e e0       	ldi	r24, 0x0E	; 14
     93e:	91 e0       	ldi	r25, 0x01	; 1
     940:	0e 94 0e 03 	call	0x61c	; 0x61c <_ZN8USART1_t4sendEPKc.constprop.22>
	
	for (i=0; i!=1; i++)
	{
		temp_pozice  = pc.get();
		pc<<temp_pozice<<endl;
		for (i2=0; i2!=8; i2++)
     944:	80 91 e7 01 	lds	r24, 0x01E7
     948:	8f 5f       	subi	r24, 0xFF	; 255
     94a:	80 93 e7 01 	sts	0x01E7, r24
     94e:	80 91 e7 01 	lds	r24, 0x01E7
     952:	88 30       	cpi	r24, 0x08	; 8
     954:	b9 f6       	brne	.-82     	; 0x904 <_Z21aktualizuj_hraci_polev+0x1b6>
		sendNumber(n, numbersSpaces);
		return *this;
	}
	USART1_t &operator << (const uint8_t &n)
	{
		sendNumber(n, numbersSpaces);
     956:	40 91 e2 01 	lds	r20, 0x01E2
     95a:	50 e0       	ldi	r21, 0x00	; 0
     95c:	60 e0       	ldi	r22, 0x00	; 0
     95e:	70 e0       	ldi	r23, 0x00	; 0
     960:	86 e8       	ldi	r24, 0x86	; 134
     962:	93 e0       	ldi	r25, 0x03	; 3
     964:	20 91 50 04 	lds	r18, 0x0450
     968:	0e 94 5c 02 	call	0x4b8	; 0x4b8 <_ZN8USART1_t10sendNumberElh>
		sendChar(ch);
		return *this;
	}
	USART1_t &operator << (const char *ch)
	{
		send(ch);
     96c:	8b e0       	ldi	r24, 0x0B	; 11
     96e:	91 e0       	ldi	r25, 0x01	; 1
     970:	0e 94 0e 03 	call	0x61c	; 0x61c <_ZN8USART1_t4sendEPKc.constprop.22>
     974:	8b e0       	ldi	r24, 0x0B	; 11
     976:	91 e0       	ldi	r25, 0x01	; 1
     978:	0e 94 0e 03 	call	0x61c	; 0x61c <_ZN8USART1_t4sendEPKc.constprop.22>
			pc<<((temp_pozice & (1 << i2)) != 0)<<"_";
		}
		pc<<hraci_pole<<endl;
	}
	
	for (i=0; i!=1; i++)
     97c:	80 91 e8 01 	lds	r24, 0x01E8
     980:	8f 5f       	subi	r24, 0xFF	; 255
     982:	80 93 e8 01 	sts	0x01E8, r24
     986:	80 91 e8 01 	lds	r24, 0x01E8
     98a:	81 30       	cpi	r24, 0x01	; 1
     98c:	09 f0       	breq	.+2      	; 0x990 <_Z21aktualizuj_hraci_polev+0x242>
     98e:	a3 cf       	rjmp	.-186    	; 0x8d6 <_Z21aktualizuj_hraci_polev+0x188>
			pc<<((temp_pozice & (1 << i2)) != 0)<<"_";
		}
		pc<<promena_DOMECEK<<endl<<endl;
	}
	
	for (i=0; i!=32; i++)
     990:	10 92 e8 01 	sts	0x01E8, r1
	{
		pc<<CHECKBIT(hraci_pole,i);
     994:	c1 e0       	ldi	r28, 0x01	; 1
     996:	d0 e0       	ldi	r29, 0x00	; 0
			pc<<((temp_pozice & (1 << i2)) != 0)<<"_";
		}
		pc<<promena_DOMECEK<<endl<<endl;
	}
	
	for (i=0; i!=32; i++)
     998:	1f c0       	rjmp	.+62     	; 0x9d8 <_Z21aktualizuj_hraci_polev+0x28a>
	{
		pc<<CHECKBIT(hraci_pole,i);
     99a:	ae 01       	movw	r20, r28
     99c:	02 c0       	rjmp	.+4      	; 0x9a2 <_Z21aktualizuj_hraci_polev+0x254>
     99e:	44 0f       	add	r20, r20
     9a0:	55 1f       	adc	r21, r21
     9a2:	8a 95       	dec	r24
     9a4:	e2 f7       	brpl	.-8      	; 0x99e <_Z21aktualizuj_hraci_polev+0x250>
     9a6:	ca 01       	movw	r24, r20
     9a8:	aa 27       	eor	r26, r26
     9aa:	97 fd       	sbrc	r25, 7
     9ac:	a0 95       	com	r26
     9ae:	ba 2f       	mov	r27, r26
     9b0:	88 21       	and	r24, r8
     9b2:	99 21       	and	r25, r9
     9b4:	aa 21       	and	r26, r10
     9b6:	bb 21       	and	r27, r11
		sendNumber(n, numbersSpaces);
		return *this;
	}
	USART1_t &operator << (const bool &n)
	{
		send(n?"true":"false");
     9b8:	00 97       	sbiw	r24, 0x00	; 0
     9ba:	a1 05       	cpc	r26, r1
     9bc:	b1 05       	cpc	r27, r1
     9be:	19 f0       	breq	.+6      	; 0x9c6 <_Z21aktualizuj_hraci_polev+0x278>
     9c0:	80 e0       	ldi	r24, 0x00	; 0
     9c2:	91 e0       	ldi	r25, 0x01	; 1
     9c4:	02 c0       	rjmp	.+4      	; 0x9ca <_Z21aktualizuj_hraci_polev+0x27c>
     9c6:	85 e0       	ldi	r24, 0x05	; 5
     9c8:	91 e0       	ldi	r25, 0x01	; 1
     9ca:	0e 94 0e 03 	call	0x61c	; 0x61c <_ZN8USART1_t4sendEPKc.constprop.22>
			pc<<((temp_pozice & (1 << i2)) != 0)<<"_";
		}
		pc<<promena_DOMECEK<<endl<<endl;
	}
	
	for (i=0; i!=32; i++)
     9ce:	80 91 e8 01 	lds	r24, 0x01E8
     9d2:	8f 5f       	subi	r24, 0xFF	; 255
     9d4:	80 93 e8 01 	sts	0x01E8, r24
     9d8:	80 91 e8 01 	lds	r24, 0x01E8
     9dc:	80 90 e3 01 	lds	r8, 0x01E3
     9e0:	90 90 e4 01 	lds	r9, 0x01E4
     9e4:	a0 90 e5 01 	lds	r10, 0x01E5
     9e8:	b0 90 e6 01 	lds	r11, 0x01E6
     9ec:	80 32       	cpi	r24, 0x20	; 32
     9ee:	a9 f6       	brne	.-86     	; 0x99a <_Z21aktualizuj_hraci_polev+0x24c>
	//______________________-=kontrola=-_______________
	uint64_t hraci_pole_kontrola = 0;
	uint64_t curr_pos_kontrola = 0;
	uint8_t cislo_policka_chyba = 0;
		
	hraci_pole_kontrola = (hraci_pole+(promena_DOMECEK*4294967296));	
     9f0:	cc 24       	eor	r12, r12
     9f2:	dd 24       	eor	r13, r13
     9f4:	76 01       	movw	r14, r12
     9f6:	20 91 e2 01 	lds	r18, 0x01E2
     9fa:	30 e0       	ldi	r19, 0x00	; 0
     9fc:	40 e0       	ldi	r20, 0x00	; 0
     9fe:	50 e0       	ldi	r21, 0x00	; 0
     a00:	60 e0       	ldi	r22, 0x00	; 0
     a02:	70 e0       	ldi	r23, 0x00	; 0
     a04:	80 e0       	ldi	r24, 0x00	; 0
     a06:	90 e0       	ldi	r25, 0x00	; 0
     a08:	00 e2       	ldi	r16, 0x20	; 32
     a0a:	0e 94 4d 10 	call	0x209a	; 0x209a <__ashldi3>
     a0e:	28 0d       	add	r18, r8
     a10:	e1 e0       	ldi	r30, 0x01	; 1
     a12:	28 15       	cp	r18, r8
     a14:	08 f0       	brcs	.+2      	; 0xa18 <_Z21aktualizuj_hraci_polev+0x2ca>
     a16:	e0 e0       	ldi	r30, 0x00	; 0
     a18:	39 0d       	add	r19, r9
     a1a:	a1 e0       	ldi	r26, 0x01	; 1
     a1c:	39 15       	cp	r19, r9
     a1e:	08 f0       	brcs	.+2      	; 0xa22 <_Z21aktualizuj_hraci_polev+0x2d4>
     a20:	a0 e0       	ldi	r26, 0x00	; 0
     a22:	3e 2e       	mov	r3, r30
     a24:	33 0e       	add	r3, r19
     a26:	e1 e0       	ldi	r30, 0x01	; 1
     a28:	33 16       	cp	r3, r19
     a2a:	08 f0       	brcs	.+2      	; 0xa2e <_Z21aktualizuj_hraci_polev+0x2e0>
     a2c:	e0 e0       	ldi	r30, 0x00	; 0
     a2e:	ae 2b       	or	r26, r30
     a30:	4a 0d       	add	r20, r10
     a32:	b1 e0       	ldi	r27, 0x01	; 1
     a34:	4a 15       	cp	r20, r10
     a36:	08 f0       	brcs	.+2      	; 0xa3a <_Z21aktualizuj_hraci_polev+0x2ec>
     a38:	b0 e0       	ldi	r27, 0x00	; 0
     a3a:	a4 0f       	add	r26, r20
     a3c:	31 e0       	ldi	r19, 0x01	; 1
     a3e:	a4 17       	cp	r26, r20
     a40:	08 f0       	brcs	.+2      	; 0xa44 <_Z21aktualizuj_hraci_polev+0x2f6>
     a42:	30 e0       	ldi	r19, 0x00	; 0
     a44:	b3 2b       	or	r27, r19
     a46:	5b 0d       	add	r21, r11
     a48:	c1 e0       	ldi	r28, 0x01	; 1
     a4a:	5b 15       	cp	r21, r11
     a4c:	08 f0       	brcs	.+2      	; 0xa50 <_Z21aktualizuj_hraci_polev+0x302>
     a4e:	c0 e0       	ldi	r28, 0x00	; 0
     a50:	b5 0f       	add	r27, r21
     a52:	31 e0       	ldi	r19, 0x01	; 1
     a54:	b5 17       	cp	r27, r21
     a56:	08 f0       	brcs	.+2      	; 0xa5a <_Z21aktualizuj_hraci_polev+0x30c>
     a58:	30 e0       	ldi	r19, 0x00	; 0
     a5a:	c3 2b       	or	r28, r19
     a5c:	31 e0       	ldi	r19, 0x01	; 1
     a5e:	6c 15       	cp	r22, r12
     a60:	08 f0       	brcs	.+2      	; 0xa64 <_Z21aktualizuj_hraci_polev+0x316>
     a62:	30 e0       	ldi	r19, 0x00	; 0
     a64:	c6 0f       	add	r28, r22
     a66:	41 e0       	ldi	r20, 0x01	; 1
     a68:	c6 17       	cp	r28, r22
     a6a:	08 f0       	brcs	.+2      	; 0xa6e <_Z21aktualizuj_hraci_polev+0x320>
     a6c:	40 e0       	ldi	r20, 0x00	; 0
     a6e:	34 2b       	or	r19, r20
     a70:	41 e0       	ldi	r20, 0x01	; 1
     a72:	7d 15       	cp	r23, r13
     a74:	08 f0       	brcs	.+2      	; 0xa78 <_Z21aktualizuj_hraci_polev+0x32a>
     a76:	40 e0       	ldi	r20, 0x00	; 0
     a78:	63 2f       	mov	r22, r19
     a7a:	67 0f       	add	r22, r23
     a7c:	31 e0       	ldi	r19, 0x01	; 1
     a7e:	67 17       	cp	r22, r23
     a80:	08 f0       	brcs	.+2      	; 0xa84 <_Z21aktualizuj_hraci_polev+0x336>
     a82:	30 e0       	ldi	r19, 0x00	; 0
     a84:	43 2b       	or	r20, r19
     a86:	51 e0       	ldi	r21, 0x01	; 1
     a88:	8e 15       	cp	r24, r14
     a8a:	08 f0       	brcs	.+2      	; 0xa8e <_Z21aktualizuj_hraci_polev+0x340>
     a8c:	50 e0       	ldi	r21, 0x00	; 0
     a8e:	e4 2e       	mov	r14, r20
     a90:	e8 0e       	add	r14, r24
     a92:	31 e0       	ldi	r19, 0x01	; 1
     a94:	e8 16       	cp	r14, r24
     a96:	08 f0       	brcs	.+2      	; 0xa9a <_Z21aktualizuj_hraci_polev+0x34c>
     a98:	30 e0       	ldi	r19, 0x00	; 0
     a9a:	35 2b       	or	r19, r21
     a9c:	39 0f       	add	r19, r25
	for (i=0; i!=4; i++)
     a9e:	bb 24       	eor	r11, r11
		pc<<CHECKBIT(hraci_pole,i);
	}
	pc<endl;	
	//______________________-=kontrola=-_______________
	uint64_t hraci_pole_kontrola = 0;
	uint64_t curr_pos_kontrola = 0;
     aa0:	40 e0       	ldi	r20, 0x00	; 0
     aa2:	50 e0       	ldi	r21, 0x00	; 0
     aa4:	70 e0       	ldi	r23, 0x00	; 0
     aa6:	d0 e0       	ldi	r29, 0x00	; 0
     aa8:	10 e0       	ldi	r17, 0x00	; 0
     aaa:	00 e0       	ldi	r16, 0x00	; 0
     aac:	88 24       	eor	r8, r8
     aae:	ff 24       	eor	r15, r15
	uint8_t cislo_policka_chyba = 0;
		
	hraci_pole_kontrola = (hraci_pole+(promena_DOMECEK*4294967296));	
	for (i=0; i!=4; i++)
	{
		SETBIT(curr_pos_kontrola,curr_pos[i]);
     ab0:	e1 e0       	ldi	r30, 0x01	; 1
     ab2:	ce 2e       	mov	r12, r30
     ab4:	d1 2c       	mov	r13, r1
	uint64_t hraci_pole_kontrola = 0;
	uint64_t curr_pos_kontrola = 0;
	uint8_t cislo_policka_chyba = 0;
		
	hraci_pole_kontrola = (hraci_pole+(promena_DOMECEK*4294967296));	
	for (i=0; i!=4; i++)
     ab6:	17 c0       	rjmp	.+46     	; 0xae6 <_Z21aktualizuj_hraci_polev+0x398>
	{
		SETBIT(curr_pos_kontrola,curr_pos[i]);
     ab8:	eb 2d       	mov	r30, r11
     aba:	f0 e0       	ldi	r31, 0x00	; 0
     abc:	e6 52       	subi	r30, 0x26	; 38
     abe:	fe 4f       	sbci	r31, 0xFE	; 254
     ac0:	c6 01       	movw	r24, r12
     ac2:	00 80       	ld	r0, Z
     ac4:	02 c0       	rjmp	.+4      	; 0xaca <_Z21aktualizuj_hraci_polev+0x37c>
     ac6:	88 0f       	add	r24, r24
     ac8:	99 1f       	adc	r25, r25
     aca:	0a 94       	dec	r0
     acc:	e2 f7       	brpl	.-8      	; 0xac6 <_Z21aktualizuj_hraci_polev+0x378>
     ace:	e9 2f       	mov	r30, r25
     ad0:	ee 0f       	add	r30, r30
     ad2:	ee 0b       	sbc	r30, r30
     ad4:	48 2b       	or	r20, r24
     ad6:	59 2b       	or	r21, r25
     ad8:	7e 2b       	or	r23, r30
     ada:	de 2b       	or	r29, r30
     adc:	1e 2b       	or	r17, r30
     ade:	0e 2b       	or	r16, r30
     ae0:	8e 2a       	or	r8, r30
     ae2:	fe 2a       	or	r15, r30
     ae4:	b3 94       	inc	r11
	uint64_t hraci_pole_kontrola = 0;
	uint64_t curr_pos_kontrola = 0;
	uint8_t cislo_policka_chyba = 0;
		
	hraci_pole_kontrola = (hraci_pole+(promena_DOMECEK*4294967296));	
	for (i=0; i!=4; i++)
     ae6:	84 e0       	ldi	r24, 0x04	; 4
     ae8:	b8 16       	cp	r11, r24
     aea:	31 f7       	brne	.-52     	; 0xab8 <_Z21aktualizuj_hraci_polev+0x36a>
	{
		SETBIT(curr_pos_kontrola,curr_pos[i]);
	}
	
	i=0;
	while ((CHECKBIT(curr_pos_kontrola,i)==CHECKBIT(hraci_pole_kontrola,i)) && i!=40)
     aec:	80 e0       	ldi	r24, 0x00	; 0
     aee:	b2 2e       	mov	r11, r18
     af0:	e1 e0       	ldi	r30, 0x01	; 1
     af2:	f0 e0       	ldi	r31, 0x00	; 0
     af4:	08 2e       	mov	r0, r24
     af6:	02 c0       	rjmp	.+4      	; 0xafc <_Z21aktualizuj_hraci_polev+0x3ae>
     af8:	ee 0f       	add	r30, r30
     afa:	ff 1f       	adc	r31, r31
     afc:	0a 94       	dec	r0
     afe:	e2 f7       	brpl	.-8      	; 0xaf8 <_Z21aktualizuj_hraci_polev+0x3aa>
     b00:	9e 2f       	mov	r25, r30
     b02:	df 2e       	mov	r13, r31
     b04:	ff 0f       	add	r31, r31
     b06:	ff 0b       	sbc	r31, r31
     b08:	e9 2f       	mov	r30, r25
     b0a:	eb 21       	and	r30, r11
     b0c:	4d 2c       	mov	r4, r13
     b0e:	43 20       	and	r4, r3
     b10:	5f 2e       	mov	r5, r31
     b12:	5a 22       	and	r5, r26
     b14:	6f 2e       	mov	r6, r31
     b16:	6b 22       	and	r6, r27
     b18:	7f 2e       	mov	r7, r31
     b1a:	7c 22       	and	r7, r28
     b1c:	9f 2e       	mov	r9, r31
     b1e:	96 22       	and	r9, r22
     b20:	af 2e       	mov	r10, r31
     b22:	ae 20       	and	r10, r14
     b24:	cf 2e       	mov	r12, r31
     b26:	c3 22       	and	r12, r19
     b28:	21 e0       	ldi	r18, 0x01	; 1
     b2a:	e4 29       	or	r30, r4
     b2c:	e5 29       	or	r30, r5
     b2e:	e6 29       	or	r30, r6
     b30:	e7 29       	or	r30, r7
     b32:	e9 29       	or	r30, r9
     b34:	ea 29       	or	r30, r10
     b36:	ec 29       	or	r30, r12
     b38:	09 f4       	brne	.+2      	; 0xb3c <_Z21aktualizuj_hraci_polev+0x3ee>
     b3a:	20 e0       	ldi	r18, 0x00	; 0
     b3c:	94 23       	and	r25, r20
     b3e:	d5 22       	and	r13, r21
     b40:	6f 2e       	mov	r6, r31
     b42:	67 22       	and	r6, r23
     b44:	7f 2e       	mov	r7, r31
     b46:	7d 22       	and	r7, r29
     b48:	9f 2e       	mov	r9, r31
     b4a:	91 22       	and	r9, r17
     b4c:	af 2e       	mov	r10, r31
     b4e:	a0 22       	and	r10, r16
     b50:	cf 2e       	mov	r12, r31
     b52:	c8 20       	and	r12, r8
     b54:	ff 21       	and	r31, r15
     b56:	e1 e0       	ldi	r30, 0x01	; 1
     b58:	9d 29       	or	r25, r13
     b5a:	96 29       	or	r25, r6
     b5c:	97 29       	or	r25, r7
     b5e:	99 29       	or	r25, r9
     b60:	9a 29       	or	r25, r10
     b62:	9c 29       	or	r25, r12
     b64:	9f 2b       	or	r25, r31
     b66:	09 f0       	breq	.+2      	; 0xb6a <_Z21aktualizuj_hraci_polev+0x41c>
     b68:	e0 e0       	ldi	r30, 0x00	; 0
     b6a:	2e 17       	cp	r18, r30
     b6c:	39 f0       	breq	.+14     	; 0xb7c <_Z21aktualizuj_hraci_polev+0x42e>
     b6e:	88 32       	cpi	r24, 0x28	; 40
     b70:	19 f4       	brne	.+6      	; 0xb78 <_Z21aktualizuj_hraci_polev+0x42a>
     b72:	80 93 e8 01 	sts	0x01E8, r24
     b76:	06 c0       	rjmp	.+12     	; 0xb84 <_Z21aktualizuj_hraci_polev+0x436>
	{
		i++;
     b78:	8f 5f       	subi	r24, 0xFF	; 255
     b7a:	ba cf       	rjmp	.-140    	; 0xaf0 <_Z21aktualizuj_hraci_polev+0x3a2>
     b7c:	80 93 e8 01 	sts	0x01E8, r24
	}	
	if (i!=40)
     b80:	88 32       	cpi	r24, 0x28	; 40
     b82:	09 f4       	brne	.+2      	; 0xb86 <_Z21aktualizuj_hraci_polev+0x438>
	{
		cislo_policka_chyba=i;
	}
	else cislo_policka_chyba = 0;
     b84:	80 e0       	ldi	r24, 0x00	; 0
	return cislo_policka_chyba;	
}	
     b86:	df 91       	pop	r29
     b88:	cf 91       	pop	r28
     b8a:	1f 91       	pop	r17
     b8c:	0f 91       	pop	r16
     b8e:	ff 90       	pop	r15
     b90:	ef 90       	pop	r14
     b92:	df 90       	pop	r13
     b94:	cf 90       	pop	r12
     b96:	bf 90       	pop	r11
     b98:	af 90       	pop	r10
     b9a:	9f 90       	pop	r9
     b9c:	8f 90       	pop	r8
     b9e:	7f 90       	pop	r7
     ba0:	6f 90       	pop	r6
     ba2:	5f 90       	pop	r5
     ba4:	4f 90       	pop	r4
     ba6:	3f 90       	pop	r3
     ba8:	08 95       	ret

00000baa <__vector_31>:
	}
	else
		state = 0;
}
ISR(USART1_UDRE_vect)
{
     baa:	1f 92       	push	r1
     bac:	0f 92       	push	r0
     bae:	0f b6       	in	r0, 0x3f	; 63
     bb0:	0f 92       	push	r0
     bb2:	0b b6       	in	r0, 0x3b	; 59
     bb4:	0f 92       	push	r0
     bb6:	11 24       	eor	r1, r1
     bb8:	2f 93       	push	r18
     bba:	3f 93       	push	r19
     bbc:	4f 93       	push	r20
     bbe:	5f 93       	push	r21
     bc0:	6f 93       	push	r22
     bc2:	7f 93       	push	r23
     bc4:	8f 93       	push	r24
     bc6:	9f 93       	push	r25
     bc8:	af 93       	push	r26
     bca:	bf 93       	push	r27
     bcc:	ef 93       	push	r30
     bce:	ff 93       	push	r31
	volatile uint16_t m_write;
public:
	volatile bool overwrite;
	bool is_empty() const
	{
		if(m_write == m_read)
     bd0:	20 91 4d 04 	lds	r18, 0x044D
     bd4:	30 91 4e 04 	lds	r19, 0x044E
     bd8:	80 91 4b 04 	lds	r24, 0x044B
     bdc:	90 91 4c 04 	lds	r25, 0x044C
     be0:	28 17       	cp	r18, r24
     be2:	39 07       	cpc	r19, r25
     be4:	31 f4       	brne	.+12     	; 0xbf2 <__vector_31+0x48>
{
	char data;
	if(pc.data_out(data))
		UDR1 = data;
	else
		UCSR1B &= ~(1<<UDRIE1);
     be6:	80 91 9a 00 	lds	r24, 0x009A
     bea:	8f 7d       	andi	r24, 0xDF	; 223
     bec:	80 93 9a 00 	sts	0x009A, r24
     bf0:	06 c0       	rjmp	.+12     	; 0xbfe <__vector_31+0x54>

	bool data_out(char &ch)
	{
		if(m_tx.is_empty())
			return false;
		ch = m_tx.pop();
     bf2:	8b ee       	ldi	r24, 0xEB	; 235
     bf4:	93 e0       	ldi	r25, 0x03	; 3
     bf6:	0e 94 6d 03 	call	0x6da	; 0x6da <_ZN5queueIcLj96EE3popEv>
}
ISR(USART1_UDRE_vect)
{
	char data;
	if(pc.data_out(data))
		UDR1 = data;
     bfa:	80 93 9c 00 	sts	0x009C, r24
	else
		UCSR1B &= ~(1<<UDRIE1);
}
     bfe:	ff 91       	pop	r31
     c00:	ef 91       	pop	r30
     c02:	bf 91       	pop	r27
     c04:	af 91       	pop	r26
     c06:	9f 91       	pop	r25
     c08:	8f 91       	pop	r24
     c0a:	7f 91       	pop	r23
     c0c:	6f 91       	pop	r22
     c0e:	5f 91       	pop	r21
     c10:	4f 91       	pop	r20
     c12:	3f 91       	pop	r19
     c14:	2f 91       	pop	r18
     c16:	0f 90       	pop	r0
     c18:	0b be       	out	0x3b, r0	; 59
     c1a:	0f 90       	pop	r0
     c1c:	0f be       	out	0x3f, r0	; 63
     c1e:	0f 90       	pop	r0
     c20:	1f 90       	pop	r1
     c22:	18 95       	reti

00000c24 <_ZN5queueIhLj96EE4pushEh>:
	{
		if((m_write == (m_read - 1))||((m_write == (size - 1))&&(m_read == 0)))
			return true;
		return false;
	}
	bool push (T data)
     c24:	ac 01       	movw	r20, r24
	{
		m[m_write] = data;
     c26:	fc 01       	movw	r30, r24
     c28:	ee 59       	subi	r30, 0x9E	; 158
     c2a:	ff 4f       	sbci	r31, 0xFF	; 255
     c2c:	a0 81       	ld	r26, Z
     c2e:	b1 81       	ldd	r27, Z+1	; 0x01
     c30:	a8 0f       	add	r26, r24
     c32:	b9 1f       	adc	r27, r25
     c34:	6c 93       	st	X, r22
			return true;
		return false;
	}
	bool is_full() const
	{
		if((m_write == (m_read - 1))||((m_write == (size - 1))&&(m_read == 0)))
     c36:	20 81       	ld	r18, Z
     c38:	31 81       	ldd	r19, Z+1	; 0x01
     c3a:	dc 01       	movw	r26, r24
     c3c:	a0 5a       	subi	r26, 0xA0	; 160
     c3e:	bf 4f       	sbci	r27, 0xFF	; 255
     c40:	8d 91       	ld	r24, X+
     c42:	9c 91       	ld	r25, X
     c44:	11 97       	sbiw	r26, 0x01	; 1
     c46:	01 97       	sbiw	r24, 0x01	; 1
     c48:	28 17       	cp	r18, r24
     c4a:	39 07       	cpc	r19, r25
     c4c:	51 f0       	breq	.+20     	; 0xc62 <_ZN5queueIhLj96EE4pushEh+0x3e>
     c4e:	80 81       	ld	r24, Z
     c50:	91 81       	ldd	r25, Z+1	; 0x01
     c52:	8f 35       	cpi	r24, 0x5F	; 95
     c54:	91 05       	cpc	r25, r1
     c56:	89 f4       	brne	.+34     	; 0xc7a <_ZN5queueIhLj96EE4pushEh+0x56>
     c58:	8d 91       	ld	r24, X+
     c5a:	9c 91       	ld	r25, X
     c5c:	11 97       	sbiw	r26, 0x01	; 1
     c5e:	00 97       	sbiw	r24, 0x00	; 0
     c60:	61 f4       	brne	.+24     	; 0xc7a <_ZN5queueIhLj96EE4pushEh+0x56>
		return false;
	}
	bool push (T data)
	{
		m[m_write] = data;
		if(is_full()&&!overwrite)
     c62:	4c 59       	subi	r20, 0x9C	; 156
     c64:	5f 4f       	sbci	r21, 0xFF	; 255
     c66:	da 01       	movw	r26, r20
     c68:	8c 91       	ld	r24, X
     c6a:	88 23       	and	r24, r24
     c6c:	21 f0       	breq	.+8      	; 0xc76 <_ZN5queueIhLj96EE4pushEh+0x52>
     c6e:	05 c0       	rjmp	.+10     	; 0xc7a <_ZN5queueIhLj96EE4pushEh+0x56>
			return false;
		if(++m_write == size)
			m_write = 0;
     c70:	11 82       	std	Z+1, r1	; 0x01
     c72:	10 82       	st	Z, r1
     c74:	0a c0       	rjmp	.+20     	; 0xc8a <_ZN5queueIhLj96EE4pushEh+0x66>
	}
	bool push (T data)
	{
		m[m_write] = data;
		if(is_full()&&!overwrite)
			return false;
     c76:	80 e0       	ldi	r24, 0x00	; 0
		if(++m_write == size)
			m_write = 0;
		return true;
	}
     c78:	08 95       	ret
	bool push (T data)
	{
		m[m_write] = data;
		if(is_full()&&!overwrite)
			return false;
		if(++m_write == size)
     c7a:	80 81       	ld	r24, Z
     c7c:	91 81       	ldd	r25, Z+1	; 0x01
     c7e:	01 96       	adiw	r24, 0x01	; 1
     c80:	91 83       	std	Z+1, r25	; 0x01
     c82:	80 83       	st	Z, r24
     c84:	80 36       	cpi	r24, 0x60	; 96
     c86:	91 05       	cpc	r25, r1
     c88:	99 f3       	breq	.-26     	; 0xc70 <_ZN5queueIhLj96EE4pushEh+0x4c>
     c8a:	81 e0       	ldi	r24, 0x01	; 1
     c8c:	08 95       	ret

00000c8e <_ZN11dynamixel_t8sendCharEh>:
			return false;
		UCSR0A |= (1<<TXC0);
		return true;
	}

	void sendChar(uint8_t data)
     c8e:	1f 93       	push	r17
     c90:	cf 93       	push	r28
     c92:	df 93       	push	r29
     c94:	16 2f       	mov	r17, r22
	{
		while(!m_tx.push(data)) {}
     c96:	ec 01       	movw	r28, r24
     c98:	cb 59       	subi	r28, 0x9B	; 155
     c9a:	df 4f       	sbci	r29, 0xFF	; 255
     c9c:	ce 01       	movw	r24, r28
     c9e:	61 2f       	mov	r22, r17
     ca0:	0e 94 12 06 	call	0xc24	; 0xc24 <_ZN5queueIhLj96EE4pushEh>
     ca4:	88 23       	and	r24, r24
     ca6:	d1 f3       	breq	.-12     	; 0xc9c <_ZN11dynamixel_t8sendCharEh+0xe>
		//pc<<data<<'t';
		UCSR0B |= (1<<UDRIE0);
     ca8:	55 9a       	sbi	0x0a, 5	; 10
	}
     caa:	df 91       	pop	r29
     cac:	cf 91       	pop	r28
     cae:	1f 91       	pop	r17
     cb0:	08 95       	ret

00000cb2 <__vector_18>:
	}

}; dynamixel_t bus;

ISR(USART0_RX_vect)
{
     cb2:	1f 92       	push	r1
     cb4:	0f 92       	push	r0
     cb6:	0f b6       	in	r0, 0x3f	; 63
     cb8:	0f 92       	push	r0
     cba:	0b b6       	in	r0, 0x3b	; 59
     cbc:	0f 92       	push	r0
     cbe:	11 24       	eor	r1, r1
     cc0:	2f 93       	push	r18
     cc2:	3f 93       	push	r19
     cc4:	4f 93       	push	r20
     cc6:	5f 93       	push	r21
     cc8:	6f 93       	push	r22
     cca:	7f 93       	push	r23
     ccc:	8f 93       	push	r24
     cce:	9f 93       	push	r25
     cd0:	af 93       	push	r26
     cd2:	bf 93       	push	r27
     cd4:	cf 93       	push	r28
     cd6:	ef 93       	push	r30
     cd8:	ff 93       	push	r31
	char ch = UDR0;
     cda:	cc b1       	in	r28, 0x0c	; 12
	if((UCSR0A & (1<<FE0)) == (1<<FE0))
     cdc:	5c 99       	sbic	0x0b, 4	; 11
     cde:	07 c0       	rjmp	.+14     	; 0xcee <__vector_18+0x3c>

public:

	void data_in(const uint8_t &ch)
	{
		while(!m_rx.push(ch)) {}
     ce0:	88 eb       	ldi	r24, 0xB8	; 184
     ce2:	92 e0       	ldi	r25, 0x02	; 2
     ce4:	6c 2f       	mov	r22, r28
     ce6:	0e 94 12 06 	call	0xc24	; 0xc24 <_ZN5queueIhLj96EE4pushEh>
     cea:	88 23       	and	r24, r24
     cec:	c9 f3       	breq	.-14     	; 0xce0 <__vector_18+0x2e>
{
	char ch = UDR0;
	if((UCSR0A & (1<<FE0)) == (1<<FE0))
		return;
	bus.data_in(ch);
}
     cee:	ff 91       	pop	r31
     cf0:	ef 91       	pop	r30
     cf2:	cf 91       	pop	r28
     cf4:	bf 91       	pop	r27
     cf6:	af 91       	pop	r26
     cf8:	9f 91       	pop	r25
     cfa:	8f 91       	pop	r24
     cfc:	7f 91       	pop	r23
     cfe:	6f 91       	pop	r22
     d00:	5f 91       	pop	r21
     d02:	4f 91       	pop	r20
     d04:	3f 91       	pop	r19
     d06:	2f 91       	pop	r18
     d08:	0f 90       	pop	r0
     d0a:	0b be       	out	0x3b, r0	; 59
     d0c:	0f 90       	pop	r0
     d0e:	0f be       	out	0x3f, r0	; 63
     d10:	0f 90       	pop	r0
     d12:	1f 90       	pop	r1
     d14:	18 95       	reti

00000d16 <_ZN5queueIhLj96EE3popEv>:
			return false;
		if(++m_write == size)
			m_write = 0;
		return true;
	}
	T pop ()
     d16:	ac 01       	movw	r20, r24
	volatile uint16_t m_write;
public:
	volatile bool overwrite;
	bool is_empty() const
	{
		if(m_write == m_read)
     d18:	fc 01       	movw	r30, r24
     d1a:	ee 59       	subi	r30, 0x9E	; 158
     d1c:	ff 4f       	sbci	r31, 0xFF	; 255
     d1e:	20 81       	ld	r18, Z
     d20:	31 81       	ldd	r19, Z+1	; 0x01
     d22:	fc 01       	movw	r30, r24
     d24:	e0 5a       	subi	r30, 0xA0	; 160
     d26:	ff 4f       	sbci	r31, 0xFF	; 255
     d28:	80 81       	ld	r24, Z
     d2a:	91 81       	ldd	r25, Z+1	; 0x01
     d2c:	28 17       	cp	r18, r24
     d2e:	39 07       	cpc	r19, r25
     d30:	51 f4       	brne	.+20     	; 0xd46 <_ZN5queueIhLj96EE3popEv+0x30>
		return true;
	}
	T pop ()
	{
		if(is_empty())
			return m[m_read];
     d32:	01 90       	ld	r0, Z+
     d34:	f0 81       	ld	r31, Z
     d36:	e0 2d       	mov	r30, r0
     d38:	e4 0f       	add	r30, r20
     d3a:	f5 1f       	adc	r31, r21
     d3c:	80 81       	ld	r24, Z
     d3e:	08 95       	ret
		T data = m[m_read];
		if(++m_read == size)
			m_read = 0;
     d40:	11 82       	std	Z+1, r1	; 0x01
     d42:	10 82       	st	Z, r1
		return data;
	}
     d44:	08 95       	ret
	}
	T pop ()
	{
		if(is_empty())
			return m[m_read];
		T data = m[m_read];
     d46:	a0 81       	ld	r26, Z
     d48:	b1 81       	ldd	r27, Z+1	; 0x01
     d4a:	a4 0f       	add	r26, r20
     d4c:	b5 1f       	adc	r27, r21
     d4e:	8c 91       	ld	r24, X
		if(++m_read == size)
     d50:	20 81       	ld	r18, Z
     d52:	31 81       	ldd	r19, Z+1	; 0x01
     d54:	2f 5f       	subi	r18, 0xFF	; 255
     d56:	3f 4f       	sbci	r19, 0xFF	; 255
     d58:	31 83       	std	Z+1, r19	; 0x01
     d5a:	20 83       	st	Z, r18
     d5c:	20 36       	cpi	r18, 0x60	; 96
     d5e:	31 05       	cpc	r19, r1
     d60:	89 f7       	brne	.-30     	; 0xd44 <_ZN5queueIhLj96EE3popEv+0x2e>
     d62:	ee cf       	rjmp	.-36     	; 0xd40 <_ZN5queueIhLj96EE3popEv+0x2a>

00000d64 <_ZN11dynamixel_t4peekERh>:
	void wait()
	{
		while(!is_send()) {}
	}

	bool peek(uint8_t & data)
     d64:	cf 93       	push	r28
     d66:	df 93       	push	r29
     d68:	eb 01       	movw	r28, r22
	volatile uint16_t m_write;
public:
	volatile bool overwrite;
	bool is_empty() const
	{
		if(m_write == m_read)
     d6a:	fc 01       	movw	r30, r24
     d6c:	ee 59       	subi	r30, 0x9E	; 158
     d6e:	ff 4f       	sbci	r31, 0xFF	; 255
     d70:	40 81       	ld	r20, Z
     d72:	51 81       	ldd	r21, Z+1	; 0x01
     d74:	fc 01       	movw	r30, r24
     d76:	e0 5a       	subi	r30, 0xA0	; 160
     d78:	ff 4f       	sbci	r31, 0xFF	; 255
     d7a:	20 81       	ld	r18, Z
     d7c:	31 81       	ldd	r19, Z+1	; 0x01
     d7e:	42 17       	cp	r20, r18
     d80:	53 07       	cpc	r21, r19
     d82:	21 f4       	brne	.+8      	; 0xd8c <_ZN11dynamixel_t4peekERh+0x28>
	}

	bool peek(uint8_t & data)
	{
		if(m_rx.is_empty())
			return false;
     d84:	80 e0       	ldi	r24, 0x00	; 0
		data = m_rx.pop();
		return true;
	}
     d86:	df 91       	pop	r29
     d88:	cf 91       	pop	r28
     d8a:	08 95       	ret

	bool peek(uint8_t & data)
	{
		if(m_rx.is_empty())
			return false;
		data = m_rx.pop();
     d8c:	0e 94 8b 06 	call	0xd16	; 0xd16 <_ZN5queueIhLj96EE3popEv>
     d90:	88 83       	st	Y, r24
     d92:	81 e0       	ldi	r24, 0x01	; 1
     d94:	f8 cf       	rjmp	.-16     	; 0xd86 <_ZN11dynamixel_t4peekERh+0x22>

00000d96 <_ZN11dynamixel_t3comEhhPhjhmj>:
		}
		return 0;
	}
#endif
#if 1
	int com(uint8_t ID, uint8_t instruction, uint8_t *data, uint16_t Tlength, uint8_t Rlength, uint32_t retWait, uint16_t max_time = 500)
     d96:	4f 92       	push	r4
     d98:	5f 92       	push	r5
     d9a:	6f 92       	push	r6
     d9c:	7f 92       	push	r7
     d9e:	8f 92       	push	r8
     da0:	9f 92       	push	r9
     da2:	af 92       	push	r10
     da4:	bf 92       	push	r11
     da6:	cf 92       	push	r12
     da8:	df 92       	push	r13
     daa:	ef 92       	push	r14
     dac:	ff 92       	push	r15
     dae:	0f 93       	push	r16
     db0:	1f 93       	push	r17
     db2:	cf 93       	push	r28
     db4:	df 93       	push	r29
     db6:	00 d0       	rcall	.+0      	; 0xdb8 <_ZN11dynamixel_t3comEhhPhjhmj+0x22>
     db8:	cd b7       	in	r28, 0x3d	; 61
     dba:	de b7       	in	r29, 0x3e	; 62
     dbc:	6c 01       	movw	r12, r24
     dbe:	76 2e       	mov	r7, r22
     dc0:	29 01       	movw	r4, r18
     dc2:	6e 2c       	mov	r6, r14
	{
		uint8_t checksum = ID + Tlength + 2 + instruction;
     dc4:	e0 2e       	mov	r14, r16
     dc6:	26 2f       	mov	r18, r22
     dc8:	2e 5f       	subi	r18, 0xFE	; 254
     dca:	24 0f       	add	r18, r20
     dcc:	20 0f       	add	r18, r16
		for(uint8_t i = 0; i < Tlength; ++i)
     dce:	30 e0       	ldi	r19, 0x00	; 0
     dd0:	06 c0       	rjmp	.+12     	; 0xdde <_ZN11dynamixel_t3comEhhPhjhmj+0x48>
			checksum += *(data+i);
     dd2:	84 0d       	add	r24, r4
     dd4:	95 1d       	adc	r25, r5
     dd6:	fc 01       	movw	r30, r24
     dd8:	80 81       	ld	r24, Z
     dda:	28 0f       	add	r18, r24
#endif
#if 1
	int com(uint8_t ID, uint8_t instruction, uint8_t *data, uint16_t Tlength, uint8_t Rlength, uint32_t retWait, uint16_t max_time = 500)
	{
		uint8_t checksum = ID + Tlength + 2 + instruction;
		for(uint8_t i = 0; i < Tlength; ++i)
     ddc:	3f 5f       	subi	r19, 0xFF	; 255
     dde:	83 2f       	mov	r24, r19
     de0:	90 e0       	ldi	r25, 0x00	; 0
     de2:	80 17       	cp	r24, r16
     de4:	91 07       	cpc	r25, r17
     de6:	a8 f3       	brcs	.-22     	; 0xdd2 <_ZN11dynamixel_t3comEhhPhjhmj+0x3c>
			checksum += *(data+i);
		checksum = ~checksum;
     de8:	f2 2e       	mov	r15, r18
     dea:	f0 94       	com	r15
		uint8_t returned = 0;
     dec:	19 82       	std	Y+1, r1	; 0x01

//linka

	void transmit()
	{
		PORTE = (PORTE & ~(1<<PE3))|(1<<PE2);
     dee:	83 b1       	in	r24, 0x03	; 3
     df0:	83 7f       	andi	r24, 0xF3	; 243
     df2:	84 60       	ori	r24, 0x04	; 4
     df4:	83 b9       	out	0x03, r24	; 3
		UCSR0B = (1<<TXEN0);
     df6:	88 e0       	ldi	r24, 0x08	; 8
     df8:	8a b9       	out	0x0a, r24	; 10
		for(uint8_t i = 0; i < Tlength; ++i)
			checksum += *(data+i);
		checksum = ~checksum;
		uint8_t returned = 0;
		transmit();
		sendChar(0xFF);
     dfa:	c6 01       	movw	r24, r12
     dfc:	6f ef       	ldi	r22, 0xFF	; 255
     dfe:	4a 83       	std	Y+2, r20	; 0x02
     e00:	0e 94 47 06 	call	0xc8e	; 0xc8e <_ZN11dynamixel_t8sendCharEh>
		sendChar(0xFF);
     e04:	c6 01       	movw	r24, r12
     e06:	6f ef       	ldi	r22, 0xFF	; 255
     e08:	0e 94 47 06 	call	0xc8e	; 0xc8e <_ZN11dynamixel_t8sendCharEh>
		sendChar(ID);
     e0c:	c6 01       	movw	r24, r12
     e0e:	67 2d       	mov	r22, r7
     e10:	0e 94 47 06 	call	0xc8e	; 0xc8e <_ZN11dynamixel_t8sendCharEh>
		sendChar(Tlength + 2);
     e14:	6e 2d       	mov	r22, r14
     e16:	6e 5f       	subi	r22, 0xFE	; 254
     e18:	c6 01       	movw	r24, r12
     e1a:	0e 94 47 06 	call	0xc8e	; 0xc8e <_ZN11dynamixel_t8sendCharEh>
		sendChar(instruction);
     e1e:	c6 01       	movw	r24, r12
     e20:	4a 81       	ldd	r20, Y+2	; 0x02
     e22:	64 2f       	mov	r22, r20
     e24:	0e 94 47 06 	call	0xc8e	; 0xc8e <_ZN11dynamixel_t8sendCharEh>
     e28:	a4 2c       	mov	r10, r4
     e2a:	82 01       	movw	r16, r4
     e2c:	06 c0       	rjmp	.+12     	; 0xe3a <_ZN11dynamixel_t3comEhhPhjhmj+0xa4>
	}

	void send(uint8_t * data, uint8_t length)
	{
		for(uint8_t i = 0; i < length; ++i)
			sendChar(*(data + i));
     e2e:	f8 01       	movw	r30, r16
     e30:	61 91       	ld	r22, Z+
     e32:	8f 01       	movw	r16, r30
     e34:	c6 01       	movw	r24, r12
     e36:	0e 94 47 06 	call	0xc8e	; 0xc8e <_ZN11dynamixel_t8sendCharEh>
		return true;
	}

	void send(uint8_t * data, uint8_t length)
	{
		for(uint8_t i = 0; i < length; ++i)
     e3a:	80 2f       	mov	r24, r16
     e3c:	8a 19       	sub	r24, r10
     e3e:	8e 15       	cp	r24, r14
     e40:	b0 f3       	brcs	.-20     	; 0xe2e <_ZN11dynamixel_t3comEhhPhjhmj+0x98>
		sendChar(0xFF);
		sendChar(ID);
		sendChar(Tlength + 2);
		sendChar(instruction);
		send(data, Tlength);
		sendChar(checksum);
     e42:	c6 01       	movw	r24, r12
     e44:	6f 2d       	mov	r22, r15
     e46:	0e 94 47 06 	call	0xc8e	; 0xc8e <_ZN11dynamixel_t8sendCharEh>
	volatile uint16_t m_write;
public:
	volatile bool overwrite;
	bool is_empty() const
	{
		if(m_write == m_read)
     e4a:	f6 01       	movw	r30, r12
     e4c:	e9 53       	subi	r30, 0x39	; 57
     e4e:	ff 4f       	sbci	r31, 0xFF	; 255
     e50:	d6 01       	movw	r26, r12
     e52:	ab 53       	subi	r26, 0x3B	; 59
     e54:	bf 4f       	sbci	r27, 0xFF	; 255
     e56:	80 81       	ld	r24, Z
     e58:	91 81       	ldd	r25, Z+1	; 0x01
     e5a:	2d 91       	ld	r18, X+
     e5c:	3c 91       	ld	r19, X
     e5e:	11 97       	sbiw	r26, 0x01	; 1
     e60:	82 17       	cp	r24, r18
     e62:	93 07       	cpc	r25, r19
     e64:	09 f0       	breq	.+2      	; 0xe68 <_ZN11dynamixel_t3comEhhPhjhmj+0xd2>
     e66:	7c c0       	rjmp	.+248    	; 0xf60 <_ZN11dynamixel_t3comEhhPhjhmj+0x1ca>
     e68:	7d c0       	rjmp	.+250    	; 0xf64 <_ZN11dynamixel_t3comEhhPhjhmj+0x1ce>
		sendChar(instruction);
		send(data, Tlength);
		sendChar(checksum);
		wait();
		receive();
		while(!peek(returned) || returned != 255) {}
     e6a:	c6 01       	movw	r24, r12
     e6c:	be 01       	movw	r22, r28
     e6e:	6f 5f       	subi	r22, 0xFF	; 255
     e70:	7f 4f       	sbci	r23, 0xFF	; 255
     e72:	0e 94 b2 06 	call	0xd64	; 0xd64 <_ZN11dynamixel_t4peekERh>
     e76:	88 23       	and	r24, r24
     e78:	c1 f3       	breq	.-16     	; 0xe6a <_ZN11dynamixel_t3comEhhPhjhmj+0xd4>
     e7a:	89 81       	ldd	r24, Y+1	; 0x01
     e7c:	8f 3f       	cpi	r24, 0xFF	; 255
     e7e:	a9 f7       	brne	.-22     	; 0xe6a <_ZN11dynamixel_t3comEhhPhjhmj+0xd4>
		//pc<<returned<<'r';
		while(!peek(returned) || returned != 255) {}
     e80:	c6 01       	movw	r24, r12
     e82:	be 01       	movw	r22, r28
     e84:	6f 5f       	subi	r22, 0xFF	; 255
     e86:	7f 4f       	sbci	r23, 0xFF	; 255
     e88:	0e 94 b2 06 	call	0xd64	; 0xd64 <_ZN11dynamixel_t4peekERh>
     e8c:	88 23       	and	r24, r24
     e8e:	c1 f3       	breq	.-16     	; 0xe80 <_ZN11dynamixel_t3comEhhPhjhmj+0xea>
     e90:	89 81       	ldd	r24, Y+1	; 0x01
     e92:	8f 3f       	cpi	r24, 0xFF	; 255
     e94:	a9 f7       	brne	.-22     	; 0xe80 <_ZN11dynamixel_t3comEhhPhjhmj+0xea>
		//pc<<returned<<'r';
		while(!peek(returned) || returned !=  ID) {}
     e96:	c6 01       	movw	r24, r12
     e98:	be 01       	movw	r22, r28
     e9a:	6f 5f       	subi	r22, 0xFF	; 255
     e9c:	7f 4f       	sbci	r23, 0xFF	; 255
     e9e:	0e 94 b2 06 	call	0xd64	; 0xd64 <_ZN11dynamixel_t4peekERh>
     ea2:	88 23       	and	r24, r24
     ea4:	c1 f3       	breq	.-16     	; 0xe96 <_ZN11dynamixel_t3comEhhPhjhmj+0x100>
     ea6:	89 81       	ldd	r24, Y+1	; 0x01
     ea8:	87 15       	cp	r24, r7
     eaa:	a9 f7       	brne	.-22     	; 0xe96 <_ZN11dynamixel_t3comEhhPhjhmj+0x100>
		//pc<<returned<<'r';
		while(!peek(returned)){}
     eac:	c6 01       	movw	r24, r12
     eae:	be 01       	movw	r22, r28
     eb0:	6f 5f       	subi	r22, 0xFF	; 255
     eb2:	7f 4f       	sbci	r23, 0xFF	; 255
     eb4:	0e 94 b2 06 	call	0xd64	; 0xd64 <_ZN11dynamixel_t4peekERh>
     eb8:	88 23       	and	r24, r24
     eba:	c1 f3       	breq	.-16     	; 0xeac <_ZN11dynamixel_t3comEhhPhjhmj+0x116>
		//pc<<returned<<"re";
		uint8_t a = get(data, (returned - 1), max_time);
     ebc:	09 81       	ldd	r16, Y+1	; 0x01
     ebe:	10 2f       	mov	r17, r16
     ec0:	11 50       	subi	r17, 0x01	; 1
     ec2:	52 01       	movw	r10, r4
     ec4:	14 c0       	rjmp	.+40     	; 0xeee <_ZN11dynamixel_t3comEhhPhjhmj+0x158>
		uint8_t received = length;
		while(length-- != 0)
		{
			while(!peek(*data))
			{
				if(++waiting == max_time)
     ec6:	08 94       	sec
     ec8:	e1 1c       	adc	r14, r1
     eca:	f1 1c       	adc	r15, r1
     ecc:	e8 14       	cp	r14, r8
     ece:	f9 04       	cpc	r15, r9
     ed0:	21 f4       	brne	.+8      	; 0xeda <_ZN11dynamixel_t3comEhhPhjhmj+0x144>
				{
					--received;
     ed2:	11 50       	subi	r17, 0x01	; 1
     ed4:	08 c0       	rjmp	.+16     	; 0xee6 <_ZN11dynamixel_t3comEhhPhjhmj+0x150>

	int get(uint8_t * data, uint8_t length, uint16_t max_time)
	{
		uint16_t waiting = 0;
		uint8_t received = length;
		while(length-- != 0)
     ed6:	ee 24       	eor	r14, r14
     ed8:	ff 24       	eor	r15, r15
		{
			while(!peek(*data))
     eda:	c6 01       	movw	r24, r12
     edc:	b5 01       	movw	r22, r10
     ede:	0e 94 b2 06 	call	0xd64	; 0xd64 <_ZN11dynamixel_t4peekERh>
     ee2:	88 23       	and	r24, r24
     ee4:	81 f3       	breq	.-32     	; 0xec6 <_ZN11dynamixel_t3comEhhPhjhmj+0x130>
					//pc<<"breaked"<<endl;
					break;
				}
			}
			//pc<<*data<<"rg";
			++data;
     ee6:	08 94       	sec
     ee8:	a1 1c       	adc	r10, r1
     eea:	b1 1c       	adc	r11, r1
     eec:	01 50       	subi	r16, 0x01	; 1

	int get(uint8_t * data, uint8_t length, uint16_t max_time)
	{
		uint16_t waiting = 0;
		uint8_t received = length;
		while(length-- != 0)
     eee:	01 30       	cpi	r16, 0x01	; 1
     ef0:	91 f7       	brne	.-28     	; 0xed6 <_ZN11dynamixel_t3comEhhPhjhmj+0x140>
		//pc<<returned<<'r';
		while(!peek(returned)){}
		//pc<<returned<<"re";
		uint8_t a = get(data, (returned - 1), max_time);
		//pc<<endl<<"a: "<<a<<Rlength<<endl;
		if(a == Rlength)
     ef2:	16 15       	cp	r17, r6
     ef4:	e9 f4       	brne	.+58     	; 0xf30 <_ZN11dynamixel_t3comEhhPhjhmj+0x19a>
		{
			checksum = ID + returned;
     ef6:	89 81       	ldd	r24, Y+1	; 0x01
     ef8:	78 0e       	add	r7, r24
			for(uint8_t i = 0; i != returned - 1; ++i)
     efa:	40 e0       	ldi	r20, 0x00	; 0
     efc:	90 e0       	ldi	r25, 0x00	; 0
     efe:	01 97       	sbiw	r24, 0x01	; 1
     f00:	06 c0       	rjmp	.+12     	; 0xf0e <_ZN11dynamixel_t3comEhhPhjhmj+0x178>
				checksum += *(data+i);
     f02:	24 0d       	add	r18, r4
     f04:	35 1d       	adc	r19, r5
     f06:	f9 01       	movw	r30, r18
     f08:	20 81       	ld	r18, Z
     f0a:	72 0e       	add	r7, r18
		uint8_t a = get(data, (returned - 1), max_time);
		//pc<<endl<<"a: "<<a<<Rlength<<endl;
		if(a == Rlength)
		{
			checksum = ID + returned;
			for(uint8_t i = 0; i != returned - 1; ++i)
     f0c:	4f 5f       	subi	r20, 0xFF	; 255
     f0e:	24 2f       	mov	r18, r20
     f10:	30 e0       	ldi	r19, 0x00	; 0
     f12:	28 17       	cp	r18, r24
     f14:	39 07       	cpc	r19, r25
     f16:	a9 f7       	brne	.-22     	; 0xf02 <_ZN11dynamixel_t3comEhhPhjhmj+0x16c>
				checksum += *(data+i);
			checksum = ~checksum;
     f18:	70 94       	com	r7
			while(!peek(returned)){}
     f1a:	c6 01       	movw	r24, r12
     f1c:	be 01       	movw	r22, r28
     f1e:	6f 5f       	subi	r22, 0xFF	; 255
     f20:	7f 4f       	sbci	r23, 0xFF	; 255
     f22:	0e 94 b2 06 	call	0xd64	; 0xd64 <_ZN11dynamixel_t4peekERh>
     f26:	88 23       	and	r24, r24
     f28:	c1 f3       	breq	.-16     	; 0xf1a <_ZN11dynamixel_t3comEhhPhjhmj+0x184>
			//pc<<returned<<'r'<<endl<<"checksum: "<<checksum<<endl;
			if(checksum == returned)
     f2a:	89 81       	ldd	r24, Y+1	; 0x01
     f2c:	78 16       	cp	r7, r24
     f2e:	19 f0       	breq	.+6      	; 0xf36 <_ZN11dynamixel_t3comEhhPhjhmj+0x1a0>
				//pc<<"com return 0"<<endl;
				return 0;
			}
		}
		//pc<<endl<<"spatna delka: "<<a<<Rlength<<endl;
		return -1;
     f30:	8f ef       	ldi	r24, 0xFF	; 255
     f32:	9f ef       	ldi	r25, 0xFF	; 255
     f34:	02 c0       	rjmp	.+4      	; 0xf3a <_ZN11dynamixel_t3comEhhPhjhmj+0x1a4>
			while(!peek(returned)){}
			//pc<<returned<<'r'<<endl<<"checksum: "<<checksum<<endl;
			if(checksum == returned)
			{
				//pc<<"com return 0"<<endl;
				return 0;
     f36:	80 e0       	ldi	r24, 0x00	; 0
     f38:	90 e0       	ldi	r25, 0x00	; 0
			}
		}
		//pc<<endl<<"spatna delka: "<<a<<Rlength<<endl;
		return -1;
	}
     f3a:	0f 90       	pop	r0
     f3c:	0f 90       	pop	r0
     f3e:	df 91       	pop	r29
     f40:	cf 91       	pop	r28
     f42:	1f 91       	pop	r17
     f44:	0f 91       	pop	r16
     f46:	ff 90       	pop	r15
     f48:	ef 90       	pop	r14
     f4a:	df 90       	pop	r13
     f4c:	cf 90       	pop	r12
     f4e:	bf 90       	pop	r11
     f50:	af 90       	pop	r10
     f52:	9f 90       	pop	r9
     f54:	8f 90       	pop	r8
     f56:	7f 90       	pop	r7
     f58:	6f 90       	pop	r6
     f5a:	5f 90       	pop	r5
     f5c:	4f 90       	pop	r4
     f5e:	08 95       	ret
		receive();
	}

	bool is_send()
	{
		if(!m_tx.is_empty() && ((UCSR0A & (1<<TXC0)) == 0))
     f60:	5e 9b       	sbis	0x0b, 6	; 11
     f62:	79 cf       	rjmp	.-270    	; 0xe56 <_ZN11dynamixel_t3comEhhPhjhmj+0xc0>
			return false;
		UCSR0A |= (1<<TXC0);
     f64:	5e 9a       	sbi	0x0b, 6	; 11
		sendChar(Tlength + 2);
		sendChar(instruction);
		send(data, Tlength);
		sendChar(checksum);
		wait();
		receive();
     f66:	0e 94 52 01 	call	0x2a4	; 0x2a4 <_ZN11dynamixel_t7receiveEv.isra.1>
		while(!peek(returned) || returned != 255) {}
     f6a:	7f cf       	rjmp	.-258    	; 0xe6a <_ZN11dynamixel_t3comEhhPhjhmj+0xd4>

00000f6c <_ZN11dynamixel_t9writeWordEhhj>:
	int writeByte(uint8_t ID, uint8_t address, uint8_t data)
	{
		uint8_t repository[2] = {address, data};
		return com(ID, INST_WRITE, &repository[0], 2, DYNAMIXEL_RETURN==2?1:0, DYNAMIXEL_RESPOND_TIME)==0?repository[0]:(repository[0]|(1<<7));
	}
	int writeWord(uint8_t ID, uint8_t address, uint16_t data)
     f6c:	8f 92       	push	r8
     f6e:	9f 92       	push	r9
     f70:	af 92       	push	r10
     f72:	bf 92       	push	r11
     f74:	cf 92       	push	r12
     f76:	df 92       	push	r13
     f78:	ef 92       	push	r14
     f7a:	0f 93       	push	r16
     f7c:	1f 93       	push	r17
     f7e:	cf 93       	push	r28
     f80:	df 93       	push	r29
     f82:	00 d0       	rcall	.+0      	; 0xf84 <_ZN11dynamixel_t9writeWordEhhj+0x18>
     f84:	0f 92       	push	r0
     f86:	cd b7       	in	r28, 0x3d	; 61
     f88:	de b7       	in	r29, 0x3e	; 62
	{
		uint8_t repository[3] = {address, (data & 0x00FF), (data & 0xFF00) >> 8};
     f8a:	49 83       	std	Y+1, r20	; 0x01
     f8c:	2a 83       	std	Y+2, r18	; 0x02
     f8e:	3b 83       	std	Y+3, r19	; 0x03
		return com(ID, INST_WRITE, &repository[0], 3, DYNAMIXEL_RETURN==2?1:0, DYNAMIXEL_RESPOND_TIME)==0?repository[0]:(repository[0]|(1<<7));
     f90:	43 e0       	ldi	r20, 0x03	; 3
     f92:	9e 01       	movw	r18, r28
     f94:	2f 5f       	subi	r18, 0xFF	; 255
     f96:	3f 4f       	sbci	r19, 0xFF	; 255
     f98:	03 e0       	ldi	r16, 0x03	; 3
     f9a:	10 e0       	ldi	r17, 0x00	; 0
     f9c:	ee 24       	eor	r14, r14
     f9e:	e3 94       	inc	r14
     fa0:	b4 ef       	ldi	r27, 0xF4	; 244
     fa2:	ab 2e       	mov	r10, r27
     fa4:	b1 e0       	ldi	r27, 0x01	; 1
     fa6:	bb 2e       	mov	r11, r27
     fa8:	c1 2c       	mov	r12, r1
     faa:	d1 2c       	mov	r13, r1
     fac:	54 ef       	ldi	r21, 0xF4	; 244
     fae:	85 2e       	mov	r8, r21
     fb0:	51 e0       	ldi	r21, 0x01	; 1
     fb2:	95 2e       	mov	r9, r21
     fb4:	0e 94 cb 06 	call	0xd96	; 0xd96 <_ZN11dynamixel_t3comEhhPhjhmj>
     fb8:	29 81       	ldd	r18, Y+1	; 0x01
     fba:	00 97       	sbiw	r24, 0x00	; 0
     fbc:	11 f4       	brne	.+4      	; 0xfc2 <_ZN11dynamixel_t9writeWordEhhj+0x56>
     fbe:	82 2f       	mov	r24, r18
     fc0:	02 c0       	rjmp	.+4      	; 0xfc6 <_ZN11dynamixel_t9writeWordEhhj+0x5a>
     fc2:	82 2f       	mov	r24, r18
     fc4:	80 68       	ori	r24, 0x80	; 128
	}
     fc6:	90 e0       	ldi	r25, 0x00	; 0
     fc8:	0f 90       	pop	r0
     fca:	0f 90       	pop	r0
     fcc:	0f 90       	pop	r0
     fce:	df 91       	pop	r29
     fd0:	cf 91       	pop	r28
     fd2:	1f 91       	pop	r17
     fd4:	0f 91       	pop	r16
     fd6:	ef 90       	pop	r14
     fd8:	df 90       	pop	r13
     fda:	cf 90       	pop	r12
     fdc:	bf 90       	pop	r11
     fde:	af 90       	pop	r10
     fe0:	9f 90       	pop	r9
     fe2:	8f 90       	pop	r8
     fe4:	08 95       	ret

00000fe6 <_Z15nastav_rychlosth>:
	}	
}


void nastav_rychlost(uint8_t delitel)	//cim vyssi je delitel tim pomaleji to jede
{
     fe6:	cf 93       	push	r28
     fe8:	df 93       	push	r29
	for(i=0; i!=pocet_motoru; i++)
     fea:	10 92 e8 01 	sts	0x01E8, r1
	{
		motor[i+1].speed((pgm_read_word(&(hodnoty_rychlost[(i)]))/delitel));
     fee:	c8 2f       	mov	r28, r24
     ff0:	d0 e0       	ldi	r29, 0x00	; 0
}


void nastav_rychlost(uint8_t delitel)	//cim vyssi je delitel tim pomaleji to jede
{
	for(i=0; i!=pocet_motoru; i++)
     ff2:	20 c0       	rjmp	.+64     	; 0x1034 <_Z15nastav_rychlosth+0x4e>
	{
		motor[i+1].speed((pgm_read_word(&(hodnoty_rychlost[(i)]))/delitel));
     ff4:	3e 2f       	mov	r19, r30
     ff6:	3f 5f       	subi	r19, 0xFF	; 255
		m_error.overwrite = true;
	}

	motor_t &operator [] (const uint8_t &id)
	{
		currentID = id;
     ff8:	30 93 52 02 	sts	0x0252, r19
     ffc:	f0 e0       	ldi	r31, 0x00	; 0
     ffe:	ee 0f       	add	r30, r30
    1000:	ff 1f       	adc	r31, r31
    1002:	e1 50       	subi	r30, 0x01	; 1
    1004:	ff 4f       	sbci	r31, 0xFF	; 255
    1006:	85 91       	lpm	r24, Z+
    1008:	94 91       	lpm	r25, Z
    100a:	be 01       	movw	r22, r28
    100c:	0e 94 87 14 	call	0x290e	; 0x290e <__udivmodhi4>
    1010:	fb 01       	movw	r30, r22
		m_error.push(bus.writeWord(currentID, P_CCW_ANGLE_LIMIT_L, ((uint16_t)(limit))));
		return *this;
	}
	motor_t & speed(const uint16_t &speed = 256)
	{
		m_error.push(bus.writeWord(currentID, P_GOAL_SPEED_L, speed));
    1012:	88 eb       	ldi	r24, 0xB8	; 184
    1014:	92 e0       	ldi	r25, 0x02	; 2
    1016:	63 2f       	mov	r22, r19
    1018:	40 e2       	ldi	r20, 0x20	; 32
    101a:	9f 01       	movw	r18, r30
    101c:	0e 94 b6 07 	call	0xf6c	; 0xf6c <_ZN11dynamixel_t9writeWordEhhj>
    1020:	68 2f       	mov	r22, r24
    1022:	83 e5       	ldi	r24, 0x53	; 83
    1024:	92 e0       	ldi	r25, 0x02	; 2
    1026:	0e 94 12 06 	call	0xc24	; 0xc24 <_ZN5queueIhLj96EE4pushEh>
}


void nastav_rychlost(uint8_t delitel)	//cim vyssi je delitel tim pomaleji to jede
{
	for(i=0; i!=pocet_motoru; i++)
    102a:	80 91 e8 01 	lds	r24, 0x01E8
    102e:	8f 5f       	subi	r24, 0xFF	; 255
    1030:	80 93 e8 01 	sts	0x01E8, r24
    1034:	e0 91 e8 01 	lds	r30, 0x01E8
    1038:	e7 30       	cpi	r30, 0x07	; 7
    103a:	e1 f6       	brne	.-72     	; 0xff4 <_Z15nastav_rychlosth+0xe>
	{
		motor[i+1].speed((pgm_read_word(&(hodnoty_rychlost[(i)]))/delitel));
	}
}
    103c:	df 91       	pop	r29
    103e:	cf 91       	pop	r28
    1040:	08 95       	ret

00001042 <_ZN7motor_t8positionERKi.isra.18.constprop.21>:
	motor_t & position(const uint16_t &position)
	{
		m_error.push(bus.writeWord(currentID, P_GOAL_POSITION_L, position));
		return *this;
	}
	motor_t & position(const int16_t &position)
    1042:	cf 93       	push	r28
    1044:	df 93       	push	r29
    1046:	9c 01       	movw	r18, r24
	{
		m_error.push(bus.writeWord(currentID, P_GOAL_POSITION_L, ((uint16_t)(position))));
    1048:	c2 e5       	ldi	r28, 0x52	; 82
    104a:	d2 e0       	ldi	r29, 0x02	; 2
    104c:	88 eb       	ldi	r24, 0xB8	; 184
    104e:	92 e0       	ldi	r25, 0x02	; 2
    1050:	60 91 52 02 	lds	r22, 0x0252
    1054:	4e e1       	ldi	r20, 0x1E	; 30
    1056:	0e 94 b6 07 	call	0xf6c	; 0xf6c <_ZN11dynamixel_t9writeWordEhhj>
    105a:	68 2f       	mov	r22, r24
    105c:	ce 01       	movw	r24, r28
    105e:	01 96       	adiw	r24, 0x01	; 1
    1060:	0e 94 12 06 	call	0xc24	; 0xc24 <_ZN5queueIhLj96EE4pushEh>
		return *this;
	}
    1064:	ce 01       	movw	r24, r28
    1066:	df 91       	pop	r29
    1068:	cf 91       	pop	r28
    106a:	08 95       	ret

0000106c <_ZN7motor_t8positionERKj.isra.17.constprop.23>:
				clearLed();
		}
		m_error.push(error);
		return *this;
	}
	motor_t & position(const uint16_t &position)
    106c:	cf 93       	push	r28
    106e:	df 93       	push	r29
    1070:	9c 01       	movw	r18, r24
	{
		m_error.push(bus.writeWord(currentID, P_GOAL_POSITION_L, position));
    1072:	c2 e5       	ldi	r28, 0x52	; 82
    1074:	d2 e0       	ldi	r29, 0x02	; 2
    1076:	88 eb       	ldi	r24, 0xB8	; 184
    1078:	92 e0       	ldi	r25, 0x02	; 2
    107a:	60 91 52 02 	lds	r22, 0x0252
    107e:	4e e1       	ldi	r20, 0x1E	; 30
    1080:	0e 94 b6 07 	call	0xf6c	; 0xf6c <_ZN11dynamixel_t9writeWordEhhj>
    1084:	68 2f       	mov	r22, r24
    1086:	ce 01       	movw	r24, r28
    1088:	01 96       	adiw	r24, 0x01	; 1
    108a:	0e 94 12 06 	call	0xc24	; 0xc24 <_ZN5queueIhLj96EE4pushEh>
		return *this;
	}
    108e:	ce 01       	movw	r24, r28
    1090:	df 91       	pop	r29
    1092:	cf 91       	pop	r28
    1094:	08 95       	ret

00001096 <_Z13pohyb_na_bod2fff>:
	else cislo_policka_chyba = 0;
	return cislo_policka_chyba;	
}	

void pohyb_na_bod2(float Xt, float Yt, float Zt)
{
    1096:	2f 92       	push	r2
    1098:	3f 92       	push	r3
    109a:	4f 92       	push	r4
    109c:	5f 92       	push	r5
    109e:	6f 92       	push	r6
    10a0:	7f 92       	push	r7
    10a2:	8f 92       	push	r8
    10a4:	9f 92       	push	r9
    10a6:	af 92       	push	r10
    10a8:	bf 92       	push	r11
    10aa:	cf 92       	push	r12
    10ac:	df 92       	push	r13
    10ae:	ef 92       	push	r14
    10b0:	ff 92       	push	r15
    10b2:	0f 93       	push	r16
    10b4:	1f 93       	push	r17
    10b6:	cf 93       	push	r28
    10b8:	df 93       	push	r29
    10ba:	cd b7       	in	r28, 0x3d	; 61
    10bc:	de b7       	in	r29, 0x3e	; 62
    10be:	28 97       	sbiw	r28, 0x08	; 8
    10c0:	0f b6       	in	r0, 0x3f	; 63
    10c2:	f8 94       	cli
    10c4:	de bf       	out	0x3e, r29	; 62
    10c6:	0f be       	out	0x3f, r0	; 63
    10c8:	cd bf       	out	0x3d, r28	; 61
    10ca:	4b 01       	movw	r8, r22
    10cc:	5c 01       	movw	r10, r24
    10ce:	29 83       	std	Y+1, r18	; 0x01
    10d0:	3a 83       	std	Y+2, r19	; 0x02
    10d2:	4b 83       	std	Y+3, r20	; 0x03
    10d4:	5c 83       	std	Y+4, r21	; 0x04
    10d6:	67 01       	movw	r12, r14
    10d8:	78 01       	movw	r14, r16
	double a4;	//uhel loktu
	double a5;	
	double a6;
	double a7;	//uhel zapesti
	
	B2=sqrt(pow(Xt,2)+pow(Zt,2));
    10da:	a5 01       	movw	r20, r10
    10dc:	94 01       	movw	r18, r8
    10de:	0e 94 b3 13 	call	0x2766	; 0x2766 <__mulsf3>
    10e2:	66 2e       	mov	r6, r22
    10e4:	07 2f       	mov	r16, r23
    10e6:	48 2e       	mov	r4, r24
    10e8:	19 2f       	mov	r17, r25
    10ea:	c7 01       	movw	r24, r14
    10ec:	b6 01       	movw	r22, r12
    10ee:	a7 01       	movw	r20, r14
    10f0:	96 01       	movw	r18, r12
    10f2:	0e 94 b3 13 	call	0x2766	; 0x2766 <__mulsf3>
    10f6:	f6 2f       	mov	r31, r22
    10f8:	e7 2f       	mov	r30, r23
    10fa:	38 2f       	mov	r19, r24
    10fc:	29 2f       	mov	r18, r25
    10fe:	46 2d       	mov	r20, r6
    1100:	50 2f       	mov	r21, r16
    1102:	64 2d       	mov	r22, r4
    1104:	71 2f       	mov	r23, r17
    1106:	cb 01       	movw	r24, r22
    1108:	ba 01       	movw	r22, r20
    110a:	df 01       	movw	r26, r30
    110c:	a9 01       	movw	r20, r18
    110e:	0b 2f       	mov	r16, r27
    1110:	1a 2f       	mov	r17, r26
    1112:	25 2f       	mov	r18, r21
    1114:	34 2f       	mov	r19, r20
    1116:	a9 01       	movw	r20, r18
    1118:	98 01       	movw	r18, r16
    111a:	0e 94 43 11 	call	0x2286	; 0x2286 <__addsf3>
    111e:	0e 94 20 14 	call	0x2840	; 0x2840 <sqrt>
    1122:	0e 94 79 12 	call	0x24f2	; 0x24f2 <__fixunssfsi>
	B=sqrt(pow(B2,2)+pow(Yt,2));
    1126:	80 e0       	ldi	r24, 0x00	; 0
    1128:	90 e0       	ldi	r25, 0x00	; 0
    112a:	0e 94 a5 12 	call	0x254a	; 0x254a <__floatunsisf>
    112e:	9b 01       	movw	r18, r22
    1130:	ac 01       	movw	r20, r24
    1132:	0e 94 b3 13 	call	0x2766	; 0x2766 <__mulsf3>
    1136:	46 2e       	mov	r4, r22
    1138:	67 2e       	mov	r6, r23
    113a:	8c 01       	movw	r16, r24
    113c:	69 81       	ldd	r22, Y+1	; 0x01
    113e:	7a 81       	ldd	r23, Y+2	; 0x02
    1140:	8b 81       	ldd	r24, Y+3	; 0x03
    1142:	9c 81       	ldd	r25, Y+4	; 0x04
    1144:	9b 01       	movw	r18, r22
    1146:	ac 01       	movw	r20, r24
    1148:	0e 94 b3 13 	call	0x2766	; 0x2766 <__mulsf3>
    114c:	f6 2f       	mov	r31, r22
    114e:	e7 2f       	mov	r30, r23
    1150:	38 2f       	mov	r19, r24
    1152:	29 2f       	mov	r18, r25
    1154:	44 2d       	mov	r20, r4
    1156:	56 2d       	mov	r21, r6
    1158:	60 2f       	mov	r22, r16
    115a:	71 2f       	mov	r23, r17
    115c:	cb 01       	movw	r24, r22
    115e:	ba 01       	movw	r22, r20
    1160:	df 01       	movw	r26, r30
    1162:	a9 01       	movw	r20, r18
    1164:	0b 2f       	mov	r16, r27
    1166:	1a 2f       	mov	r17, r26
    1168:	25 2f       	mov	r18, r21
    116a:	34 2f       	mov	r19, r20
    116c:	a9 01       	movw	r20, r18
    116e:	98 01       	movw	r18, r16
    1170:	0e 94 43 11 	call	0x2286	; 0x2286 <__addsf3>
    1174:	0e 94 20 14 	call	0x2840	; 0x2840 <sqrt>
    1178:	0e 94 79 12 	call	0x24f2	; 0x24f2 <__fixunssfsi>
    117c:	dc 01       	movw	r26, r24
    117e:	cb 01       	movw	r24, r22
    1180:	3c 01       	movw	r6, r24
	B_22=pow((B/2),2);
    1182:	76 94       	lsr	r7
    1184:	67 94       	ror	r6
    1186:	b3 01       	movw	r22, r6
    1188:	80 e0       	ldi	r24, 0x00	; 0
    118a:	90 e0       	ldi	r25, 0x00	; 0
    118c:	0e 94 a5 12 	call	0x254a	; 0x254a <__floatunsisf>
    1190:	9b 01       	movw	r18, r22
    1192:	ac 01       	movw	r20, r24
    1194:	0e 94 b3 13 	call	0x2766	; 0x2766 <__mulsf3>
    1198:	46 2e       	mov	r4, r22
    119a:	27 2e       	mov	r2, r23
    119c:	18 2f       	mov	r17, r24
    119e:	09 2f       	mov	r16, r25
	a0=atan2(Zt,Xt);	
    11a0:	c7 01       	movw	r24, r14
    11a2:	b6 01       	movw	r22, r12
    11a4:	a5 01       	movw	r20, r10
    11a6:	94 01       	movw	r18, r8
    11a8:	0e 94 b6 11 	call	0x236c	; 0x236c <atan2>
    11ac:	6d 83       	std	Y+5, r22	; 0x05
    11ae:	7e 83       	std	Y+6, r23	; 0x06
    11b0:	8f 83       	std	Y+7, r24	; 0x07
    11b2:	98 87       	std	Y+8, r25	; 0x08
	double a6;
	double a7;	//uhel zapesti
	
	B2=sqrt(pow(Xt,2)+pow(Zt,2));
	B=sqrt(pow(B2,2)+pow(Yt,2));
	B_22=pow((B/2),2);
    11b4:	98 01       	movw	r18, r16
    11b6:	84 2d       	mov	r24, r4
    11b8:	92 2d       	mov	r25, r2
    11ba:	a3 2f       	mov	r26, r19
    11bc:	b2 2f       	mov	r27, r18
    11be:	bc 01       	movw	r22, r24
    11c0:	cd 01       	movw	r24, r26
    11c2:	0e 94 79 12 	call	0x24f2	; 0x24f2 <__fixunssfsi>
	a0=atan2(Zt,Xt);	
	a1=acos((pow(delka_ramena1,1)-pow(delka_ramena1,2)+B_22)/(2*delka_ramena1*(B/2)));
    11c6:	80 e0       	ldi	r24, 0x00	; 0
    11c8:	90 e0       	ldi	r25, 0x00	; 0
    11ca:	0e 94 a5 12 	call	0x254a	; 0x254a <__floatunsisf>
    11ce:	6b 01       	movw	r12, r22
    11d0:	7c 01       	movw	r14, r24
    11d2:	20 e0       	ldi	r18, 0x00	; 0
    11d4:	38 e9       	ldi	r19, 0x98	; 152
    11d6:	48 e0       	ldi	r20, 0x08	; 8
    11d8:	56 e4       	ldi	r21, 0x46	; 70
    11da:	0e 94 42 11 	call	0x2284	; 0x2284 <__subsf3>
    11de:	1b 01       	movw	r2, r22
    11e0:	2c 01       	movw	r4, r24
    11e2:	8c eb       	ldi	r24, 0xBC	; 188
    11e4:	90 e0       	ldi	r25, 0x00	; 0
    11e6:	68 9e       	mul	r6, r24
    11e8:	b0 01       	movw	r22, r0
    11ea:	69 9e       	mul	r6, r25
    11ec:	70 0d       	add	r23, r0
    11ee:	78 9e       	mul	r7, r24
    11f0:	70 0d       	add	r23, r0
    11f2:	11 24       	eor	r1, r1
    11f4:	80 e0       	ldi	r24, 0x00	; 0
    11f6:	90 e0       	ldi	r25, 0x00	; 0
    11f8:	0e 94 a5 12 	call	0x254a	; 0x254a <__floatunsisf>
    11fc:	9b 01       	movw	r18, r22
    11fe:	ac 01       	movw	r20, r24
    1200:	c2 01       	movw	r24, r4
    1202:	b1 01       	movw	r22, r2
    1204:	0e 94 0c 12 	call	0x2418	; 0x2418 <__divsf3>
    1208:	0e 94 34 11 	call	0x2268	; 0x2268 <acos>
    120c:	2b 01       	movw	r4, r22
    120e:	3c 01       	movw	r6, r24
	a2=atan2(Yt,Xt);
    1210:	69 81       	ldd	r22, Y+1	; 0x01
    1212:	7a 81       	ldd	r23, Y+2	; 0x02
    1214:	8b 81       	ldd	r24, Y+3	; 0x03
    1216:	9c 81       	ldd	r25, Y+4	; 0x04
    1218:	a5 01       	movw	r20, r10
    121a:	94 01       	movw	r18, r8
    121c:	0e 94 b6 11 	call	0x236c	; 0x236c <atan2>
    1220:	4b 01       	movw	r8, r22
    1222:	5c 01       	movw	r10, r24
	a3=a1+a2;
	a4=acos((pow(delka_ramena1,2)+pow(delka_ramena2,2)-B_22)/(2*delka_ramena1*delka_ramena1));
    1224:	60 e0       	ldi	r22, 0x00	; 0
    1226:	70 e1       	ldi	r23, 0x10	; 16
    1228:	8a e8       	ldi	r24, 0x8A	; 138
    122a:	96 e4       	ldi	r25, 0x46	; 70
    122c:	a7 01       	movw	r20, r14
    122e:	96 01       	movw	r18, r12
    1230:	0e 94 42 11 	call	0x2284	; 0x2284 <__subsf3>
    1234:	20 e0       	ldi	r18, 0x00	; 0
    1236:	30 e1       	ldi	r19, 0x10	; 16
    1238:	4a e8       	ldi	r20, 0x8A	; 138
    123a:	56 e4       	ldi	r21, 0x46	; 70
    123c:	0e 94 0c 12 	call	0x2418	; 0x2418 <__divsf3>
    1240:	0e 94 34 11 	call	0x2268	; 0x2268 <acos>
	a5=acos((pow(delka_ramena2,2)+pow(delka_ramena2,2)-pow(delka_ramena1,2))/(2*delka_ramena2*delka_ramena2));
	a6=acos((pow(delka_ramena2,2)+pow(delka_ramena2,2)-B_22)/(2*delka_ramena2*delka_ramena3));
	a7=a5+a6;
    1244:	22 e9       	ldi	r18, 0x92	; 146
    1246:	3a e0       	ldi	r19, 0x0A	; 10
    1248:	46 e8       	ldi	r20, 0x86	; 134
    124a:	5f e3       	ldi	r21, 0x3F	; 63
    124c:	0e 94 43 11 	call	0x2286	; 0x2286 <__addsf3>
	
	pozice_motor0=(((((5*M_PI)/6)+a0)*180/M_PI)*3.4133333);
	pozice_motor1=((((M_PI/6)+a3)*180/M_PI)*3.4133333);
	pozice_motor2=((((a4+a5)-(M_PI/6))*180/M_PI)*3.4133333);
    1250:	22 e9       	ldi	r18, 0x92	; 146
    1252:	3a e0       	ldi	r19, 0x0A	; 10
    1254:	46 e0       	ldi	r20, 0x06	; 6
    1256:	5f e3       	ldi	r21, 0x3F	; 63
    1258:	0e 94 42 11 	call	0x2284	; 0x2284 <__subsf3>
    125c:	20 e0       	ldi	r18, 0x00	; 0
    125e:	30 e0       	ldi	r19, 0x00	; 0
    1260:	44 e3       	ldi	r20, 0x34	; 52
    1262:	53 e4       	ldi	r21, 0x43	; 67
    1264:	0e 94 b3 13 	call	0x2766	; 0x2766 <__mulsf3>
    1268:	2b ed       	ldi	r18, 0xDB	; 219
    126a:	3f e0       	ldi	r19, 0x0F	; 15
    126c:	49 e4       	ldi	r20, 0x49	; 73
    126e:	50 e4       	ldi	r21, 0x40	; 64
    1270:	0e 94 0c 12 	call	0x2418	; 0x2418 <__divsf3>
    1274:	2e e0       	ldi	r18, 0x0E	; 14
    1276:	34 e7       	ldi	r19, 0x74	; 116
    1278:	4a e5       	ldi	r20, 0x5A	; 90
    127a:	50 e4       	ldi	r21, 0x40	; 64
    127c:	0e 94 b3 13 	call	0x2766	; 0x2766 <__mulsf3>
    1280:	0e 94 79 12 	call	0x24f2	; 0x24f2 <__fixunssfsi>
    1284:	6b 01       	movw	r12, r22
    1286:	7c 01       	movw	r14, r24
		m_error.overwrite = true;
	}

	motor_t &operator [] (const uint8_t &id)
	{
		currentID = id;
    1288:	81 e0       	ldi	r24, 0x01	; 1
    128a:	80 93 52 02 	sts	0x0252, r24
	a4=acos((pow(delka_ramena1,2)+pow(delka_ramena2,2)-B_22)/(2*delka_ramena1*delka_ramena1));
	a5=acos((pow(delka_ramena2,2)+pow(delka_ramena2,2)-pow(delka_ramena1,2))/(2*delka_ramena2*delka_ramena2));
	a6=acos((pow(delka_ramena2,2)+pow(delka_ramena2,2)-B_22)/(2*delka_ramena2*delka_ramena3));
	a7=a5+a6;
	
	pozice_motor0=(((((5*M_PI)/6)+a0)*180/M_PI)*3.4133333);
    128e:	6d 81       	ldd	r22, Y+5	; 0x05
    1290:	7e 81       	ldd	r23, Y+6	; 0x06
    1292:	8f 81       	ldd	r24, Y+7	; 0x07
    1294:	98 85       	ldd	r25, Y+8	; 0x08
    1296:	27 e3       	ldi	r18, 0x37	; 55
    1298:	3d e8       	ldi	r19, 0x8D	; 141
    129a:	47 e2       	ldi	r20, 0x27	; 39
    129c:	50 e4       	ldi	r21, 0x40	; 64
    129e:	0e 94 43 11 	call	0x2286	; 0x2286 <__addsf3>
    12a2:	20 e0       	ldi	r18, 0x00	; 0
    12a4:	30 e0       	ldi	r19, 0x00	; 0
    12a6:	44 e3       	ldi	r20, 0x34	; 52
    12a8:	53 e4       	ldi	r21, 0x43	; 67
    12aa:	0e 94 b3 13 	call	0x2766	; 0x2766 <__mulsf3>
    12ae:	2b ed       	ldi	r18, 0xDB	; 219
    12b0:	3f e0       	ldi	r19, 0x0F	; 15
    12b2:	49 e4       	ldi	r20, 0x49	; 73
    12b4:	50 e4       	ldi	r21, 0x40	; 64
    12b6:	0e 94 0c 12 	call	0x2418	; 0x2418 <__divsf3>
    12ba:	2e e0       	ldi	r18, 0x0E	; 14
    12bc:	34 e7       	ldi	r19, 0x74	; 116
    12be:	4a e5       	ldi	r20, 0x5A	; 90
    12c0:	50 e4       	ldi	r21, 0x40	; 64
    12c2:	0e 94 b3 13 	call	0x2766	; 0x2766 <__mulsf3>
    12c6:	0e 94 79 12 	call	0x24f2	; 0x24f2 <__fixunssfsi>
    12ca:	dc 01       	movw	r26, r24
    12cc:	cb 01       	movw	r24, r22
	pozice_motor1=((((M_PI/6)+a3)*180/M_PI)*3.4133333);
	pozice_motor2=((((a4+a5)-(M_PI/6))*180/M_PI)*3.4133333);
	pozice_motor3=(((a7-(M_PI/6))*180/M_PI)*3.4133333);
	
	motor[1].position(pozice_motor0);
    12ce:	0e 94 36 08 	call	0x106c	; 0x106c <_ZN7motor_t8positionERKj.isra.17.constprop.23>
    12d2:	82 e0       	ldi	r24, 0x02	; 2
    12d4:	80 93 52 02 	sts	0x0252, r24
	B=sqrt(pow(B2,2)+pow(Yt,2));
	B_22=pow((B/2),2);
	a0=atan2(Zt,Xt);	
	a1=acos((pow(delka_ramena1,1)-pow(delka_ramena1,2)+B_22)/(2*delka_ramena1*(B/2)));
	a2=atan2(Yt,Xt);
	a3=a1+a2;
    12d8:	c3 01       	movw	r24, r6
    12da:	b2 01       	movw	r22, r4
    12dc:	a5 01       	movw	r20, r10
    12de:	94 01       	movw	r18, r8
    12e0:	0e 94 43 11 	call	0x2286	; 0x2286 <__addsf3>
	a5=acos((pow(delka_ramena2,2)+pow(delka_ramena2,2)-pow(delka_ramena1,2))/(2*delka_ramena2*delka_ramena2));
	a6=acos((pow(delka_ramena2,2)+pow(delka_ramena2,2)-B_22)/(2*delka_ramena2*delka_ramena3));
	a7=a5+a6;
	
	pozice_motor0=(((((5*M_PI)/6)+a0)*180/M_PI)*3.4133333);
	pozice_motor1=((((M_PI/6)+a3)*180/M_PI)*3.4133333);
    12e4:	22 e9       	ldi	r18, 0x92	; 146
    12e6:	3a e0       	ldi	r19, 0x0A	; 10
    12e8:	46 e0       	ldi	r20, 0x06	; 6
    12ea:	5f e3       	ldi	r21, 0x3F	; 63
    12ec:	0e 94 43 11 	call	0x2286	; 0x2286 <__addsf3>
    12f0:	20 e0       	ldi	r18, 0x00	; 0
    12f2:	30 e0       	ldi	r19, 0x00	; 0
    12f4:	44 e3       	ldi	r20, 0x34	; 52
    12f6:	53 e4       	ldi	r21, 0x43	; 67
    12f8:	0e 94 b3 13 	call	0x2766	; 0x2766 <__mulsf3>
    12fc:	2b ed       	ldi	r18, 0xDB	; 219
    12fe:	3f e0       	ldi	r19, 0x0F	; 15
    1300:	49 e4       	ldi	r20, 0x49	; 73
    1302:	50 e4       	ldi	r21, 0x40	; 64
    1304:	0e 94 0c 12 	call	0x2418	; 0x2418 <__divsf3>
    1308:	2e e0       	ldi	r18, 0x0E	; 14
    130a:	34 e7       	ldi	r19, 0x74	; 116
    130c:	4a e5       	ldi	r20, 0x5A	; 90
    130e:	50 e4       	ldi	r21, 0x40	; 64
    1310:	0e 94 b3 13 	call	0x2766	; 0x2766 <__mulsf3>
    1314:	0e 94 79 12 	call	0x24f2	; 0x24f2 <__fixunssfsi>
    1318:	dc 01       	movw	r26, r24
    131a:	cb 01       	movw	r24, r22
	pozice_motor2=((((a4+a5)-(M_PI/6))*180/M_PI)*3.4133333);
	pozice_motor3=(((a7-(M_PI/6))*180/M_PI)*3.4133333);
	
	motor[1].position(pozice_motor0);
	motor[2].position(pozice_motor1);
    131c:	0e 94 36 08 	call	0x106c	; 0x106c <_ZN7motor_t8positionERKj.isra.17.constprop.23>
    1320:	83 e0       	ldi	r24, 0x03	; 3
    1322:	80 93 52 02 	sts	0x0252, r24
	motor[3].position(pozice_motor2);
    1326:	c6 01       	movw	r24, r12
    1328:	0e 94 36 08 	call	0x106c	; 0x106c <_ZN7motor_t8positionERKj.isra.17.constprop.23>
    132c:	84 e0       	ldi	r24, 0x04	; 4
    132e:	80 93 52 02 	sts	0x0252, r24
	motor[4].position(pozice_motor3);
    1332:	c6 01       	movw	r24, r12
    1334:	0e 94 36 08 	call	0x106c	; 0x106c <_ZN7motor_t8positionERKj.isra.17.constprop.23>
		sendChar(ch);
		return *this;
	}
	USART1_t &operator << (const char *ch)
	{
		send(ch);
    1338:	80 e1       	ldi	r24, 0x10	; 16
    133a:	91 e0       	ldi	r25, 0x01	; 1
    133c:	0e 94 0e 03 	call	0x61c	; 0x61c <_ZN8USART1_t4sendEPKc.constprop.22>
	
	
	a0_term=a0*180/M_PI;
    1340:	6d 81       	ldd	r22, Y+5	; 0x05
    1342:	7e 81       	ldd	r23, Y+6	; 0x06
    1344:	8f 81       	ldd	r24, Y+7	; 0x07
    1346:	98 85       	ldd	r25, Y+8	; 0x08
    1348:	20 e0       	ldi	r18, 0x00	; 0
    134a:	30 e0       	ldi	r19, 0x00	; 0
    134c:	44 e3       	ldi	r20, 0x34	; 52
    134e:	53 e4       	ldi	r21, 0x43	; 67
    1350:	0e 94 b3 13 	call	0x2766	; 0x2766 <__mulsf3>
    1354:	2b ed       	ldi	r18, 0xDB	; 219
    1356:	3f e0       	ldi	r19, 0x0F	; 15
    1358:	49 e4       	ldi	r20, 0x49	; 73
    135a:	50 e4       	ldi	r21, 0x40	; 64
    135c:	0e 94 0c 12 	call	0x2418	; 0x2418 <__divsf3>
    1360:	0e 94 74 12 	call	0x24e8	; 0x24e8 <__fixsfsi>
    1364:	ab 01       	movw	r20, r22
    1366:	bc 01       	movw	r22, r24
		sendNumber(n, numbersSpaces);
		return *this;
	}
	USART1_t &operator << (const int16_t &n)
	{
		sendNumber(n, numbersSpaces);
    1368:	66 27       	eor	r22, r22
    136a:	57 fd       	sbrc	r21, 7
    136c:	60 95       	com	r22
    136e:	76 2f       	mov	r23, r22
    1370:	86 e8       	ldi	r24, 0x86	; 134
    1372:	93 e0       	ldi	r25, 0x03	; 3
    1374:	20 91 50 04 	lds	r18, 0x0450
    1378:	0e 94 5c 02 	call	0x4b8	; 0x4b8 <_ZN8USART1_t10sendNumberElh>
		sendChar(ch);
		return *this;
	}
	USART1_t &operator << (const char *ch)
	{
		send(ch);
    137c:	8b e0       	ldi	r24, 0x0B	; 11
    137e:	91 e0       	ldi	r25, 0x01	; 1
    1380:	0e 94 0e 03 	call	0x61c	; 0x61c <_ZN8USART1_t4sendEPKc.constprop.22>
	pc<<"A7 "<<a7_term<<endl;
	
	pc<<"Pozice 1:"<<pozice_motor1<<endl;
	pc<<"Pozice 2:"<<pozice_motor2<<endl;
	pc<<"Pozice 3:"<<pozice_motor3<<endl;*/
}	
    1384:	28 96       	adiw	r28, 0x08	; 8
    1386:	0f b6       	in	r0, 0x3f	; 63
    1388:	f8 94       	cli
    138a:	de bf       	out	0x3e, r29	; 62
    138c:	0f be       	out	0x3f, r0	; 63
    138e:	cd bf       	out	0x3d, r28	; 61
    1390:	df 91       	pop	r29
    1392:	cf 91       	pop	r28
    1394:	1f 91       	pop	r17
    1396:	0f 91       	pop	r16
    1398:	ff 90       	pop	r15
    139a:	ef 90       	pop	r14
    139c:	df 90       	pop	r13
    139e:	cf 90       	pop	r12
    13a0:	bf 90       	pop	r11
    13a2:	af 90       	pop	r10
    13a4:	9f 90       	pop	r9
    13a6:	8f 90       	pop	r8
    13a8:	7f 90       	pop	r7
    13aa:	6f 90       	pop	r6
    13ac:	5f 90       	pop	r5
    13ae:	4f 90       	pop	r4
    13b0:	3f 90       	pop	r3
    13b2:	2f 90       	pop	r2
    13b4:	08 95       	ret

000013b6 <_Z12pohyb_na_bodff>:
	pc<<"Pozice 2:"<<pozice_motor2<<endl;
	pc<<"Pozice 3:"<<pozice_motor3<<endl;
}*/

void pohyb_na_bod(float Xt, float Yt)
{
    13b6:	2f 92       	push	r2
    13b8:	3f 92       	push	r3
    13ba:	4f 92       	push	r4
    13bc:	5f 92       	push	r5
    13be:	6f 92       	push	r6
    13c0:	7f 92       	push	r7
    13c2:	8f 92       	push	r8
    13c4:	9f 92       	push	r9
    13c6:	af 92       	push	r10
    13c8:	bf 92       	push	r11
    13ca:	cf 92       	push	r12
    13cc:	df 92       	push	r13
    13ce:	ef 92       	push	r14
    13d0:	ff 92       	push	r15
    13d2:	0f 93       	push	r16
    13d4:	1f 93       	push	r17
    13d6:	cf 93       	push	r28
    13d8:	df 93       	push	r29
    13da:	cd b7       	in	r28, 0x3d	; 61
    13dc:	de b7       	in	r29, 0x3e	; 62
    13de:	62 97       	sbiw	r28, 0x12	; 18
    13e0:	0f b6       	in	r0, 0x3f	; 63
    13e2:	f8 94       	cli
    13e4:	de bf       	out	0x3e, r29	; 62
    13e6:	0f be       	out	0x3f, r0	; 63
    13e8:	cd bf       	out	0x3d, r28	; 61
    13ea:	4b 01       	movw	r8, r22
    13ec:	5c 01       	movw	r10, r24
    13ee:	69 01       	movw	r12, r18
    13f0:	7a 01       	movw	r14, r20
	double alfa;
	double beta;
	double gamma;
	double delta;
	
	B=sqrt(pow(Xt,2)+pow(Yt,2));		
    13f2:	a5 01       	movw	r20, r10
    13f4:	94 01       	movw	r18, r8
    13f6:	0e 94 b3 13 	call	0x2766	; 0x2766 <__mulsf3>
    13fa:	46 2e       	mov	r4, r22
    13fc:	07 2f       	mov	r16, r23
    13fe:	38 2e       	mov	r3, r24
    1400:	19 2f       	mov	r17, r25
    1402:	c7 01       	movw	r24, r14
    1404:	b6 01       	movw	r22, r12
    1406:	a7 01       	movw	r20, r14
    1408:	96 01       	movw	r18, r12
    140a:	0e 94 b3 13 	call	0x2766	; 0x2766 <__mulsf3>
    140e:	f6 2f       	mov	r31, r22
    1410:	e7 2f       	mov	r30, r23
    1412:	38 2f       	mov	r19, r24
    1414:	29 2f       	mov	r18, r25
    1416:	44 2d       	mov	r20, r4
    1418:	50 2f       	mov	r21, r16
    141a:	63 2d       	mov	r22, r3
    141c:	71 2f       	mov	r23, r17
    141e:	cb 01       	movw	r24, r22
    1420:	ba 01       	movw	r22, r20
    1422:	df 01       	movw	r26, r30
    1424:	a9 01       	movw	r20, r18
    1426:	0b 2f       	mov	r16, r27
    1428:	1a 2f       	mov	r17, r26
    142a:	25 2f       	mov	r18, r21
    142c:	34 2f       	mov	r19, r20
    142e:	a9 01       	movw	r20, r18
    1430:	98 01       	movw	r18, r16
    1432:	0e 94 43 11 	call	0x2286	; 0x2286 <__addsf3>
    1436:	0e 94 20 14 	call	0x2840	; 0x2840 <sqrt>
    143a:	0e 94 74 12 	call	0x24e8	; 0x24e8 <__fixsfsi>
    143e:	dc 01       	movw	r26, r24
    1440:	cb 01       	movw	r24, r22
    1442:	1c 01       	movw	r2, r24
	alfa=atan2(Yt,Xt);	
    1444:	c7 01       	movw	r24, r14
    1446:	b6 01       	movw	r22, r12
    1448:	a5 01       	movw	r20, r10
    144a:	94 01       	movw	r18, r8
    144c:	0e 94 b6 11 	call	0x236c	; 0x236c <atan2>
    1450:	69 83       	std	Y+1, r22	; 0x01
    1452:	7a 83       	std	Y+2, r23	; 0x02
    1454:	8b 83       	std	Y+3, r24	; 0x03
    1456:	9c 83       	std	Y+4, r25	; 0x04
	beta=acos((pow(delka_ramena1,2)-pow(delka_ramena2,2)+pow(B,2))/(2*delka_ramena2*B));	
    1458:	c1 01       	movw	r24, r2
    145a:	aa 27       	eor	r26, r26
    145c:	97 fd       	sbrc	r25, 7
    145e:	a0 95       	com	r26
    1460:	ba 2f       	mov	r27, r26
    1462:	89 87       	std	Y+9, r24	; 0x09
    1464:	9a 87       	std	Y+10, r25	; 0x0a
    1466:	ab 87       	std	Y+11, r26	; 0x0b
    1468:	bc 87       	std	Y+12, r27	; 0x0c
    146a:	bc 01       	movw	r22, r24
    146c:	cd 01       	movw	r24, r26
    146e:	0e 94 a7 12 	call	0x254e	; 0x254e <__floatsisf>
    1472:	9b 01       	movw	r18, r22
    1474:	ac 01       	movw	r20, r24
    1476:	0e 94 b3 13 	call	0x2766	; 0x2766 <__mulsf3>
    147a:	06 2f       	mov	r16, r22
    147c:	c7 2e       	mov	r12, r23
    147e:	88 2e       	mov	r8, r24
    1480:	19 2f       	mov	r17, r25
    1482:	86 2f       	mov	r24, r22
    1484:	9c 2d       	mov	r25, r12
    1486:	a8 2d       	mov	r26, r8
    1488:	b1 2f       	mov	r27, r17
    148a:	bc 01       	movw	r22, r24
    148c:	cd 01       	movw	r24, r26
    148e:	20 e0       	ldi	r18, 0x00	; 0
    1490:	30 e0       	ldi	r19, 0x00	; 0
    1492:	a9 01       	movw	r20, r18
    1494:	0e 94 43 11 	call	0x2286	; 0x2286 <__addsf3>
    1498:	2b 01       	movw	r4, r22
    149a:	3c 01       	movw	r6, r24
    149c:	8c eb       	ldi	r24, 0xBC	; 188
    149e:	90 e0       	ldi	r25, 0x00	; 0
    14a0:	28 9e       	mul	r2, r24
    14a2:	b0 01       	movw	r22, r0
    14a4:	29 9e       	mul	r2, r25
    14a6:	70 0d       	add	r23, r0
    14a8:	38 9e       	mul	r3, r24
    14aa:	70 0d       	add	r23, r0
    14ac:	11 24       	eor	r1, r1
    14ae:	88 27       	eor	r24, r24
    14b0:	77 fd       	sbrc	r23, 7
    14b2:	80 95       	com	r24
    14b4:	98 2f       	mov	r25, r24
    14b6:	0e 94 a7 12 	call	0x254e	; 0x254e <__floatsisf>
    14ba:	9b 01       	movw	r18, r22
    14bc:	ac 01       	movw	r20, r24
    14be:	c3 01       	movw	r24, r6
    14c0:	b2 01       	movw	r22, r4
    14c2:	0e 94 0c 12 	call	0x2418	; 0x2418 <__divsf3>
    14c6:	0e 94 34 11 	call	0x2268	; 0x2268 <acos>
    14ca:	2b 01       	movw	r4, r22
    14cc:	3c 01       	movw	r6, r24
	gamma=alfa+beta;
    14ce:	69 81       	ldd	r22, Y+1	; 0x01
    14d0:	7a 81       	ldd	r23, Y+2	; 0x02
    14d2:	8b 81       	ldd	r24, Y+3	; 0x03
    14d4:	9c 81       	ldd	r25, Y+4	; 0x04
    14d6:	a3 01       	movw	r20, r6
    14d8:	92 01       	movw	r18, r4
    14da:	0e 94 43 11 	call	0x2286	; 0x2286 <__addsf3>
    14de:	1b 01       	movw	r2, r22
    14e0:	8d 87       	std	Y+13, r24	; 0x0d
    14e2:	9e 87       	std	Y+14, r25	; 0x0e
	delta=acos((pow(delka_ramena1,2)+pow(delka_ramena2,2)-pow(B,2))/(2*delka_ramena1*delka_ramena2));
    14e4:	60 e0       	ldi	r22, 0x00	; 0
    14e6:	70 e1       	ldi	r23, 0x10	; 16
    14e8:	8a e8       	ldi	r24, 0x8A	; 138
    14ea:	96 e4       	ldi	r25, 0x46	; 70
    14ec:	41 2f       	mov	r20, r17
    14ee:	1c 2d       	mov	r17, r12
    14f0:	28 2d       	mov	r18, r8
    14f2:	34 2f       	mov	r19, r20
    14f4:	a9 01       	movw	r20, r18
    14f6:	98 01       	movw	r18, r16
    14f8:	0e 94 42 11 	call	0x2284	; 0x2284 <__subsf3>
    14fc:	20 e0       	ldi	r18, 0x00	; 0
    14fe:	30 e1       	ldi	r19, 0x10	; 16
    1500:	4a e8       	ldi	r20, 0x8A	; 138
    1502:	56 e4       	ldi	r21, 0x46	; 70
    1504:	0e 94 0c 12 	call	0x2418	; 0x2418 <__divsf3>
    1508:	0e 94 34 11 	call	0x2268	; 0x2268 <acos>
    150c:	6d 83       	std	Y+5, r22	; 0x05
    150e:	7e 83       	std	Y+6, r23	; 0x06
    1510:	8f 83       	std	Y+7, r24	; 0x07
    1512:	98 87       	std	Y+8, r25	; 0x08
	pozice_motor1=((((M_PI/3)+gamma)*180/M_PI)*3.4133333);
    1514:	3d 85       	ldd	r19, Y+13	; 0x0d
    1516:	2e 85       	ldd	r18, Y+14	; 0x0e
    1518:	82 2d       	mov	r24, r2
    151a:	93 2d       	mov	r25, r3
    151c:	a3 2f       	mov	r26, r19
    151e:	b2 2f       	mov	r27, r18
    1520:	bc 01       	movw	r22, r24
    1522:	cd 01       	movw	r24, r26
    1524:	22 e9       	ldi	r18, 0x92	; 146
    1526:	3a e0       	ldi	r19, 0x0A	; 10
    1528:	46 e8       	ldi	r20, 0x86	; 134
    152a:	5f e3       	ldi	r21, 0x3F	; 63
    152c:	0e 94 43 11 	call	0x2286	; 0x2286 <__addsf3>
    1530:	20 e0       	ldi	r18, 0x00	; 0
    1532:	30 e0       	ldi	r19, 0x00	; 0
    1534:	44 e3       	ldi	r20, 0x34	; 52
    1536:	53 e4       	ldi	r21, 0x43	; 67
    1538:	0e 94 b3 13 	call	0x2766	; 0x2766 <__mulsf3>
    153c:	2b ed       	ldi	r18, 0xDB	; 219
    153e:	3f e0       	ldi	r19, 0x0F	; 15
    1540:	49 e4       	ldi	r20, 0x49	; 73
    1542:	50 e4       	ldi	r21, 0x40	; 64
    1544:	0e 94 0c 12 	call	0x2418	; 0x2418 <__divsf3>
    1548:	2e e0       	ldi	r18, 0x0E	; 14
    154a:	34 e7       	ldi	r19, 0x74	; 116
    154c:	4a e5       	ldi	r20, 0x5A	; 90
    154e:	50 e4       	ldi	r21, 0x40	; 64
    1550:	0e 94 b3 13 	call	0x2766	; 0x2766 <__mulsf3>
    1554:	0e 94 79 12 	call	0x24f2	; 0x24f2 <__fixunssfsi>
    1558:	4b 01       	movw	r8, r22
    155a:	5c 01       	movw	r10, r24
    155c:	78 8b       	std	Y+16, r23	; 0x10
    155e:	6f 87       	std	Y+15, r22	; 0x0f
	pozice_motor2=(((((M_PI/3)+delta-(M_PI_2))*180/M_PI))*3.4133333);	
    1560:	6d 81       	ldd	r22, Y+5	; 0x05
    1562:	7e 81       	ldd	r23, Y+6	; 0x06
    1564:	8f 81       	ldd	r24, Y+7	; 0x07
    1566:	98 85       	ldd	r25, Y+8	; 0x08
    1568:	22 e9       	ldi	r18, 0x92	; 146
    156a:	3a e0       	ldi	r19, 0x0A	; 10
    156c:	46 e8       	ldi	r20, 0x86	; 134
    156e:	5f e3       	ldi	r21, 0x3F	; 63
    1570:	0e 94 43 11 	call	0x2286	; 0x2286 <__addsf3>
    1574:	2b ed       	ldi	r18, 0xDB	; 219
    1576:	3f e0       	ldi	r19, 0x0F	; 15
    1578:	49 ec       	ldi	r20, 0xC9	; 201
    157a:	5f e3       	ldi	r21, 0x3F	; 63
    157c:	0e 94 42 11 	call	0x2284	; 0x2284 <__subsf3>
    1580:	20 e0       	ldi	r18, 0x00	; 0
    1582:	30 e0       	ldi	r19, 0x00	; 0
    1584:	44 e3       	ldi	r20, 0x34	; 52
    1586:	53 e4       	ldi	r21, 0x43	; 67
    1588:	0e 94 b3 13 	call	0x2766	; 0x2766 <__mulsf3>
    158c:	2b ed       	ldi	r18, 0xDB	; 219
    158e:	3f e0       	ldi	r19, 0x0F	; 15
    1590:	49 e4       	ldi	r20, 0x49	; 73
    1592:	50 e4       	ldi	r21, 0x40	; 64
    1594:	0e 94 0c 12 	call	0x2418	; 0x2418 <__divsf3>
    1598:	2e e0       	ldi	r18, 0x0E	; 14
    159a:	34 e7       	ldi	r19, 0x74	; 116
    159c:	4a e5       	ldi	r20, 0x5A	; 90
    159e:	50 e4       	ldi	r21, 0x40	; 64
    15a0:	0e 94 b3 13 	call	0x2766	; 0x2766 <__mulsf3>
    15a4:	0e 94 79 12 	call	0x24f2	; 0x24f2 <__fixunssfsi>
    15a8:	6b 01       	movw	r12, r22
    15aa:	7c 01       	movw	r14, r24
    15ac:	7a 8b       	std	Y+18, r23	; 0x12
    15ae:	69 8b       	std	Y+17, r22	; 0x11
		m_error.overwrite = true;
	}

	motor_t &operator [] (const uint8_t &id)
	{
		currentID = id;
    15b0:	82 e0       	ldi	r24, 0x02	; 2
    15b2:	80 93 52 02 	sts	0x0252, r24
	motor[2].position(pozice_motor1);
    15b6:	c4 01       	movw	r24, r8
    15b8:	0e 94 36 08 	call	0x106c	; 0x106c <_ZN7motor_t8positionERKj.isra.17.constprop.23>
    15bc:	83 e0       	ldi	r24, 0x03	; 3
    15be:	80 93 52 02 	sts	0x0252, r24
	motor[3].position(pozice_motor2);
    15c2:	c6 01       	movw	r24, r12
    15c4:	0e 94 36 08 	call	0x106c	; 0x106c <_ZN7motor_t8positionERKj.isra.17.constprop.23>
		sendNumber(n, numbersSpaces);
		return *this;
	}
	USART1_t &operator << (const int16_t &n)
	{
		sendNumber(n, numbersSpaces);
    15c8:	f6 e8       	ldi	r31, 0x86	; 134
    15ca:	cf 2e       	mov	r12, r31
    15cc:	f3 e0       	ldi	r31, 0x03	; 3
    15ce:	df 2e       	mov	r13, r31
    15d0:	c6 01       	movw	r24, r12
    15d2:	49 85       	ldd	r20, Y+9	; 0x09
    15d4:	5a 85       	ldd	r21, Y+10	; 0x0a
    15d6:	6b 85       	ldd	r22, Y+11	; 0x0b
    15d8:	7c 85       	ldd	r23, Y+12	; 0x0c
    15da:	20 91 50 04 	lds	r18, 0x0450
    15de:	0e 94 5c 02 	call	0x4b8	; 0x4b8 <_ZN8USART1_t10sendNumberElh>
		sendChar(ch);
		return *this;
	}
	USART1_t &operator << (const char *ch)
	{
		send(ch);
    15e2:	0b e0       	ldi	r16, 0x0B	; 11
    15e4:	11 e0       	ldi	r17, 0x01	; 1
    15e6:	c8 01       	movw	r24, r16
    15e8:	0e 94 0e 03 	call	0x61c	; 0x61c <_ZN8USART1_t4sendEPKc.constprop.22>
    15ec:	84 e1       	ldi	r24, 0x14	; 20
    15ee:	91 e0       	ldi	r25, 0x01	; 1
    15f0:	0e 94 0e 03 	call	0x61c	; 0x61c <_ZN8USART1_t4sendEPKc.constprop.22>
	
	//B_term=B*1000;	
	alfa_term=alfa*180/M_PI;
    15f4:	69 81       	ldd	r22, Y+1	; 0x01
    15f6:	7a 81       	ldd	r23, Y+2	; 0x02
    15f8:	8b 81       	ldd	r24, Y+3	; 0x03
    15fa:	9c 81       	ldd	r25, Y+4	; 0x04
    15fc:	20 e0       	ldi	r18, 0x00	; 0
    15fe:	30 e0       	ldi	r19, 0x00	; 0
    1600:	44 e3       	ldi	r20, 0x34	; 52
    1602:	53 e4       	ldi	r21, 0x43	; 67
    1604:	0e 94 b3 13 	call	0x2766	; 0x2766 <__mulsf3>
    1608:	2b ed       	ldi	r18, 0xDB	; 219
    160a:	3f e0       	ldi	r19, 0x0F	; 15
    160c:	49 e4       	ldi	r20, 0x49	; 73
    160e:	50 e4       	ldi	r21, 0x40	; 64
    1610:	0e 94 0c 12 	call	0x2418	; 0x2418 <__divsf3>
    1614:	0e 94 74 12 	call	0x24e8	; 0x24e8 <__fixsfsi>
    1618:	ab 01       	movw	r20, r22
    161a:	bc 01       	movw	r22, r24
		sendNumber(n, numbersSpaces);
		return *this;
	}
	USART1_t &operator << (const int16_t &n)
	{
		sendNumber(n, numbersSpaces);
    161c:	66 27       	eor	r22, r22
    161e:	57 fd       	sbrc	r21, 7
    1620:	60 95       	com	r22
    1622:	76 2f       	mov	r23, r22
    1624:	c6 01       	movw	r24, r12
    1626:	20 91 50 04 	lds	r18, 0x0450
    162a:	0e 94 5c 02 	call	0x4b8	; 0x4b8 <_ZN8USART1_t10sendNumberElh>
		sendChar(ch);
		return *this;
	}
	USART1_t &operator << (const char *ch)
	{
		send(ch);
    162e:	c8 01       	movw	r24, r16
    1630:	0e 94 0e 03 	call	0x61c	; 0x61c <_ZN8USART1_t4sendEPKc.constprop.22>
    1634:	8d e1       	ldi	r24, 0x1D	; 29
    1636:	91 e0       	ldi	r25, 0x01	; 1
    1638:	0e 94 0e 03 	call	0x61c	; 0x61c <_ZN8USART1_t4sendEPKc.constprop.22>
	beta_term=beta*180/M_PI;
    163c:	c3 01       	movw	r24, r6
    163e:	b2 01       	movw	r22, r4
    1640:	20 e0       	ldi	r18, 0x00	; 0
    1642:	30 e0       	ldi	r19, 0x00	; 0
    1644:	44 e3       	ldi	r20, 0x34	; 52
    1646:	53 e4       	ldi	r21, 0x43	; 67
    1648:	0e 94 b3 13 	call	0x2766	; 0x2766 <__mulsf3>
    164c:	2b ed       	ldi	r18, 0xDB	; 219
    164e:	3f e0       	ldi	r19, 0x0F	; 15
    1650:	49 e4       	ldi	r20, 0x49	; 73
    1652:	50 e4       	ldi	r21, 0x40	; 64
    1654:	0e 94 0c 12 	call	0x2418	; 0x2418 <__divsf3>
    1658:	0e 94 74 12 	call	0x24e8	; 0x24e8 <__fixsfsi>
    165c:	ab 01       	movw	r20, r22
    165e:	bc 01       	movw	r22, r24
		sendNumber(n, numbersSpaces);
		return *this;
	}
	USART1_t &operator << (const int16_t &n)
	{
		sendNumber(n, numbersSpaces);
    1660:	66 27       	eor	r22, r22
    1662:	57 fd       	sbrc	r21, 7
    1664:	60 95       	com	r22
    1666:	76 2f       	mov	r23, r22
    1668:	c6 01       	movw	r24, r12
    166a:	20 91 50 04 	lds	r18, 0x0450
    166e:	0e 94 5c 02 	call	0x4b8	; 0x4b8 <_ZN8USART1_t10sendNumberElh>
		sendChar(ch);
		return *this;
	}
	USART1_t &operator << (const char *ch)
	{
		send(ch);
    1672:	c8 01       	movw	r24, r16
    1674:	0e 94 0e 03 	call	0x61c	; 0x61c <_ZN8USART1_t4sendEPKc.constprop.22>
    1678:	86 e2       	ldi	r24, 0x26	; 38
    167a:	91 e0       	ldi	r25, 0x01	; 1
    167c:	0e 94 0e 03 	call	0x61c	; 0x61c <_ZN8USART1_t4sendEPKc.constprop.22>
	gamma_term=gamma*180/M_PI;
    1680:	3d 85       	ldd	r19, Y+13	; 0x0d
    1682:	2e 85       	ldd	r18, Y+14	; 0x0e
    1684:	82 2d       	mov	r24, r2
    1686:	93 2d       	mov	r25, r3
    1688:	a3 2f       	mov	r26, r19
    168a:	b2 2f       	mov	r27, r18
    168c:	bc 01       	movw	r22, r24
    168e:	cd 01       	movw	r24, r26
    1690:	20 e0       	ldi	r18, 0x00	; 0
    1692:	30 e0       	ldi	r19, 0x00	; 0
    1694:	44 e3       	ldi	r20, 0x34	; 52
    1696:	53 e4       	ldi	r21, 0x43	; 67
    1698:	0e 94 b3 13 	call	0x2766	; 0x2766 <__mulsf3>
    169c:	2b ed       	ldi	r18, 0xDB	; 219
    169e:	3f e0       	ldi	r19, 0x0F	; 15
    16a0:	49 e4       	ldi	r20, 0x49	; 73
    16a2:	50 e4       	ldi	r21, 0x40	; 64
    16a4:	0e 94 0c 12 	call	0x2418	; 0x2418 <__divsf3>
    16a8:	0e 94 74 12 	call	0x24e8	; 0x24e8 <__fixsfsi>
    16ac:	ab 01       	movw	r20, r22
    16ae:	bc 01       	movw	r22, r24
		sendNumber(n, numbersSpaces);
		return *this;
	}
	USART1_t &operator << (const int16_t &n)
	{
		sendNumber(n, numbersSpaces);
    16b0:	66 27       	eor	r22, r22
    16b2:	57 fd       	sbrc	r21, 7
    16b4:	60 95       	com	r22
    16b6:	76 2f       	mov	r23, r22
    16b8:	c6 01       	movw	r24, r12
    16ba:	20 91 50 04 	lds	r18, 0x0450
    16be:	0e 94 5c 02 	call	0x4b8	; 0x4b8 <_ZN8USART1_t10sendNumberElh>
		sendChar(ch);
		return *this;
	}
	USART1_t &operator << (const char *ch)
	{
		send(ch);
    16c2:	c8 01       	movw	r24, r16
    16c4:	0e 94 0e 03 	call	0x61c	; 0x61c <_ZN8USART1_t4sendEPKc.constprop.22>
    16c8:	80 e3       	ldi	r24, 0x30	; 48
    16ca:	91 e0       	ldi	r25, 0x01	; 1
    16cc:	0e 94 0e 03 	call	0x61c	; 0x61c <_ZN8USART1_t4sendEPKc.constprop.22>
	delta_term=delta*180/M_PI;
    16d0:	6d 81       	ldd	r22, Y+5	; 0x05
    16d2:	7e 81       	ldd	r23, Y+6	; 0x06
    16d4:	8f 81       	ldd	r24, Y+7	; 0x07
    16d6:	98 85       	ldd	r25, Y+8	; 0x08
    16d8:	20 e0       	ldi	r18, 0x00	; 0
    16da:	30 e0       	ldi	r19, 0x00	; 0
    16dc:	44 e3       	ldi	r20, 0x34	; 52
    16de:	53 e4       	ldi	r21, 0x43	; 67
    16e0:	0e 94 b3 13 	call	0x2766	; 0x2766 <__mulsf3>
    16e4:	2b ed       	ldi	r18, 0xDB	; 219
    16e6:	3f e0       	ldi	r19, 0x0F	; 15
    16e8:	49 e4       	ldi	r20, 0x49	; 73
    16ea:	50 e4       	ldi	r21, 0x40	; 64
    16ec:	0e 94 0c 12 	call	0x2418	; 0x2418 <__divsf3>
    16f0:	0e 94 74 12 	call	0x24e8	; 0x24e8 <__fixsfsi>
    16f4:	ab 01       	movw	r20, r22
    16f6:	bc 01       	movw	r22, r24
		sendNumber(n, numbersSpaces);
		return *this;
	}
	USART1_t &operator << (const int16_t &n)
	{
		sendNumber(n, numbersSpaces);
    16f8:	66 27       	eor	r22, r22
    16fa:	57 fd       	sbrc	r21, 7
    16fc:	60 95       	com	r22
    16fe:	76 2f       	mov	r23, r22
    1700:	c6 01       	movw	r24, r12
    1702:	20 91 50 04 	lds	r18, 0x0450
    1706:	0e 94 5c 02 	call	0x4b8	; 0x4b8 <_ZN8USART1_t10sendNumberElh>
		sendChar(ch);
		return *this;
	}
	USART1_t &operator << (const char *ch)
	{
		send(ch);
    170a:	c8 01       	movw	r24, r16
    170c:	0e 94 0e 03 	call	0x61c	; 0x61c <_ZN8USART1_t4sendEPKc.constprop.22>
    1710:	8a e3       	ldi	r24, 0x3A	; 58
    1712:	91 e0       	ldi	r25, 0x01	; 1
    1714:	0e 94 0e 03 	call	0x61c	; 0x61c <_ZN8USART1_t4sendEPKc.constprop.22>
		sendNumber(n, numbersSpaces);
		return *this;
	}
	USART1_t &operator << (const uint16_t &n)
	{
		sendNumber(n, numbersSpaces);
    1718:	af 85       	ldd	r26, Y+15	; 0x0f
    171a:	b8 89       	ldd	r27, Y+16	; 0x10
    171c:	ad 01       	movw	r20, r26
    171e:	60 e0       	ldi	r22, 0x00	; 0
    1720:	70 e0       	ldi	r23, 0x00	; 0
    1722:	c6 01       	movw	r24, r12
    1724:	20 91 50 04 	lds	r18, 0x0450
    1728:	0e 94 5c 02 	call	0x4b8	; 0x4b8 <_ZN8USART1_t10sendNumberElh>
		sendChar(ch);
		return *this;
	}
	USART1_t &operator << (const char *ch)
	{
		send(ch);
    172c:	c8 01       	movw	r24, r16
    172e:	0e 94 0e 03 	call	0x61c	; 0x61c <_ZN8USART1_t4sendEPKc.constprop.22>
    1732:	8a e4       	ldi	r24, 0x4A	; 74
    1734:	91 e0       	ldi	r25, 0x01	; 1
    1736:	0e 94 0e 03 	call	0x61c	; 0x61c <_ZN8USART1_t4sendEPKc.constprop.22>
		sendNumber(n, numbersSpaces);
		return *this;
	}
	USART1_t &operator << (const uint16_t &n)
	{
		sendNumber(n, numbersSpaces);
    173a:	e9 89       	ldd	r30, Y+17	; 0x11
    173c:	fa 89       	ldd	r31, Y+18	; 0x12
    173e:	af 01       	movw	r20, r30
    1740:	60 e0       	ldi	r22, 0x00	; 0
    1742:	70 e0       	ldi	r23, 0x00	; 0
    1744:	c6 01       	movw	r24, r12
    1746:	20 91 50 04 	lds	r18, 0x0450
    174a:	0e 94 5c 02 	call	0x4b8	; 0x4b8 <_ZN8USART1_t10sendNumberElh>
		sendChar(ch);
		return *this;
	}
	USART1_t &operator << (const char *ch)
	{
		send(ch);
    174e:	c8 01       	movw	r24, r16
    1750:	0e 94 0e 03 	call	0x61c	; 0x61c <_ZN8USART1_t4sendEPKc.constprop.22>
	pc<<"beta je:"<<beta_term<<endl;
	pc<<"gamma je:"<<gamma_term<<endl;
	pc<<"delta je:"<<delta_term<<endl;
	pc<<"pozice motoru1:"<<pozice_motor1<<endl;
	pc<<"pozice motoru2:"<<pozice_motor2<<endl;
    1754:	62 96       	adiw	r28, 0x12	; 18
    1756:	0f b6       	in	r0, 0x3f	; 63
    1758:	f8 94       	cli
    175a:	de bf       	out	0x3e, r29	; 62
    175c:	0f be       	out	0x3f, r0	; 63
    175e:	cd bf       	out	0x3d, r28	; 61
    1760:	df 91       	pop	r29
    1762:	cf 91       	pop	r28
    1764:	1f 91       	pop	r17
    1766:	0f 91       	pop	r16
    1768:	ff 90       	pop	r15
    176a:	ef 90       	pop	r14
    176c:	df 90       	pop	r13
    176e:	cf 90       	pop	r12
    1770:	bf 90       	pop	r11
    1772:	af 90       	pop	r10
    1774:	9f 90       	pop	r9
    1776:	8f 90       	pop	r8
    1778:	7f 90       	pop	r7
    177a:	6f 90       	pop	r6
    177c:	5f 90       	pop	r5
    177e:	4f 90       	pop	r4
    1780:	3f 90       	pop	r3
    1782:	2f 90       	pop	r2
    1784:	08 95       	ret

00001786 <_ZN11dynamixel_t9writeByteEhhh>:
		uint8_t repository[3] = {address, 2};
		repository[0] = com(ID, INST_READ, &repository[0], 2, DYNAMIXEL_RETURN!=0?3:0, DYNAMIXEL_RESPOND_TIME)==0?repository[0]:(repository[0]|(1<<7));
		data = repository[1] | (repository[2] << 8);
		return repository[0];
	}
	int writeByte(uint8_t ID, uint8_t address, uint8_t data)
    1786:	8f 92       	push	r8
    1788:	9f 92       	push	r9
    178a:	af 92       	push	r10
    178c:	bf 92       	push	r11
    178e:	cf 92       	push	r12
    1790:	df 92       	push	r13
    1792:	ef 92       	push	r14
    1794:	0f 93       	push	r16
    1796:	1f 93       	push	r17
    1798:	cf 93       	push	r28
    179a:	df 93       	push	r29
    179c:	00 d0       	rcall	.+0      	; 0x179e <_ZN11dynamixel_t9writeByteEhhh+0x18>
    179e:	cd b7       	in	r28, 0x3d	; 61
    17a0:	de b7       	in	r29, 0x3e	; 62
	{
		uint8_t repository[2] = {address, data};
    17a2:	49 83       	std	Y+1, r20	; 0x01
    17a4:	2a 83       	std	Y+2, r18	; 0x02
		return com(ID, INST_WRITE, &repository[0], 2, DYNAMIXEL_RETURN==2?1:0, DYNAMIXEL_RESPOND_TIME)==0?repository[0]:(repository[0]|(1<<7));
    17a6:	43 e0       	ldi	r20, 0x03	; 3
    17a8:	9e 01       	movw	r18, r28
    17aa:	2f 5f       	subi	r18, 0xFF	; 255
    17ac:	3f 4f       	sbci	r19, 0xFF	; 255
    17ae:	02 e0       	ldi	r16, 0x02	; 2
    17b0:	10 e0       	ldi	r17, 0x00	; 0
    17b2:	ee 24       	eor	r14, r14
    17b4:	e3 94       	inc	r14
    17b6:	a4 ef       	ldi	r26, 0xF4	; 244
    17b8:	aa 2e       	mov	r10, r26
    17ba:	a1 e0       	ldi	r26, 0x01	; 1
    17bc:	ba 2e       	mov	r11, r26
    17be:	c1 2c       	mov	r12, r1
    17c0:	d1 2c       	mov	r13, r1
    17c2:	b4 ef       	ldi	r27, 0xF4	; 244
    17c4:	8b 2e       	mov	r8, r27
    17c6:	b1 e0       	ldi	r27, 0x01	; 1
    17c8:	9b 2e       	mov	r9, r27
    17ca:	0e 94 cb 06 	call	0xd96	; 0xd96 <_ZN11dynamixel_t3comEhhPhjhmj>
    17ce:	29 81       	ldd	r18, Y+1	; 0x01
    17d0:	00 97       	sbiw	r24, 0x00	; 0
    17d2:	11 f4       	brne	.+4      	; 0x17d8 <_ZN11dynamixel_t9writeByteEhhh+0x52>
    17d4:	82 2f       	mov	r24, r18
    17d6:	02 c0       	rjmp	.+4      	; 0x17dc <_ZN11dynamixel_t9writeByteEhhh+0x56>
    17d8:	82 2f       	mov	r24, r18
    17da:	80 68       	ori	r24, 0x80	; 128
	}
    17dc:	90 e0       	ldi	r25, 0x00	; 0
    17de:	0f 90       	pop	r0
    17e0:	0f 90       	pop	r0
    17e2:	df 91       	pop	r29
    17e4:	cf 91       	pop	r28
    17e6:	1f 91       	pop	r17
    17e8:	0f 91       	pop	r16
    17ea:	ef 90       	pop	r14
    17ec:	df 90       	pop	r13
    17ee:	cf 90       	pop	r12
    17f0:	bf 90       	pop	r11
    17f2:	af 90       	pop	r10
    17f4:	9f 90       	pop	r9
    17f6:	8f 90       	pop	r8
    17f8:	08 95       	ret

000017fa <_Z5povolv>:
	TCCR0 |= (1 << CS00);
}

void povol()
{
	for(i=0; i!=pocet_motoru; i++)
    17fa:	10 92 e8 01 	sts	0x01E8, r1
    17fe:	13 c0       	rjmp	.+38     	; 0x1826 <_Z5povolv+0x2c>
	{
		motor[i+1].clearTorque();
    1800:	6f 5f       	subi	r22, 0xFF	; 255
		m_error.overwrite = true;
	}

	motor_t &operator [] (const uint8_t &id)
	{
		currentID = id;
    1802:	60 93 52 02 	sts	0x0252, r22
		m_error.push(bus.writeByte(currentID, P_TORQUE_ENABLE, 1));
		return *this;
	}
	motor_t & clearTorque()
	{
		m_error.push(bus.writeByte(currentID, P_TORQUE_ENABLE, 0));
    1806:	88 eb       	ldi	r24, 0xB8	; 184
    1808:	92 e0       	ldi	r25, 0x02	; 2
    180a:	48 e1       	ldi	r20, 0x18	; 24
    180c:	20 e0       	ldi	r18, 0x00	; 0
    180e:	0e 94 c3 0b 	call	0x1786	; 0x1786 <_ZN11dynamixel_t9writeByteEhhh>
    1812:	68 2f       	mov	r22, r24
    1814:	83 e5       	ldi	r24, 0x53	; 83
    1816:	92 e0       	ldi	r25, 0x02	; 2
    1818:	0e 94 12 06 	call	0xc24	; 0xc24 <_ZN5queueIhLj96EE4pushEh>
	TCCR0 |= (1 << CS00);
}

void povol()
{
	for(i=0; i!=pocet_motoru; i++)
    181c:	80 91 e8 01 	lds	r24, 0x01E8
    1820:	8f 5f       	subi	r24, 0xFF	; 255
    1822:	80 93 e8 01 	sts	0x01E8, r24
    1826:	60 91 e8 01 	lds	r22, 0x01E8
    182a:	67 30       	cpi	r22, 0x07	; 7
    182c:	49 f7       	brne	.-46     	; 0x1800 <_Z5povolv+0x6>
	{
		motor[i+1].clearTorque();
	}
}
    182e:	08 95       	ret

00001830 <_ZN7motor_t8positionEv>:
	motor_t & position(const int16_t &position, const int16_t &speed)
	{
		m_error.push(bus.writeDWord(currentID, P_GOAL_POSITION_L, ((uint16_t)(position)), ((uint16_t)(speed))));
		return *this;
	}
	uint16_t position()
    1830:	6f 92       	push	r6
    1832:	7f 92       	push	r7
    1834:	8f 92       	push	r8
    1836:	9f 92       	push	r9
    1838:	af 92       	push	r10
    183a:	bf 92       	push	r11
    183c:	cf 92       	push	r12
    183e:	df 92       	push	r13
    1840:	ef 92       	push	r14
    1842:	0f 93       	push	r16
    1844:	1f 93       	push	r17
    1846:	cf 93       	push	r28
    1848:	df 93       	push	r29
    184a:	00 d0       	rcall	.+0      	; 0x184c <_ZN7motor_t8positionEv+0x1c>
    184c:	0f 92       	push	r0
    184e:	cd b7       	in	r28, 0x3d	; 61
    1850:	de b7       	in	r29, 0x3e	; 62
	{
		uint16_t pos;
		m_error.push(bus.readWord(currentID, P_PRESENT_POSITION_L, pos));
    1852:	3c 01       	movw	r6, r24
    1854:	08 94       	sec
    1856:	61 1c       	adc	r6, r1
    1858:	71 1c       	adc	r7, r1
    185a:	fc 01       	movw	r30, r24
    185c:	60 81       	ld	r22, Z
		data = repository[1];
		return repository[0];
	}
	int readWord(uint8_t ID, uint8_t address, uint16_t &data)
	{
		uint8_t repository[3] = {address, 2};
    185e:	9e 01       	movw	r18, r28
    1860:	2f 5f       	subi	r18, 0xFF	; 255
    1862:	3f 4f       	sbci	r19, 0xFF	; 255
    1864:	83 e0       	ldi	r24, 0x03	; 3
    1866:	f9 01       	movw	r30, r18
    1868:	11 92       	st	Z+, r1
    186a:	8a 95       	dec	r24
    186c:	e9 f7       	brne	.-6      	; 0x1868 <_ZN7motor_t8positionEv+0x38>
    186e:	82 e0       	ldi	r24, 0x02	; 2
    1870:	8a 83       	std	Y+2, r24	; 0x02
    1872:	84 e2       	ldi	r24, 0x24	; 36
    1874:	89 83       	std	Y+1, r24	; 0x01
		repository[0] = com(ID, INST_READ, &repository[0], 2, DYNAMIXEL_RETURN!=0?3:0, DYNAMIXEL_RESPOND_TIME)==0?repository[0]:(repository[0]|(1<<7));
    1876:	88 eb       	ldi	r24, 0xB8	; 184
    1878:	92 e0       	ldi	r25, 0x02	; 2
    187a:	42 e0       	ldi	r20, 0x02	; 2
    187c:	02 e0       	ldi	r16, 0x02	; 2
    187e:	10 e0       	ldi	r17, 0x00	; 0
    1880:	53 e0       	ldi	r21, 0x03	; 3
    1882:	e5 2e       	mov	r14, r21
    1884:	74 ef       	ldi	r23, 0xF4	; 244
    1886:	a7 2e       	mov	r10, r23
    1888:	71 e0       	ldi	r23, 0x01	; 1
    188a:	b7 2e       	mov	r11, r23
    188c:	c1 2c       	mov	r12, r1
    188e:	d1 2c       	mov	r13, r1
    1890:	e4 ef       	ldi	r30, 0xF4	; 244
    1892:	8e 2e       	mov	r8, r30
    1894:	e1 e0       	ldi	r30, 0x01	; 1
    1896:	9e 2e       	mov	r9, r30
    1898:	0e 94 cb 06 	call	0xd96	; 0xd96 <_ZN11dynamixel_t3comEhhPhjhmj>
    189c:	69 81       	ldd	r22, Y+1	; 0x01
    189e:	00 97       	sbiw	r24, 0x00	; 0
    18a0:	09 f0       	breq	.+2      	; 0x18a4 <_ZN7motor_t8positionEv+0x74>
    18a2:	60 68       	ori	r22, 0x80	; 128
    18a4:	69 83       	std	Y+1, r22	; 0x01
		data = repository[1] | (repository[2] << 8);
    18a6:	9b 81       	ldd	r25, Y+3	; 0x03
    18a8:	80 e0       	ldi	r24, 0x00	; 0
    18aa:	0a 81       	ldd	r16, Y+2	; 0x02
    18ac:	10 e0       	ldi	r17, 0x00	; 0
    18ae:	08 2b       	or	r16, r24
    18b0:	19 2b       	or	r17, r25
		return *this;
	}
	uint16_t position()
	{
		uint16_t pos;
		m_error.push(bus.readWord(currentID, P_PRESENT_POSITION_L, pos));
    18b2:	c3 01       	movw	r24, r6
    18b4:	0e 94 12 06 	call	0xc24	; 0xc24 <_ZN5queueIhLj96EE4pushEh>
		return pos;
	}
    18b8:	c8 01       	movw	r24, r16
    18ba:	0f 90       	pop	r0
    18bc:	0f 90       	pop	r0
    18be:	0f 90       	pop	r0
    18c0:	df 91       	pop	r29
    18c2:	cf 91       	pop	r28
    18c4:	1f 91       	pop	r17
    18c6:	0f 91       	pop	r16
    18c8:	ef 90       	pop	r14
    18ca:	df 90       	pop	r13
    18cc:	cf 90       	pop	r12
    18ce:	bf 90       	pop	r11
    18d0:	af 90       	pop	r10
    18d2:	9f 90       	pop	r9
    18d4:	8f 90       	pop	r8
    18d6:	7f 90       	pop	r7
    18d8:	6f 90       	pop	r6
    18da:	08 95       	ret

000018dc <_Z5cekejv>:

void cekej()
{
    18dc:	6f 92       	push	r6
    18de:	7f 92       	push	r7
    18e0:	8f 92       	push	r8
    18e2:	9f 92       	push	r9
    18e4:	af 92       	push	r10
    18e6:	bf 92       	push	r11
    18e8:	cf 92       	push	r12
    18ea:	df 92       	push	r13
    18ec:	ef 92       	push	r14
    18ee:	ff 92       	push	r15
    18f0:	0f 93       	push	r16
    18f2:	1f 93       	push	r17
    18f4:	cf 93       	push	r28
    18f6:	df 93       	push	r29
    18f8:	00 d0       	rcall	.+0      	; 0x18fa <_Z5cekejv+0x1e>
    18fa:	cd b7       	in	r28, 0x3d	; 61
    18fc:	de b7       	in	r29, 0x3e	; 62
	#else
		//round up by default
		__ticks_dc = (uint32_t)(ceil(fabs(__tmp)));
	#endif

	__builtin_avr_delay_cycles(__ticks_dc);
    18fe:	8f ef       	ldi	r24, 0xFF	; 255
    1900:	9c e4       	ldi	r25, 0x4C	; 76
    1902:	a8 e0       	ldi	r26, 0x08	; 8
    1904:	81 50       	subi	r24, 0x01	; 1
    1906:	90 40       	sbci	r25, 0x00	; 0
    1908:	a0 40       	sbci	r26, 0x00	; 0
    190a:	e1 f7       	brne	.-8      	; 0x1904 <_Z5cekejv+0x28>
    190c:	00 c0       	rjmp	.+0      	; 0x190e <_Z5cekejv+0x32>
    190e:	00 00       	nop
	uint8_t icekej=1;
    1910:	ff 24       	eor	r15, r15
    1912:	f3 94       	inc	r15
		return -1;
	}
#endif
	int readByte(uint8_t ID, uint8_t address, uint8_t &data)
	{
		uint8_t repository[2] = {address, 1};
    1914:	77 24       	eor	r7, r7
    1916:	73 94       	inc	r7
    1918:	16 e2       	ldi	r17, 0x26	; 38
    191a:	61 2e       	mov	r6, r17
		m_error.overwrite = true;
	}

	motor_t &operator [] (const uint8_t &id)
	{
		currentID = id;
    191c:	f0 92 52 02 	sts	0x0252, r15
		return -1;
	}
#endif
	int readByte(uint8_t ID, uint8_t address, uint8_t &data)
	{
		uint8_t repository[2] = {address, 1};
    1920:	7a 82       	std	Y+2, r7	; 0x02
    1922:	69 82       	std	Y+1, r6	; 0x01
		repository[0] = com(ID, INST_READ, &repository[0], 2, DYNAMIXEL_RETURN!=0?2:0, DYNAMIXEL_RESPOND_TIME)==0?repository[0]:(repository[0]|(1<<7));
    1924:	88 eb       	ldi	r24, 0xB8	; 184
    1926:	92 e0       	ldi	r25, 0x02	; 2
    1928:	6f 2d       	mov	r22, r15
    192a:	42 e0       	ldi	r20, 0x02	; 2
    192c:	9e 01       	movw	r18, r28
    192e:	2f 5f       	subi	r18, 0xFF	; 255
    1930:	3f 4f       	sbci	r19, 0xFF	; 255
    1932:	02 e0       	ldi	r16, 0x02	; 2
    1934:	10 e0       	ldi	r17, 0x00	; 0
    1936:	f2 e0       	ldi	r31, 0x02	; 2
    1938:	ef 2e       	mov	r14, r31
    193a:	a4 ef       	ldi	r26, 0xF4	; 244
    193c:	aa 2e       	mov	r10, r26
    193e:	a1 e0       	ldi	r26, 0x01	; 1
    1940:	ba 2e       	mov	r11, r26
    1942:	c1 2c       	mov	r12, r1
    1944:	d1 2c       	mov	r13, r1
    1946:	b4 ef       	ldi	r27, 0xF4	; 244
    1948:	8b 2e       	mov	r8, r27
    194a:	b1 e0       	ldi	r27, 0x01	; 1
    194c:	9b 2e       	mov	r9, r27
    194e:	0e 94 cb 06 	call	0xd96	; 0xd96 <_ZN11dynamixel_t3comEhhPhjhmj>
    1952:	69 81       	ldd	r22, Y+1	; 0x01
    1954:	00 97       	sbiw	r24, 0x00	; 0
    1956:	09 f0       	breq	.+2      	; 0x195a <_Z5cekejv+0x7e>
    1958:	60 68       	ori	r22, 0x80	; 128
    195a:	69 83       	std	Y+1, r22	; 0x01
		data = repository[1];
    195c:	1a 81       	ldd	r17, Y+2	; 0x02
	}
	//_________________________________________________________________________________________________________
	uint8_t present_speed()
	{
		uint8_t sped;
		m_error.push(bus.readByte(currentID, P_PRESENT_SPEED_L, sped));
    195e:	83 e5       	ldi	r24, 0x53	; 83
    1960:	92 e0       	ldi	r25, 0x02	; 2
    1962:	0e 94 12 06 	call	0xc24	; 0xc24 <_ZN5queueIhLj96EE4pushEh>
	_delay_ms(170);
	while(icekej!=pocet_motoru)
	{
		if (motor[icekej].present_speed()==0)	{icekej++;}
    1966:	11 23       	and	r17, r17
    1968:	09 f4       	brne	.+2      	; 0x196c <_Z5cekejv+0x90>
    196a:	f3 94       	inc	r15

void cekej()
{
	uint8_t icekej=1;
	_delay_ms(170);
	while(icekej!=pocet_motoru)
    196c:	97 e0       	ldi	r25, 0x07	; 7
    196e:	f9 16       	cp	r15, r25
    1970:	a9 f6       	brne	.-86     	; 0x191c <_Z5cekejv+0x40>
	{
		if (motor[icekej].present_speed()==0)	{icekej++;}
	}
}
    1972:	0f 90       	pop	r0
    1974:	0f 90       	pop	r0
    1976:	df 91       	pop	r29
    1978:	cf 91       	pop	r28
    197a:	1f 91       	pop	r17
    197c:	0f 91       	pop	r16
    197e:	ff 90       	pop	r15
    1980:	ef 90       	pop	r14
    1982:	df 90       	pop	r13
    1984:	cf 90       	pop	r12
    1986:	bf 90       	pop	r11
    1988:	af 90       	pop	r10
    198a:	9f 90       	pop	r9
    198c:	8f 90       	pop	r8
    198e:	7f 90       	pop	r7
    1990:	6f 90       	pop	r6
    1992:	08 95       	ret

00001994 <_Z5zavriv>:
		m_error.overwrite = true;
	}

	motor_t &operator [] (const uint8_t &id)
	{
		currentID = id;
    1994:	86 e0       	ldi	r24, 0x06	; 6
    1996:	80 93 52 02 	sts	0x0252, r24
	cekej();
}

void zavri()							//zavrit celisti
{
	motor[6].position(520);
    199a:	88 e0       	ldi	r24, 0x08	; 8
    199c:	92 e0       	ldi	r25, 0x02	; 2
    199e:	0e 94 21 08 	call	0x1042	; 0x1042 <_ZN7motor_t8positionERKi.isra.18.constprop.21>
    19a2:	87 e0       	ldi	r24, 0x07	; 7
    19a4:	80 93 52 02 	sts	0x0252, r24
	motor[7].position(504);
    19a8:	88 ef       	ldi	r24, 0xF8	; 248
    19aa:	91 e0       	ldi	r25, 0x01	; 1
    19ac:	0e 94 21 08 	call	0x1042	; 0x1042 <_ZN7motor_t8positionERKi.isra.18.constprop.21>
	cekej();
    19b0:	0e 94 6e 0c 	call	0x18dc	; 0x18dc <_Z5cekejv>
}
    19b4:	08 95       	ret

000019b6 <_Z6otevriv>:
    19b6:	86 e0       	ldi	r24, 0x06	; 6
    19b8:	80 93 52 02 	sts	0x0252, r24
	cekej();
}

void otevri()							//otevrit celisti
{		
	motor[6].position(486);
    19bc:	86 ee       	ldi	r24, 0xE6	; 230
    19be:	91 e0       	ldi	r25, 0x01	; 1
    19c0:	0e 94 21 08 	call	0x1042	; 0x1042 <_ZN7motor_t8positionERKi.isra.18.constprop.21>
    19c4:	87 e0       	ldi	r24, 0x07	; 7
    19c6:	80 93 52 02 	sts	0x0252, r24
	motor[7].position(548);
    19ca:	84 e2       	ldi	r24, 0x24	; 36
    19cc:	92 e0       	ldi	r25, 0x02	; 2
    19ce:	0e 94 21 08 	call	0x1042	; 0x1042 <_ZN7motor_t8positionERKi.isra.18.constprop.21>
	cekej();
    19d2:	0e 94 6e 0c 	call	0x18dc	; 0x18dc <_Z5cekejv>
}
    19d6:	08 95       	ret

000019d8 <_Z8PoziceM1h>:
    19d8:	91 e0       	ldi	r25, 0x01	; 1
    19da:	90 93 52 02 	sts	0x0252, r25
	cekej();
}

void PoziceM1(uint8_t c_pozice)			//nastavi pozici motoru 1 dle c. pozice
{
	motor[1].position(pgm_read_word(&(Motor_1[c_pozice])));
    19de:	90 e0       	ldi	r25, 0x00	; 0
    19e0:	88 0f       	add	r24, r24
    19e2:	99 1f       	adc	r25, r25
    19e4:	85 5e       	subi	r24, 0xE5	; 229
    19e6:	9e 4f       	sbci	r25, 0xFE	; 254
    19e8:	fc 01       	movw	r30, r24
    19ea:	85 91       	lpm	r24, Z+
    19ec:	94 91       	lpm	r25, Z
    19ee:	0e 94 36 08 	call	0x106c	; 0x106c <_ZN7motor_t8positionERKj.isra.17.constprop.23>
	cekej();
    19f2:	0e 94 6e 0c 	call	0x18dc	; 0x18dc <_Z5cekejv>
}
    19f6:	08 95       	ret

000019f8 <_Z11nasad_robotv>:
	naberpoloz(c_pozice, false);
}

void nasad_robot()
{
	otevri();
    19f8:	0e 94 db 0c 	call	0x19b6	; 0x19b6 <_Z6otevriv>
	if(DOMECEK(0))
    19fc:	80 91 e2 01 	lds	r24, 0x01E2
    1a00:	80 ff       	sbrs	r24, 0
    1a02:	04 c0       	rjmp	.+8      	; 0x1a0c <_Z11nasad_robotv+0x14>
	{
		//PoziceM1();
		curr_pos[0]=8;
    1a04:	88 e0       	ldi	r24, 0x08	; 8
    1a06:	80 93 da 01 	sts	0x01DA, r24
    1a0a:	03 c0       	rjmp	.+6      	; 0x1a12 <_Z11nasad_robotv+0x1a>
	}		
	else
	{
		//PoziceM1();
		curr_pos[1]=8;
    1a0c:	88 e0       	ldi	r24, 0x08	; 8
    1a0e:	80 93 db 01 	sts	0x01DB, r24
	}	
	zavri();
    1a12:	0e 94 ca 0c 	call	0x1994	; 0x1994 <_Z5zavriv>
	PoziceM1(8);
    1a16:	88 e0       	ldi	r24, 0x08	; 8
    1a18:	0e 94 ec 0c 	call	0x19d8	; 0x19d8 <_Z8PoziceM1h>
	otevri();
    1a1c:	0e 94 db 0c 	call	0x19b6	; 0x19b6 <_Z6otevriv>
}
    1a20:	08 95       	ret

00001a22 <_Z10naberpolozhb>:
	motor[7].position(504);
	cekej();
}

void naberpoloz(uint8_t c_pozice, bool naber)
{
    1a22:	cf 93       	push	r28
    1a24:	df 93       	push	r29
    1a26:	d8 2f       	mov	r29, r24
    1a28:	c6 2f       	mov	r28, r22
	PoziceM1(c_pozice);
    1a2a:	0e 94 ec 0c 	call	0x19d8	; 0x19d8 <_Z8PoziceM1h>
	if (c_pozice<8 && c_pozice>2)
    1a2e:	d3 50       	subi	r29, 0x03	; 3
    1a30:	d5 30       	cpi	r29, 0x05	; 5
    1a32:	08 f0       	brcs	.+2      	; 0x1a36 <_Z10naberpolozhb+0x14>
    1a34:	67 c0       	rjmp	.+206    	; 0x1b04 <_Z10naberpolozhb+0xe2>
		sendChar(ch);
		return *this;
	}
	USART1_t &operator << (const char *ch)
	{
		send(ch);
    1a36:	8a e5       	ldi	r24, 0x5A	; 90
    1a38:	91 e0       	ldi	r25, 0x01	; 1
    1a3a:	0e 94 0e 03 	call	0x61c	; 0x61c <_ZN8USART1_t4sendEPKc.constprop.22>
    1a3e:	8b e0       	ldi	r24, 0x0B	; 11
    1a40:	91 e0       	ldi	r25, 0x01	; 1
    1a42:	0e 94 0e 03 	call	0x61c	; 0x61c <_ZN8USART1_t4sendEPKc.constprop.22>
	{
		pc<<"nezasahnute"<<endl;
		for (i2=3; i2!=6; i2++)
    1a46:	83 e0       	ldi	r24, 0x03	; 3
    1a48:	80 93 e7 01 	sts	0x01E7, r24
		{
			for (i=2; i!=6; i++)
    1a4c:	d2 e0       	ldi	r29, 0x02	; 2
{
	PoziceM1(c_pozice);
	if (c_pozice<8 && c_pozice>2)
	{
		pc<<"nezasahnute"<<endl;
		for (i2=3; i2!=6; i2++)
    1a4e:	30 c0       	rjmp	.+96     	; 0x1ab0 <_Z10naberpolozhb+0x8e>
		{
			for (i=2; i!=6; i++)
    1a50:	d0 93 e8 01 	sts	0x01E8, r29
    1a54:	1d c0       	rjmp	.+58     	; 0x1a90 <_Z10naberpolozhb+0x6e>
		m_error.overwrite = true;
	}

	motor_t &operator [] (const uint8_t &id)
	{
		currentID = id;
    1a56:	80 93 52 02 	sts	0x0252, r24
			{
				motor[i].position(pgm_read_word(&(PohybyOstaniMotory[(i-2)][i2])));
    1a5a:	20 91 e7 01 	lds	r18, 0x01E7
    1a5e:	90 e0       	ldi	r25, 0x00	; 0
    1a60:	02 97       	sbiw	r24, 0x02	; 2
    1a62:	fc 01       	movw	r30, r24
    1a64:	b4 e0       	ldi	r27, 0x04	; 4
    1a66:	ee 0f       	add	r30, r30
    1a68:	ff 1f       	adc	r31, r31
    1a6a:	ba 95       	dec	r27
    1a6c:	e1 f7       	brne	.-8      	; 0x1a66 <_Z10naberpolozhb+0x44>
    1a6e:	e8 1b       	sub	r30, r24
    1a70:	f9 0b       	sbc	r31, r25
    1a72:	e2 0f       	add	r30, r18
    1a74:	f1 1d       	adc	r31, r1
    1a76:	ee 0f       	add	r30, r30
    1a78:	ff 1f       	adc	r31, r31
    1a7a:	e9 59       	subi	r30, 0x99	; 153
    1a7c:	fe 4f       	sbci	r31, 0xFE	; 254
    1a7e:	85 91       	lpm	r24, Z+
    1a80:	94 91       	lpm	r25, Z
    1a82:	0e 94 36 08 	call	0x106c	; 0x106c <_ZN7motor_t8positionERKj.isra.17.constprop.23>
	if (c_pozice<8 && c_pozice>2)
	{
		pc<<"nezasahnute"<<endl;
		for (i2=3; i2!=6; i2++)
		{
			for (i=2; i!=6; i++)
    1a86:	80 91 e8 01 	lds	r24, 0x01E8
    1a8a:	8f 5f       	subi	r24, 0xFF	; 255
    1a8c:	80 93 e8 01 	sts	0x01E8, r24
    1a90:	80 91 e8 01 	lds	r24, 0x01E8
    1a94:	86 30       	cpi	r24, 0x06	; 6
    1a96:	f9 f6       	brne	.-66     	; 0x1a56 <_Z10naberpolozhb+0x34>
			{
				motor[i].position(pgm_read_word(&(PohybyOstaniMotory[(i-2)][i2])));
			}
			cekej();
    1a98:	0e 94 6e 0c 	call	0x18dc	; 0x18dc <_Z5cekejv>
			nastav_rychlost(i2-2);
    1a9c:	80 91 e7 01 	lds	r24, 0x01E7
    1aa0:	82 50       	subi	r24, 0x02	; 2
    1aa2:	0e 94 f3 07 	call	0xfe6	; 0xfe6 <_Z15nastav_rychlosth>
{
	PoziceM1(c_pozice);
	if (c_pozice<8 && c_pozice>2)
	{
		pc<<"nezasahnute"<<endl;
		for (i2=3; i2!=6; i2++)
    1aa6:	80 91 e7 01 	lds	r24, 0x01E7
    1aaa:	8f 5f       	subi	r24, 0xFF	; 255
    1aac:	80 93 e7 01 	sts	0x01E7, r24
    1ab0:	80 91 e7 01 	lds	r24, 0x01E7
    1ab4:	86 30       	cpi	r24, 0x06	; 6
    1ab6:	61 f6       	brne	.-104    	; 0x1a50 <_Z10naberpolozhb+0x2e>
				motor[i].position(pgm_read_word(&(PohybyOstaniMotory[(i-2)][i2])));
			}
			cekej();
			nastav_rychlost(i2-2);
		}
		otevri();
    1ab8:	0e 94 db 0c 	call	0x19b6	; 0x19b6 <_Z6otevriv>
		if (naber)
    1abc:	cc 23       	and	r28, r28
    1abe:	11 f0       	breq	.+4      	; 0x1ac4 <_Z10naberpolozhb+0xa2>
		{
			zavri();
    1ac0:	0e 94 ca 0c 	call	0x1994	; 0x1994 <_Z5zavriv>
		}
		for (i=2; i!=6; i++)
    1ac4:	82 e0       	ldi	r24, 0x02	; 2
    1ac6:	17 c0       	rjmp	.+46     	; 0x1af6 <_Z10naberpolozhb+0xd4>
    1ac8:	e0 93 52 02 	sts	0x0252, r30
		{
			motor[i].position(pgm_read_word(&(PohybyOstaniMotory[(i-2)][3])));
    1acc:	f0 e0       	ldi	r31, 0x00	; 0
    1ace:	32 97       	sbiw	r30, 0x02	; 2
    1ad0:	cf 01       	movw	r24, r30
    1ad2:	88 0f       	add	r24, r24
    1ad4:	99 1f       	adc	r25, r25
    1ad6:	a5 e0       	ldi	r26, 0x05	; 5
    1ad8:	ee 0f       	add	r30, r30
    1ada:	ff 1f       	adc	r31, r31
    1adc:	aa 95       	dec	r26
    1ade:	e1 f7       	brne	.-8      	; 0x1ad8 <_Z10naberpolozhb+0xb6>
    1ae0:	e8 1b       	sub	r30, r24
    1ae2:	f9 0b       	sbc	r31, r25
    1ae4:	e3 59       	subi	r30, 0x93	; 147
    1ae6:	fe 4f       	sbci	r31, 0xFE	; 254
    1ae8:	85 91       	lpm	r24, Z+
    1aea:	94 91       	lpm	r25, Z
    1aec:	0e 94 36 08 	call	0x106c	; 0x106c <_ZN7motor_t8positionERKj.isra.17.constprop.23>
		otevri();
		if (naber)
		{
			zavri();
		}
		for (i=2; i!=6; i++)
    1af0:	80 91 e8 01 	lds	r24, 0x01E8
    1af4:	8f 5f       	subi	r24, 0xFF	; 255
    1af6:	80 93 e8 01 	sts	0x01E8, r24
    1afa:	e0 91 e8 01 	lds	r30, 0x01E8
    1afe:	e6 30       	cpi	r30, 0x06	; 6
    1b00:	19 f7       	brne	.-58     	; 0x1ac8 <_Z10naberpolozhb+0xa6>
    1b02:	5d c0       	rjmp	.+186    	; 0x1bbe <_Z10naberpolozhb+0x19c>
		}
		cekej();		
	} 
	else
	{
		for (i2=0; i2!=3; i2++)
    1b04:	10 92 e7 01 	sts	0x01E7, r1
		{
			for (i=2; i!=6; i++)
    1b08:	d2 e0       	ldi	r29, 0x02	; 2
		}
		cekej();		
	} 
	else
	{
		for (i2=0; i2!=3; i2++)
    1b0a:	30 c0       	rjmp	.+96     	; 0x1b6c <_Z10naberpolozhb+0x14a>
		{
			for (i=2; i!=6; i++)
    1b0c:	d0 93 e8 01 	sts	0x01E8, r29
    1b10:	1d c0       	rjmp	.+58     	; 0x1b4c <_Z10naberpolozhb+0x12a>
    1b12:	80 93 52 02 	sts	0x0252, r24
			{
				motor[i].position(pgm_read_word(&(PohybyOstaniMotory[(i-2)][i2])));
    1b16:	20 91 e7 01 	lds	r18, 0x01E7
    1b1a:	90 e0       	ldi	r25, 0x00	; 0
    1b1c:	02 97       	sbiw	r24, 0x02	; 2
    1b1e:	fc 01       	movw	r30, r24
    1b20:	54 e0       	ldi	r21, 0x04	; 4
    1b22:	ee 0f       	add	r30, r30
    1b24:	ff 1f       	adc	r31, r31
    1b26:	5a 95       	dec	r21
    1b28:	e1 f7       	brne	.-8      	; 0x1b22 <_Z10naberpolozhb+0x100>
    1b2a:	e8 1b       	sub	r30, r24
    1b2c:	f9 0b       	sbc	r31, r25
    1b2e:	e2 0f       	add	r30, r18
    1b30:	f1 1d       	adc	r31, r1
    1b32:	ee 0f       	add	r30, r30
    1b34:	ff 1f       	adc	r31, r31
    1b36:	e9 59       	subi	r30, 0x99	; 153
    1b38:	fe 4f       	sbci	r31, 0xFE	; 254
    1b3a:	85 91       	lpm	r24, Z+
    1b3c:	94 91       	lpm	r25, Z
    1b3e:	0e 94 36 08 	call	0x106c	; 0x106c <_ZN7motor_t8positionERKj.isra.17.constprop.23>
	} 
	else
	{
		for (i2=0; i2!=3; i2++)
		{
			for (i=2; i!=6; i++)
    1b42:	80 91 e8 01 	lds	r24, 0x01E8
    1b46:	8f 5f       	subi	r24, 0xFF	; 255
    1b48:	80 93 e8 01 	sts	0x01E8, r24
    1b4c:	80 91 e8 01 	lds	r24, 0x01E8
    1b50:	86 30       	cpi	r24, 0x06	; 6
    1b52:	f9 f6       	brne	.-66     	; 0x1b12 <_Z10naberpolozhb+0xf0>
			{
				motor[i].position(pgm_read_word(&(PohybyOstaniMotory[(i-2)][i2])));
			}
			cekej();
    1b54:	0e 94 6e 0c 	call	0x18dc	; 0x18dc <_Z5cekejv>
			nastav_rychlost(i2+1);
    1b58:	80 91 e7 01 	lds	r24, 0x01E7
    1b5c:	8f 5f       	subi	r24, 0xFF	; 255
    1b5e:	0e 94 f3 07 	call	0xfe6	; 0xfe6 <_Z15nastav_rychlosth>
		}
		cekej();		
	} 
	else
	{
		for (i2=0; i2!=3; i2++)
    1b62:	80 91 e7 01 	lds	r24, 0x01E7
    1b66:	8f 5f       	subi	r24, 0xFF	; 255
    1b68:	80 93 e7 01 	sts	0x01E7, r24
    1b6c:	80 91 e7 01 	lds	r24, 0x01E7
    1b70:	83 30       	cpi	r24, 0x03	; 3
    1b72:	61 f6       	brne	.-104    	; 0x1b0c <_Z10naberpolozhb+0xea>
				motor[i].position(pgm_read_word(&(PohybyOstaniMotory[(i-2)][i2])));
			}
			cekej();
			nastav_rychlost(i2+1);
		}
		otevri();
    1b74:	0e 94 db 0c 	call	0x19b6	; 0x19b6 <_Z6otevriv>
		if (naber)
    1b78:	cc 23       	and	r28, r28
    1b7a:	11 f0       	breq	.+4      	; 0x1b80 <_Z10naberpolozhb+0x15e>
		{
			zavri();
    1b7c:	0e 94 ca 0c 	call	0x1994	; 0x1994 <_Z5zavriv>
		}
		for (i=2; i!=6; i++)
    1b80:	82 e0       	ldi	r24, 0x02	; 2
    1b82:	17 c0       	rjmp	.+46     	; 0x1bb2 <_Z10naberpolozhb+0x190>
    1b84:	e0 93 52 02 	sts	0x0252, r30
		{
			motor[i].position(pgm_read_word(&(PohybyOstaniMotory[(i-2)][0])));
    1b88:	f0 e0       	ldi	r31, 0x00	; 0
    1b8a:	32 97       	sbiw	r30, 0x02	; 2
    1b8c:	cf 01       	movw	r24, r30
    1b8e:	88 0f       	add	r24, r24
    1b90:	99 1f       	adc	r25, r25
    1b92:	45 e0       	ldi	r20, 0x05	; 5
    1b94:	ee 0f       	add	r30, r30
    1b96:	ff 1f       	adc	r31, r31
    1b98:	4a 95       	dec	r20
    1b9a:	e1 f7       	brne	.-8      	; 0x1b94 <_Z10naberpolozhb+0x172>
    1b9c:	e8 1b       	sub	r30, r24
    1b9e:	f9 0b       	sbc	r31, r25
    1ba0:	e9 59       	subi	r30, 0x99	; 153
    1ba2:	fe 4f       	sbci	r31, 0xFE	; 254
    1ba4:	85 91       	lpm	r24, Z+
    1ba6:	94 91       	lpm	r25, Z
    1ba8:	0e 94 36 08 	call	0x106c	; 0x106c <_ZN7motor_t8positionERKj.isra.17.constprop.23>
		otevri();
		if (naber)
		{
			zavri();
		}
		for (i=2; i!=6; i++)
    1bac:	80 91 e8 01 	lds	r24, 0x01E8
    1bb0:	8f 5f       	subi	r24, 0xFF	; 255
    1bb2:	80 93 e8 01 	sts	0x01E8, r24
    1bb6:	e0 91 e8 01 	lds	r30, 0x01E8
    1bba:	e6 30       	cpi	r30, 0x06	; 6
    1bbc:	19 f7       	brne	.-58     	; 0x1b84 <_Z10naberpolozhb+0x162>
		{
			motor[i].position(pgm_read_word(&(PohybyOstaniMotory[(i-2)][0])));
		}
		cekej();
    1bbe:	0e 94 6e 0c 	call	0x18dc	; 0x18dc <_Z5cekejv>
	}
	nastav_rychlost(1);
    1bc2:	81 e0       	ldi	r24, 0x01	; 1
    1bc4:	0e 94 f3 07 	call	0xfe6	; 0xfe6 <_Z15nastav_rychlosth>
}	
    1bc8:	df 91       	pop	r29
    1bca:	cf 91       	pop	r28
    1bcc:	08 95       	ret

00001bce <_Z5polozh>:
	naberpoloz(c_pozice, true);
}

void poloz(uint8_t c_pozice)				//polozi figurku na pozici
{
	naberpoloz(c_pozice, false);
    1bce:	60 e0       	ldi	r22, 0x00	; 0
    1bd0:	0e 94 11 0d 	call	0x1a22	; 0x1a22 <_Z10naberpolozhb>
}
    1bd4:	08 95       	ret

00001bd6 <_Z5naberh>:
	nastav_rychlost(1);
}	

void naber(uint8_t c_pozice)				//nabere figurku na pozici
{
	naberpoloz(c_pozice, true);
    1bd6:	61 e0       	ldi	r22, 0x01	; 1
    1bd8:	0e 94 11 0d 	call	0x1a22	; 0x1a22 <_Z10naberpolozhb>
}
    1bdc:	08 95       	ret

00001bde <_Z15zakladni_pozicev>:
	}
}

void zakladni_pozice()					// nastavi motory do zakladni pozice
{
	for(i=0; i!=pocet_motoru; i++)
    1bde:	10 92 e8 01 	sts	0x01E8, r1
    1be2:	12 c0       	rjmp	.+36     	; 0x1c08 <_Z15zakladni_pozicev+0x2a>
	{
		motor[i+1].position(pgm_read_word(&(VychoziPozice[(i)])));
    1be4:	8e 2f       	mov	r24, r30
    1be6:	8f 5f       	subi	r24, 0xFF	; 255
    1be8:	80 93 52 02 	sts	0x0252, r24
    1bec:	f0 e0       	ldi	r31, 0x00	; 0
    1bee:	ee 0f       	add	r30, r30
    1bf0:	ff 1f       	adc	r31, r31
    1bf2:	e3 5f       	subi	r30, 0xF3	; 243
    1bf4:	fe 4f       	sbci	r31, 0xFE	; 254
    1bf6:	85 91       	lpm	r24, Z+
    1bf8:	94 91       	lpm	r25, Z
    1bfa:	0e 94 36 08 	call	0x106c	; 0x106c <_ZN7motor_t8positionERKj.isra.17.constprop.23>
	}
}

void zakladni_pozice()					// nastavi motory do zakladni pozice
{
	for(i=0; i!=pocet_motoru; i++)
    1bfe:	80 91 e8 01 	lds	r24, 0x01E8
    1c02:	8f 5f       	subi	r24, 0xFF	; 255
    1c04:	80 93 e8 01 	sts	0x01E8, r24
    1c08:	e0 91 e8 01 	lds	r30, 0x01E8
    1c0c:	e7 30       	cpi	r30, 0x07	; 7
    1c0e:	51 f7       	brne	.-44     	; 0x1be4 <_Z15zakladni_pozicev+0x6>
	{
		motor[i+1].position(pgm_read_word(&(VychoziPozice[(i)])));
	}
	cekej();
    1c10:	0e 94 6e 0c 	call	0x18dc	; 0x18dc <_Z5cekejv>
}
    1c14:	08 95       	ret

00001c16 <_Z13nastav_torquev>:
	}
}

void nastav_torque()
{
	for(i=0; i!=pocet_motoru; i++)
    1c16:	10 92 e8 01 	sts	0x01E8, r1
    1c1a:	14 c0       	rjmp	.+40     	; 0x1c44 <_Z13nastav_torquev+0x2e>
	{
		motor[i+1].torqueLimit(1000);
    1c1c:	6f 5f       	subi	r22, 0xFF	; 255
    1c1e:	60 93 52 02 	sts	0x0252, r22
		m_error.push(bus.writeByte(currentID, P_TORQUE_LIMIT_L, limit));
		return *this;
	}
	motor_t & torqueLimit(const int16_t &limit = 1023)
	{
		m_error.push(bus.writeWord(currentID, P_TORQUE_LIMIT_L, ((uint16_t)(limit))));
    1c22:	88 eb       	ldi	r24, 0xB8	; 184
    1c24:	92 e0       	ldi	r25, 0x02	; 2
    1c26:	42 e2       	ldi	r20, 0x22	; 34
    1c28:	28 ee       	ldi	r18, 0xE8	; 232
    1c2a:	33 e0       	ldi	r19, 0x03	; 3
    1c2c:	0e 94 b6 07 	call	0xf6c	; 0xf6c <_ZN11dynamixel_t9writeWordEhhj>
    1c30:	68 2f       	mov	r22, r24
    1c32:	83 e5       	ldi	r24, 0x53	; 83
    1c34:	92 e0       	ldi	r25, 0x02	; 2
    1c36:	0e 94 12 06 	call	0xc24	; 0xc24 <_ZN5queueIhLj96EE4pushEh>
	}
}

void nastav_torque()
{
	for(i=0; i!=pocet_motoru; i++)
    1c3a:	80 91 e8 01 	lds	r24, 0x01E8
    1c3e:	8f 5f       	subi	r24, 0xFF	; 255
    1c40:	80 93 e8 01 	sts	0x01E8, r24
    1c44:	60 91 e8 01 	lds	r22, 0x01E8
    1c48:	67 30       	cpi	r22, 0x07	; 7
    1c4a:	41 f7       	brne	.-48     	; 0x1c1c <_Z13nastav_torquev+0x6>
	{
		motor[i+1].torqueLimit(1000);
	}
	for(i=0; i!=pocet_motoru; i++)
    1c4c:	10 92 e8 01 	sts	0x01E8, r1
    1c50:	13 c0       	rjmp	.+38     	; 0x1c78 <_Z13nastav_torquev+0x62>
	{
		motor[i+1].setTorque();
    1c52:	6f 5f       	subi	r22, 0xFF	; 255
		m_error.overwrite = true;
	}

	motor_t &operator [] (const uint8_t &id)
	{
		currentID = id;
    1c54:	60 93 52 02 	sts	0x0252, r22
	{
		return m_error.pop();
	}
	motor_t & setTorque()
	{
		m_error.push(bus.writeByte(currentID, P_TORQUE_ENABLE, 1));
    1c58:	88 eb       	ldi	r24, 0xB8	; 184
    1c5a:	92 e0       	ldi	r25, 0x02	; 2
    1c5c:	48 e1       	ldi	r20, 0x18	; 24
    1c5e:	21 e0       	ldi	r18, 0x01	; 1
    1c60:	0e 94 c3 0b 	call	0x1786	; 0x1786 <_ZN11dynamixel_t9writeByteEhhh>
    1c64:	68 2f       	mov	r22, r24
    1c66:	83 e5       	ldi	r24, 0x53	; 83
    1c68:	92 e0       	ldi	r25, 0x02	; 2
    1c6a:	0e 94 12 06 	call	0xc24	; 0xc24 <_ZN5queueIhLj96EE4pushEh>
{
	for(i=0; i!=pocet_motoru; i++)
	{
		motor[i+1].torqueLimit(1000);
	}
	for(i=0; i!=pocet_motoru; i++)
    1c6e:	80 91 e8 01 	lds	r24, 0x01E8
    1c72:	8f 5f       	subi	r24, 0xFF	; 255
    1c74:	80 93 e8 01 	sts	0x01E8, r24
    1c78:	60 91 e8 01 	lds	r22, 0x01E8
    1c7c:	67 30       	cpi	r22, 0x07	; 7
    1c7e:	49 f7       	brne	.-46     	; 0x1c52 <_Z13nastav_torquev+0x3c>
	{
		motor[i+1].setTorque();
	}
	cekej();
    1c80:	0e 94 6e 0c 	call	0x18dc	; 0x18dc <_Z5cekejv>
	
}
    1c84:	08 95       	ret

00001c86 <_Z11test_pozicev>:

void test_pozice()
{
    1c86:	cf 93       	push	r28
    1c88:	df 93       	push	r29
    1c8a:	cd b7       	in	r28, 0x3d	; 61
    1c8c:	de b7       	in	r29, 0x3e	; 62
    1c8e:	2e 97       	sbiw	r28, 0x0e	; 14
    1c90:	0f b6       	in	r0, 0x3f	; 63
    1c92:	f8 94       	cli
    1c94:	de bf       	out	0x3e, r29	; 62
    1c96:	0f be       	out	0x3f, r0	; 63
    1c98:	cd bf       	out	0x3d, r28	; 61
	uint16_t pozice_moturu[7]
	{512,	512,	512,	512,	512,	512,	512};
    1c9a:	de 01       	movw	r26, r28
    1c9c:	11 96       	adiw	r26, 0x01	; 1
    1c9e:	ee e6       	ldi	r30, 0x6E	; 110
    1ca0:	f1 e0       	ldi	r31, 0x01	; 1
    1ca2:	8e e0       	ldi	r24, 0x0E	; 14
    1ca4:	01 90       	ld	r0, Z+
    1ca6:	0d 92       	st	X+, r0
    1ca8:	81 50       	subi	r24, 0x01	; 1
    1caa:	e1 f7       	brne	.-8      	; 0x1ca4 <_Z11test_pozicev+0x1e>
	for(i=1;i!=7;i++)
    1cac:	81 e0       	ldi	r24, 0x01	; 1
    1cae:	16 c0       	rjmp	.+44     	; 0x1cdc <_Z11test_pozicev+0x56>
		m_error.overwrite = true;
	}

	motor_t &operator [] (const uint8_t &id)
	{
		currentID = id;
    1cb0:	00 93 52 02 	sts	0x0252, r16
	{
		pozice_moturu[i-1]=motor[i].position();
    1cb4:	82 e5       	ldi	r24, 0x52	; 82
    1cb6:	92 e0       	ldi	r25, 0x02	; 2
    1cb8:	0e 94 18 0c 	call	0x1830	; 0x1830 <_ZN7motor_t8positionEv>
    1cbc:	e0 2f       	mov	r30, r16
    1cbe:	f0 e0       	ldi	r31, 0x00	; 0
    1cc0:	31 97       	sbiw	r30, 0x01	; 1
    1cc2:	ee 0f       	add	r30, r30
    1cc4:	ff 1f       	adc	r31, r31
    1cc6:	21 e0       	ldi	r18, 0x01	; 1
    1cc8:	30 e0       	ldi	r19, 0x00	; 0
    1cca:	2c 0f       	add	r18, r28
    1ccc:	3d 1f       	adc	r19, r29
    1cce:	e2 0f       	add	r30, r18
    1cd0:	f3 1f       	adc	r31, r19
    1cd2:	91 83       	std	Z+1, r25	; 0x01
    1cd4:	80 83       	st	Z, r24

void test_pozice()
{
	uint16_t pozice_moturu[7]
	{512,	512,	512,	512,	512,	512,	512};
	for(i=1;i!=7;i++)
    1cd6:	80 91 e8 01 	lds	r24, 0x01E8
    1cda:	8f 5f       	subi	r24, 0xFF	; 255
    1cdc:	80 93 e8 01 	sts	0x01E8, r24
    1ce0:	00 91 e8 01 	lds	r16, 0x01E8
    1ce4:	07 30       	cpi	r16, 0x07	; 7
    1ce6:	21 f7       	brne	.-56     	; 0x1cb0 <_Z11test_pozicev+0x2a>
    1ce8:	55 e0       	ldi	r21, 0x05	; 5
    1cea:	f5 2e       	mov	r15, r21
    1cec:	63 e0       	ldi	r22, 0x03	; 3
    1cee:	e6 2e       	mov	r14, r22
    1cf0:	74 e0       	ldi	r23, 0x04	; 4
    1cf2:	d7 2e       	mov	r13, r23
    1cf4:	e2 e0       	ldi	r30, 0x02	; 2
    1cf6:	ce 2e       	mov	r12, r30
    1cf8:	f6 e0       	ldi	r31, 0x06	; 6
    1cfa:	bf 2e       	mov	r11, r31
    1cfc:	a7 e0       	ldi	r26, 0x07	; 7
    1cfe:	aa 2e       	mov	r10, r26
	while(true)
	{
		
		
		char x;
		x=pc.get();
    1d00:	86 e8       	ldi	r24, 0x86	; 134
    1d02:	93 e0       	ldi	r25, 0x03	; 3
    1d04:	0e 94 94 03 	call	0x728	; 0x728 <_ZN8USART1_t3getEv>
		switch(x)
    1d08:	8a 36       	cpi	r24, 0x6A	; 106
    1d0a:	09 f4       	brne	.+2      	; 0x1d0e <_Z11test_pozicev+0x88>
    1d0c:	5b c0       	rjmp	.+182    	; 0x1dc4 <_Z11test_pozicev+0x13e>
    1d0e:	8b 36       	cpi	r24, 0x6B	; 107
    1d10:	90 f4       	brcc	.+36     	; 0x1d36 <_Z11test_pozicev+0xb0>
    1d12:	86 36       	cpi	r24, 0x66	; 102
    1d14:	99 f1       	breq	.+102    	; 0x1d7c <_Z11test_pozicev+0xf6>
    1d16:	87 36       	cpi	r24, 0x67	; 103
    1d18:	38 f4       	brcc	.+14     	; 0x1d28 <_Z11test_pozicev+0xa2>
    1d1a:	84 36       	cpi	r24, 0x64	; 100
    1d1c:	01 f1       	breq	.+64     	; 0x1d5e <_Z11test_pozicev+0xd8>
    1d1e:	85 36       	cpi	r24, 0x65	; 101
    1d20:	10 f5       	brcc	.+68     	; 0x1d66 <_Z11test_pozicev+0xe0>
    1d22:	81 36       	cpi	r24, 0x61	; 97
    1d24:	69 f7       	brne	.-38     	; 0x1d00 <_Z11test_pozicev+0x7a>
    1d26:	80 c0       	rjmp	.+256    	; 0x1e28 <_Z11test_pozicev+0x1a2>
    1d28:	88 36       	cpi	r24, 0x68	; 104
    1d2a:	09 f4       	brne	.+2      	; 0x1d2e <_Z11test_pozicev+0xa8>
    1d2c:	3f c0       	rjmp	.+126    	; 0x1dac <_Z11test_pozicev+0x126>
    1d2e:	89 36       	cpi	r24, 0x69	; 105
    1d30:	08 f0       	brcs	.+2      	; 0x1d34 <_Z11test_pozicev+0xae>
    1d32:	63 c0       	rjmp	.+198    	; 0x1dfa <_Z11test_pozicev+0x174>
    1d34:	2f c0       	rjmp	.+94     	; 0x1d94 <_Z11test_pozicev+0x10e>
    1d36:	84 37       	cpi	r24, 0x74	; 116
    1d38:	89 f1       	breq	.+98     	; 0x1d9c <_Z11test_pozicev+0x116>
    1d3a:	85 37       	cpi	r24, 0x75	; 117
    1d3c:	40 f4       	brcc	.+16     	; 0x1d4e <_Z11test_pozicev+0xc8>
    1d3e:	81 37       	cpi	r24, 0x71	; 113
    1d40:	09 f4       	brne	.+2      	; 0x1d44 <_Z11test_pozicev+0xbe>
    1d42:	6c c0       	rjmp	.+216    	; 0x1e1c <_Z11test_pozicev+0x196>
    1d44:	82 37       	cpi	r24, 0x72	; 114
    1d46:	f1 f0       	breq	.+60     	; 0x1d84 <_Z11test_pozicev+0xfe>
    1d48:	8b 36       	cpi	r24, 0x6B	; 107
    1d4a:	d1 f6       	brne	.-76     	; 0x1d00 <_Z11test_pozicev+0x7a>
    1d4c:	47 c0       	rjmp	.+142    	; 0x1ddc <_Z11test_pozicev+0x156>
    1d4e:	87 37       	cpi	r24, 0x77	; 119
    1d50:	09 f4       	brne	.+2      	; 0x1d54 <_Z11test_pozicev+0xce>
    1d52:	67 c0       	rjmp	.+206    	; 0x1e22 <_Z11test_pozicev+0x19c>
    1d54:	8a 37       	cpi	r24, 0x7A	; 122
    1d56:	71 f1       	breq	.+92     	; 0x1db4 <_Z11test_pozicev+0x12e>
    1d58:	85 37       	cpi	r24, 0x75	; 117
    1d5a:	91 f6       	brne	.-92     	; 0x1d00 <_Z11test_pozicev+0x7a>
    1d5c:	37 c0       	rjmp	.+110    	; 0x1dcc <_Z11test_pozicev+0x146>
		{
			case 'd':pozice_moturu[0]-=3;motor[1].position(pozice_moturu[0]);break;
    1d5e:	89 81       	ldd	r24, Y+1	; 0x01
    1d60:	9a 81       	ldd	r25, Y+2	; 0x02
    1d62:	03 97       	sbiw	r24, 0x03	; 3
    1d64:	03 c0       	rjmp	.+6      	; 0x1d6c <_Z11test_pozicev+0xe6>
			case 'e':pozice_moturu[0]+=3;motor[1].position(pozice_moturu[0]);break;
    1d66:	89 81       	ldd	r24, Y+1	; 0x01
    1d68:	9a 81       	ldd	r25, Y+2	; 0x02
    1d6a:	03 96       	adiw	r24, 0x03	; 3
    1d6c:	9a 83       	std	Y+2, r25	; 0x02
    1d6e:	89 83       	std	Y+1, r24	; 0x01
    1d70:	21 e0       	ldi	r18, 0x01	; 1
    1d72:	20 93 52 02 	sts	0x0252, r18
    1d76:	0e 94 36 08 	call	0x106c	; 0x106c <_ZN7motor_t8positionERKj.isra.17.constprop.23>
    1d7a:	c2 cf       	rjmp	.-124    	; 0x1d00 <_Z11test_pozicev+0x7a>
			case 'f':pozice_moturu[1]-=3;motor[2].position(pozice_moturu[1]);break;
    1d7c:	8b 81       	ldd	r24, Y+3	; 0x03
    1d7e:	9c 81       	ldd	r25, Y+4	; 0x04
    1d80:	03 97       	sbiw	r24, 0x03	; 3
    1d82:	03 c0       	rjmp	.+6      	; 0x1d8a <_Z11test_pozicev+0x104>
			case 'r':pozice_moturu[1]+=3;motor[2].position(pozice_moturu[1]);break;
    1d84:	8b 81       	ldd	r24, Y+3	; 0x03
    1d86:	9c 81       	ldd	r25, Y+4	; 0x04
    1d88:	03 96       	adiw	r24, 0x03	; 3
    1d8a:	9c 83       	std	Y+4, r25	; 0x04
    1d8c:	8b 83       	std	Y+3, r24	; 0x03
    1d8e:	c0 92 52 02 	sts	0x0252, r12
    1d92:	f1 cf       	rjmp	.-30     	; 0x1d76 <_Z11test_pozicev+0xf0>
			case 'g':pozice_moturu[2]-=3;motor[3].position(pozice_moturu[2]);break;
    1d94:	8d 81       	ldd	r24, Y+5	; 0x05
    1d96:	9e 81       	ldd	r25, Y+6	; 0x06
    1d98:	03 97       	sbiw	r24, 0x03	; 3
    1d9a:	03 c0       	rjmp	.+6      	; 0x1da2 <_Z11test_pozicev+0x11c>
			case 't':pozice_moturu[2]+=3;motor[3].position(pozice_moturu[2]);break;
    1d9c:	8d 81       	ldd	r24, Y+5	; 0x05
    1d9e:	9e 81       	ldd	r25, Y+6	; 0x06
    1da0:	03 96       	adiw	r24, 0x03	; 3
    1da2:	9e 83       	std	Y+6, r25	; 0x06
    1da4:	8d 83       	std	Y+5, r24	; 0x05
    1da6:	e0 92 52 02 	sts	0x0252, r14
    1daa:	e5 cf       	rjmp	.-54     	; 0x1d76 <_Z11test_pozicev+0xf0>
			case 'h':pozice_moturu[3]-=3;motor[4].position(pozice_moturu[3]);break;
    1dac:	8f 81       	ldd	r24, Y+7	; 0x07
    1dae:	98 85       	ldd	r25, Y+8	; 0x08
    1db0:	03 97       	sbiw	r24, 0x03	; 3
    1db2:	03 c0       	rjmp	.+6      	; 0x1dba <_Z11test_pozicev+0x134>
			case 'z':pozice_moturu[3]+=3;motor[4].position(pozice_moturu[3]);break;
    1db4:	8f 81       	ldd	r24, Y+7	; 0x07
    1db6:	98 85       	ldd	r25, Y+8	; 0x08
    1db8:	03 96       	adiw	r24, 0x03	; 3
    1dba:	98 87       	std	Y+8, r25	; 0x08
    1dbc:	8f 83       	std	Y+7, r24	; 0x07
    1dbe:	d0 92 52 02 	sts	0x0252, r13
    1dc2:	d9 cf       	rjmp	.-78     	; 0x1d76 <_Z11test_pozicev+0xf0>
			case 'j':pozice_moturu[4]-=3;motor[5].position(pozice_moturu[4]);break;
    1dc4:	89 85       	ldd	r24, Y+9	; 0x09
    1dc6:	9a 85       	ldd	r25, Y+10	; 0x0a
    1dc8:	03 97       	sbiw	r24, 0x03	; 3
    1dca:	03 c0       	rjmp	.+6      	; 0x1dd2 <_Z11test_pozicev+0x14c>
			case 'u':pozice_moturu[4]+=3;motor[5].position(pozice_moturu[4]);break;
    1dcc:	89 85       	ldd	r24, Y+9	; 0x09
    1dce:	9a 85       	ldd	r25, Y+10	; 0x0a
    1dd0:	03 96       	adiw	r24, 0x03	; 3
    1dd2:	9a 87       	std	Y+10, r25	; 0x0a
    1dd4:	89 87       	std	Y+9, r24	; 0x09
    1dd6:	f0 92 52 02 	sts	0x0252, r15
    1dda:	cd cf       	rjmp	.-102    	; 0x1d76 <_Z11test_pozicev+0xf0>
			case 'k':pozice_moturu[5]-=3;motor[6].position(pozice_moturu[5]);motor[7].position(1024-pozice_moturu[5]);break;
    1ddc:	0b 85       	ldd	r16, Y+11	; 0x0b
    1dde:	1c 85       	ldd	r17, Y+12	; 0x0c
    1de0:	c8 01       	movw	r24, r16
    1de2:	03 97       	sbiw	r24, 0x03	; 3
    1de4:	9c 87       	std	Y+12, r25	; 0x0c
    1de6:	8b 87       	std	Y+11, r24	; 0x0b
    1de8:	b0 92 52 02 	sts	0x0252, r11
    1dec:	0e 94 36 08 	call	0x106c	; 0x106c <_ZN7motor_t8positionERKj.isra.17.constprop.23>
    1df0:	a0 92 52 02 	sts	0x0252, r10
    1df4:	83 e0       	ldi	r24, 0x03	; 3
    1df6:	94 e0       	ldi	r25, 0x04	; 4
    1df8:	0e c0       	rjmp	.+28     	; 0x1e16 <_Z11test_pozicev+0x190>
			case 'i':pozice_moturu[5]+=3;motor[6].position(pozice_moturu[5]);motor[7].position(1024-pozice_moturu[5]);break;
    1dfa:	0b 85       	ldd	r16, Y+11	; 0x0b
    1dfc:	1c 85       	ldd	r17, Y+12	; 0x0c
    1dfe:	c8 01       	movw	r24, r16
    1e00:	03 96       	adiw	r24, 0x03	; 3
    1e02:	9c 87       	std	Y+12, r25	; 0x0c
    1e04:	8b 87       	std	Y+11, r24	; 0x0b
    1e06:	b0 92 52 02 	sts	0x0252, r11
    1e0a:	0e 94 36 08 	call	0x106c	; 0x106c <_ZN7motor_t8positionERKj.isra.17.constprop.23>
    1e0e:	a0 92 52 02 	sts	0x0252, r10
    1e12:	8d ef       	ldi	r24, 0xFD	; 253
    1e14:	93 e0       	ldi	r25, 0x03	; 3
    1e16:	80 1b       	sub	r24, r16
    1e18:	91 0b       	sbc	r25, r17
    1e1a:	ad cf       	rjmp	.-166    	; 0x1d76 <_Z11test_pozicev+0xf0>
			case 'q':povol();break;
    1e1c:	0e 94 fd 0b 	call	0x17fa	; 0x17fa <_Z5povolv>
    1e20:	6f cf       	rjmp	.-290    	; 0x1d00 <_Z11test_pozicev+0x7a>
			case 'w':nastav_torque();break;
    1e22:	0e 94 0b 0e 	call	0x1c16	; 0x1c16 <_Z13nastav_torquev>
    1e26:	6c cf       	rjmp	.-296    	; 0x1d00 <_Z11test_pozicev+0x7a>
			case 'a':for(i=1;i<7;i++)pc<<"Motor"<<i<<":"<<motor[i].position()<<endl<<endl;for(i=1;i!=7;i++)pozice_moturu[i-1]=motor[i].position();break;
    1e28:	81 e0       	ldi	r24, 0x01	; 1
    1e2a:	2f c0       	rjmp	.+94     	; 0x1e8a <_Z11test_pozicev+0x204>
		sendChar(ch);
		return *this;
	}
	USART1_t &operator << (const char *ch)
	{
		send(ch);
    1e2c:	86 e6       	ldi	r24, 0x66	; 102
    1e2e:	91 e0       	ldi	r25, 0x01	; 1
    1e30:	0e 94 0e 03 	call	0x61c	; 0x61c <_ZN8USART1_t4sendEPKc.constprop.22>
		sendNumber(n, numbersSpaces);
		return *this;
	}
	USART1_t &operator << (const uint8_t &n)
	{
		sendNumber(n, numbersSpaces);
    1e34:	40 91 e8 01 	lds	r20, 0x01E8
    1e38:	50 e0       	ldi	r21, 0x00	; 0
    1e3a:	60 e0       	ldi	r22, 0x00	; 0
    1e3c:	70 e0       	ldi	r23, 0x00	; 0
    1e3e:	86 e8       	ldi	r24, 0x86	; 134
    1e40:	93 e0       	ldi	r25, 0x03	; 3
    1e42:	20 91 50 04 	lds	r18, 0x0450
    1e46:	0e 94 5c 02 	call	0x4b8	; 0x4b8 <_ZN8USART1_t10sendNumberElh>
		sendChar(ch);
		return *this;
	}
	USART1_t &operator << (const char *ch)
	{
		send(ch);
    1e4a:	8c e6       	ldi	r24, 0x6C	; 108
    1e4c:	91 e0       	ldi	r25, 0x01	; 1
    1e4e:	0e 94 0e 03 	call	0x61c	; 0x61c <_ZN8USART1_t4sendEPKc.constprop.22>
		m_error.overwrite = true;
	}

	motor_t &operator [] (const uint8_t &id)
	{
		currentID = id;
    1e52:	80 91 e8 01 	lds	r24, 0x01E8
    1e56:	80 93 52 02 	sts	0x0252, r24
    1e5a:	82 e5       	ldi	r24, 0x52	; 82
    1e5c:	92 e0       	ldi	r25, 0x02	; 2
    1e5e:	0e 94 18 0c 	call	0x1830	; 0x1830 <_ZN7motor_t8positionEv>
		sendNumber(n, numbersSpaces);
		return *this;
	}
	USART1_t &operator << (const uint16_t &n)
	{
		sendNumber(n, numbersSpaces);
    1e62:	ac 01       	movw	r20, r24
    1e64:	60 e0       	ldi	r22, 0x00	; 0
    1e66:	70 e0       	ldi	r23, 0x00	; 0
    1e68:	86 e8       	ldi	r24, 0x86	; 134
    1e6a:	93 e0       	ldi	r25, 0x03	; 3
    1e6c:	20 91 50 04 	lds	r18, 0x0450
    1e70:	0e 94 5c 02 	call	0x4b8	; 0x4b8 <_ZN8USART1_t10sendNumberElh>
		sendChar(ch);
		return *this;
	}
	USART1_t &operator << (const char *ch)
	{
		send(ch);
    1e74:	8b e0       	ldi	r24, 0x0B	; 11
    1e76:	91 e0       	ldi	r25, 0x01	; 1
    1e78:	0e 94 0e 03 	call	0x61c	; 0x61c <_ZN8USART1_t4sendEPKc.constprop.22>
    1e7c:	8b e0       	ldi	r24, 0x0B	; 11
    1e7e:	91 e0       	ldi	r25, 0x01	; 1
    1e80:	0e 94 0e 03 	call	0x61c	; 0x61c <_ZN8USART1_t4sendEPKc.constprop.22>
    1e84:	80 91 e8 01 	lds	r24, 0x01E8
    1e88:	8f 5f       	subi	r24, 0xFF	; 255
    1e8a:	80 93 e8 01 	sts	0x01E8, r24
    1e8e:	80 91 e8 01 	lds	r24, 0x01E8
    1e92:	87 30       	cpi	r24, 0x07	; 7
    1e94:	58 f2       	brcs	.-106    	; 0x1e2c <_Z11test_pozicev+0x1a6>
    1e96:	81 e0       	ldi	r24, 0x01	; 1
    1e98:	16 c0       	rjmp	.+44     	; 0x1ec6 <_Z11test_pozicev+0x240>
		m_error.overwrite = true;
	}

	motor_t &operator [] (const uint8_t &id)
	{
		currentID = id;
    1e9a:	00 93 52 02 	sts	0x0252, r16
    1e9e:	82 e5       	ldi	r24, 0x52	; 82
    1ea0:	92 e0       	ldi	r25, 0x02	; 2
    1ea2:	0e 94 18 0c 	call	0x1830	; 0x1830 <_ZN7motor_t8positionEv>
    1ea6:	e0 2f       	mov	r30, r16
    1ea8:	f0 e0       	ldi	r31, 0x00	; 0
    1eaa:	31 97       	sbiw	r30, 0x01	; 1
    1eac:	ee 0f       	add	r30, r30
    1eae:	ff 1f       	adc	r31, r31
    1eb0:	21 e0       	ldi	r18, 0x01	; 1
    1eb2:	30 e0       	ldi	r19, 0x00	; 0
    1eb4:	2c 0f       	add	r18, r28
    1eb6:	3d 1f       	adc	r19, r29
    1eb8:	e2 0f       	add	r30, r18
    1eba:	f3 1f       	adc	r31, r19
    1ebc:	91 83       	std	Z+1, r25	; 0x01
    1ebe:	80 83       	st	Z, r24
    1ec0:	80 91 e8 01 	lds	r24, 0x01E8
    1ec4:	8f 5f       	subi	r24, 0xFF	; 255
    1ec6:	80 93 e8 01 	sts	0x01E8, r24
    1eca:	00 91 e8 01 	lds	r16, 0x01E8
    1ece:	07 30       	cpi	r16, 0x07	; 7
    1ed0:	21 f7       	brne	.-56     	; 0x1e9a <_Z11test_pozicev+0x214>
    1ed2:	16 cf       	rjmp	.-468    	; 0x1d00 <_Z11test_pozicev+0x7a>

00001ed4 <_Z3runv>:

*/

void run()
{
	povol();
    1ed4:	0e 94 fd 0b 	call	0x17fa	; 0x17fa <_Z5povolv>
while(!buttons.isStart())
    1ed8:	80 99       	sbic	0x10, 0	; 16
    1eda:	fe cf       	rjmp	.-4      	; 0x1ed8 <_Z3runv+0x4>
{}
	nastav_torque();
    1edc:	0e 94 0b 0e 	call	0x1c16	; 0x1c16 <_Z13nastav_torquev>
		sendChar(ch);
		return *this;
	}
	USART1_t &operator << (const char *ch)
	{
		send(ch);
    1ee0:	8c e7       	ldi	r24, 0x7C	; 124
    1ee2:	91 e0       	ldi	r25, 0x01	; 1
    1ee4:	0e 94 0e 03 	call	0x61c	; 0x61c <_ZN8USART1_t4sendEPKc.constprop.22>
    1ee8:	8b e0       	ldi	r24, 0x0B	; 11
    1eea:	91 e0       	ldi	r25, 0x01	; 1
    1eec:	0e 94 0e 03 	call	0x61c	; 0x61c <_ZN8USART1_t4sendEPKc.constprop.22>
	uint8_t kostka_hod;
			pc<<"jedu"<<endl;
	inicializace();
    1ef0:	0e 94 cb 01 	call	0x396	; 0x396 <_Z12inicializacev>
    1ef4:	81 e8       	ldi	r24, 0x81	; 129
    1ef6:	91 e0       	ldi	r25, 0x01	; 1
    1ef8:	0e 94 0e 03 	call	0x61c	; 0x61c <_ZN8USART1_t4sendEPKc.constprop.22>
    1efc:	8b e0       	ldi	r24, 0x0B	; 11
    1efe:	91 e0       	ldi	r25, 0x01	; 1
    1f00:	0e 94 0e 03 	call	0x61c	; 0x61c <_ZN8USART1_t4sendEPKc.constprop.22>
			pc<<"kostka nastavena"<<endl;
	nastav_rychlost(1);	
    1f04:	81 e0       	ldi	r24, 0x01	; 1
    1f06:	0e 94 f3 07 	call	0xfe6	; 0xfe6 <_Z15nastav_rychlosth>
    1f0a:	82 e9       	ldi	r24, 0x92	; 146
    1f0c:	91 e0       	ldi	r25, 0x01	; 1
    1f0e:	0e 94 0e 03 	call	0x61c	; 0x61c <_ZN8USART1_t4sendEPKc.constprop.22>
    1f12:	8b e0       	ldi	r24, 0x0B	; 11
    1f14:	91 e0       	ldi	r25, 0x01	; 1
    1f16:	0e 94 0e 03 	call	0x61c	; 0x61c <_ZN8USART1_t4sendEPKc.constprop.22>
			pc<<"rychlost nastavena"<<endl;
	zakladni_pozice();
    1f1a:	0e 94 ef 0d 	call	0x1bde	; 0x1bde <_Z15zakladni_pozicev>
    1f1e:	85 ea       	ldi	r24, 0xA5	; 165
    1f20:	91 e0       	ldi	r25, 0x01	; 1
    1f22:	0e 94 0e 03 	call	0x61c	; 0x61c <_ZN8USART1_t4sendEPKc.constprop.22>
    1f26:	8b e0       	ldi	r24, 0x0B	; 11
    1f28:	91 e0       	ldi	r25, 0x01	; 1
    1f2a:	0e 94 0e 03 	call	0x61c	; 0x61c <_ZN8USART1_t4sendEPKc.constprop.22>
			pc<<"zakladni pozice"<<endl;
	cekej();
    1f2e:	0e 94 6e 0c 	call	0x18dc	; 0x18dc <_Z5cekejv>
    1f32:	85 eb       	ldi	r24, 0xB5	; 181
    1f34:	91 e0       	ldi	r25, 0x01	; 1
    1f36:	0e 94 0e 03 	call	0x61c	; 0x61c <_ZN8USART1_t4sendEPKc.constprop.22>
    1f3a:	8b e0       	ldi	r24, 0x0B	; 11
    1f3c:	91 e0       	ldi	r25, 0x01	; 1
    1f3e:	0e 94 0e 03 	call	0x61c	; 0x61c <_ZN8USART1_t4sendEPKc.constprop.22>
    1f42:	8f eb       	ldi	r24, 0xBF	; 191
    1f44:	91 e0       	ldi	r25, 0x01	; 1
    1f46:	0e 94 0e 03 	call	0x61c	; 0x61c <_ZN8USART1_t4sendEPKc.constprop.22>
    1f4a:	8b e0       	ldi	r24, 0x0B	; 11
    1f4c:	91 e0       	ldi	r25, 0x01	; 1
    1f4e:	0e 94 0e 03 	call	0x61c	; 0x61c <_ZN8USART1_t4sendEPKc.constprop.22>
			pc<<"cekej ..."<<endl;
	//pc<<aktualizuj_hraci_pole()<<endl;
			pc<<"aktualizuj pole"<<endl;
			curr_pos[0]=1;
    1f52:	81 e0       	ldi	r24, 0x01	; 1
    1f54:	80 93 da 01 	sts	0x01DA, r24
	while(1)
	{
		if(buttons.isStart())
    1f58:	80 99       	sbic	0x10, 0	; 16
    1f5a:	fe cf       	rjmp	.-4      	; 0x1f58 <_Z3runv+0x84>
		{
			while(buttons.isStart())
    1f5c:	80 9b       	sbis	0x10, 0	; 16
    1f5e:	fe cf       	rjmp	.-4      	; 0x1f5c <_Z3runv+0x88>
			{
			}
				for(i=0; i!=pocet_motoru; i++)
    1f60:	10 92 e8 01 	sts	0x01E8, r1
    1f64:	14 c0       	rjmp	.+40     	; 0x1f8e <_Z3runv+0xba>
				{
					motor[i+1].speed(1023);
    1f66:	6f 5f       	subi	r22, 0xFF	; 255
		m_error.overwrite = true;
	}

	motor_t &operator [] (const uint8_t &id)
	{
		currentID = id;
    1f68:	60 93 52 02 	sts	0x0252, r22
		m_error.push(bus.writeWord(currentID, P_GOAL_SPEED_L, speed));
		return *this;
	}
	motor_t & speed(const int16_t &speed = 256)
	{
		m_error.push(bus.writeWord(currentID, P_GOAL_SPEED_L, ((uint16_t)(speed))));
    1f6c:	88 eb       	ldi	r24, 0xB8	; 184
    1f6e:	92 e0       	ldi	r25, 0x02	; 2
    1f70:	40 e2       	ldi	r20, 0x20	; 32
    1f72:	2f ef       	ldi	r18, 0xFF	; 255
    1f74:	33 e0       	ldi	r19, 0x03	; 3
    1f76:	0e 94 b6 07 	call	0xf6c	; 0xf6c <_ZN11dynamixel_t9writeWordEhhj>
    1f7a:	68 2f       	mov	r22, r24
    1f7c:	83 e5       	ldi	r24, 0x53	; 83
    1f7e:	92 e0       	ldi	r25, 0x02	; 2
    1f80:	0e 94 12 06 	call	0xc24	; 0xc24 <_ZN5queueIhLj96EE4pushEh>
		if(buttons.isStart())
		{
			while(buttons.isStart())
			{
			}
				for(i=0; i!=pocet_motoru; i++)
    1f84:	80 91 e8 01 	lds	r24, 0x01E8
    1f88:	8f 5f       	subi	r24, 0xFF	; 255
    1f8a:	80 93 e8 01 	sts	0x01E8, r24
    1f8e:	60 91 e8 01 	lds	r22, 0x01E8
    1f92:	67 30       	cpi	r22, 0x07	; 7
    1f94:	41 f7       	brne	.-48     	; 0x1f66 <_Z3runv+0x92>
    1f96:	c0 e0       	ldi	r28, 0x00	; 0
    1f98:	d0 e0       	ldi	r29, 0x00	; 0
			for (;;)
			{
				//pohyb_na_bod2(50,50,50);
				for (int a=0;360!=0;a++)
				{
					pohyb_na_bod2((100+40*cos(a*(M_PI/180))),100,(40*sin(a*(M_PI/180))));
    1f9a:	be 01       	movw	r22, r28
    1f9c:	88 27       	eor	r24, r24
    1f9e:	77 fd       	sbrc	r23, 7
    1fa0:	80 95       	com	r24
    1fa2:	98 2f       	mov	r25, r24
    1fa4:	0e 94 a7 12 	call	0x254e	; 0x254e <__floatsisf>
    1fa8:	25 e3       	ldi	r18, 0x35	; 53
    1faa:	3a ef       	ldi	r19, 0xFA	; 250
    1fac:	4e e8       	ldi	r20, 0x8E	; 142
    1fae:	5c e3       	ldi	r21, 0x3C	; 60
    1fb0:	0e 94 b3 13 	call	0x2766	; 0x2766 <__mulsf3>
    1fb4:	8b 01       	movw	r16, r22
    1fb6:	48 2e       	mov	r4, r24
    1fb8:	89 2e       	mov	r8, r25
    1fba:	86 2f       	mov	r24, r22
    1fbc:	91 2f       	mov	r25, r17
    1fbe:	a4 2d       	mov	r26, r4
    1fc0:	b8 2d       	mov	r27, r8
    1fc2:	bc 01       	movw	r22, r24
    1fc4:	cd 01       	movw	r24, r26
    1fc6:	0e 94 09 12 	call	0x2412	; 0x2412 <cos>
    1fca:	6b 01       	movw	r12, r22
    1fcc:	7c 01       	movw	r14, r24
    1fce:	80 2f       	mov	r24, r16
    1fd0:	91 2f       	mov	r25, r17
    1fd2:	a4 2d       	mov	r26, r4
    1fd4:	b8 2d       	mov	r27, r8
    1fd6:	bc 01       	movw	r22, r24
    1fd8:	cd 01       	movw	r24, r26
    1fda:	0e 94 16 14 	call	0x282c	; 0x282c <sin>
    1fde:	4b 01       	movw	r8, r22
    1fe0:	5c 01       	movw	r10, r24
    1fe2:	c7 01       	movw	r24, r14
    1fe4:	b6 01       	movw	r22, r12
    1fe6:	20 e0       	ldi	r18, 0x00	; 0
    1fe8:	30 e0       	ldi	r19, 0x00	; 0
    1fea:	40 e2       	ldi	r20, 0x20	; 32
    1fec:	52 e4       	ldi	r21, 0x42	; 66
    1fee:	0e 94 b3 13 	call	0x2766	; 0x2766 <__mulsf3>
    1ff2:	20 e0       	ldi	r18, 0x00	; 0
    1ff4:	30 e0       	ldi	r19, 0x00	; 0
    1ff6:	48 ec       	ldi	r20, 0xC8	; 200
    1ff8:	52 e4       	ldi	r21, 0x42	; 66
    1ffa:	0e 94 43 11 	call	0x2286	; 0x2286 <__addsf3>
    1ffe:	2b 01       	movw	r4, r22
    2000:	3c 01       	movw	r6, r24
    2002:	c5 01       	movw	r24, r10
    2004:	b4 01       	movw	r22, r8
    2006:	20 e0       	ldi	r18, 0x00	; 0
    2008:	30 e0       	ldi	r19, 0x00	; 0
    200a:	40 e2       	ldi	r20, 0x20	; 32
    200c:	52 e4       	ldi	r21, 0x42	; 66
    200e:	0e 94 b3 13 	call	0x2766	; 0x2766 <__mulsf3>
    2012:	7b 01       	movw	r14, r22
    2014:	8c 01       	movw	r16, r24
    2016:	c3 01       	movw	r24, r6
    2018:	b2 01       	movw	r22, r4
    201a:	20 e0       	ldi	r18, 0x00	; 0
    201c:	30 e0       	ldi	r19, 0x00	; 0
    201e:	48 ec       	ldi	r20, 0xC8	; 200
    2020:	52 e4       	ldi	r21, 0x42	; 66
    2022:	0e 94 4b 08 	call	0x1096	; 0x1096 <_Z13pohyb_na_bod2fff>
			//pohyb_na_bod2(100,100,100);
			
			for (;;)
			{
				//pohyb_na_bod2(50,50,50);
				for (int a=0;360!=0;a++)
    2026:	21 96       	adiw	r28, 0x01	; 1
    2028:	b8 cf       	rjmp	.-144    	; 0x1f9a <_Z3runv+0xc6>

0000202a <__vector_19>:
	if((UCSR0A & (1<<FE0)) == (1<<FE0))
		return;
	bus.data_in(ch);
}
ISR(USART0_UDRE_vect)
{
    202a:	1f 92       	push	r1
    202c:	0f 92       	push	r0
    202e:	0f b6       	in	r0, 0x3f	; 63
    2030:	0f 92       	push	r0
    2032:	0b b6       	in	r0, 0x3b	; 59
    2034:	0f 92       	push	r0
    2036:	11 24       	eor	r1, r1
    2038:	2f 93       	push	r18
    203a:	3f 93       	push	r19
    203c:	4f 93       	push	r20
    203e:	5f 93       	push	r21
    2040:	6f 93       	push	r22
    2042:	7f 93       	push	r23
    2044:	8f 93       	push	r24
    2046:	9f 93       	push	r25
    2048:	af 93       	push	r26
    204a:	bf 93       	push	r27
    204c:	ef 93       	push	r30
    204e:	ff 93       	push	r31
	volatile uint16_t m_write;
public:
	volatile bool overwrite;
	bool is_empty() const
	{
		if(m_write == m_read)
    2050:	20 91 7f 03 	lds	r18, 0x037F
    2054:	30 91 80 03 	lds	r19, 0x0380
    2058:	80 91 7d 03 	lds	r24, 0x037D
    205c:	90 91 7e 03 	lds	r25, 0x037E
    2060:	28 17       	cp	r18, r24
    2062:	39 07       	cpc	r19, r25
    2064:	11 f4       	brne	.+4      	; 0x206a <__vector_19+0x40>
	}
	else
	{
		//PORTE &= ~(1<<PE2);
		//PORTE |= (1<<PE3);
		UCSR0B &= ~(1<<UDRIE0);
    2066:	55 98       	cbi	0x0a, 5	; 10
    2068:	05 c0       	rjmp	.+10     	; 0x2074 <__vector_19+0x4a>

	bool data_out(uint8_t &ch)
	{
		if(m_tx.is_empty())
			return false;
		ch = m_tx.pop();
    206a:	8d e1       	ldi	r24, 0x1D	; 29
    206c:	93 e0       	ldi	r25, 0x03	; 3
    206e:	0e 94 8b 06 	call	0xd16	; 0xd16 <_ZN5queueIhLj96EE3popEv>
	uint8_t data;
	if(bus.data_out(data))
	{
		//PORTE &= ~(1<<PE3);
		//PORTE |= (1<<PE2);
		UDR0 = data;
    2072:	8c b9       	out	0x0c, r24	; 12
	{
		//PORTE &= ~(1<<PE2);
		//PORTE |= (1<<PE3);
		UCSR0B &= ~(1<<UDRIE0);
	}
}
    2074:	ff 91       	pop	r31
    2076:	ef 91       	pop	r30
    2078:	bf 91       	pop	r27
    207a:	af 91       	pop	r26
    207c:	9f 91       	pop	r25
    207e:	8f 91       	pop	r24
    2080:	7f 91       	pop	r23
    2082:	6f 91       	pop	r22
    2084:	5f 91       	pop	r21
    2086:	4f 91       	pop	r20
    2088:	3f 91       	pop	r19
    208a:	2f 91       	pop	r18
    208c:	0f 90       	pop	r0
    208e:	0b be       	out	0x3b, r0	; 59
    2090:	0f 90       	pop	r0
    2092:	0f be       	out	0x3f, r0	; 63
    2094:	0f 90       	pop	r0
    2096:	1f 90       	pop	r1
    2098:	18 95       	reti

0000209a <__ashldi3>:
    209a:	cf 92       	push	r12
    209c:	df 92       	push	r13
    209e:	ef 92       	push	r14
    20a0:	ff 92       	push	r15
    20a2:	0f 93       	push	r16
    20a4:	cf 93       	push	r28
    20a6:	df 93       	push	r29
    20a8:	cd b7       	in	r28, 0x3d	; 61
    20aa:	de b7       	in	r29, 0x3e	; 62
    20ac:	60 97       	sbiw	r28, 0x10	; 16
    20ae:	0f b6       	in	r0, 0x3f	; 63
    20b0:	f8 94       	cli
    20b2:	de bf       	out	0x3e, r29	; 62
    20b4:	0f be       	out	0x3f, r0	; 63
    20b6:	cd bf       	out	0x3d, r28	; 61
    20b8:	00 23       	and	r16, r16
    20ba:	09 f4       	brne	.+2      	; 0x20be <__ashldi3+0x24>
    20bc:	5a c0       	rjmp	.+180    	; 0x2172 <__ashldi3+0xd8>
    20be:	29 87       	std	Y+9, r18	; 0x09
    20c0:	3a 87       	std	Y+10, r19	; 0x0a
    20c2:	4b 87       	std	Y+11, r20	; 0x0b
    20c4:	5c 87       	std	Y+12, r21	; 0x0c
    20c6:	6d 87       	std	Y+13, r22	; 0x0d
    20c8:	7e 87       	std	Y+14, r23	; 0x0e
    20ca:	8f 87       	std	Y+15, r24	; 0x0f
    20cc:	98 8b       	std	Y+16, r25	; 0x10
    20ce:	80 e2       	ldi	r24, 0x20	; 32
    20d0:	80 1b       	sub	r24, r16
    20d2:	49 85       	ldd	r20, Y+9	; 0x09
    20d4:	5a 85       	ldd	r21, Y+10	; 0x0a
    20d6:	6b 85       	ldd	r22, Y+11	; 0x0b
    20d8:	7c 85       	ldd	r23, Y+12	; 0x0c
    20da:	18 16       	cp	r1, r24
    20dc:	b4 f0       	brlt	.+44     	; 0x210a <__ashldi3+0x70>
    20de:	19 82       	std	Y+1, r1	; 0x01
    20e0:	1a 82       	std	Y+2, r1	; 0x02
    20e2:	1b 82       	std	Y+3, r1	; 0x03
    20e4:	1c 82       	std	Y+4, r1	; 0x04
    20e6:	99 27       	eor	r25, r25
    20e8:	87 fd       	sbrc	r24, 7
    20ea:	90 95       	com	r25
    20ec:	90 95       	com	r25
    20ee:	81 95       	neg	r24
    20f0:	9f 4f       	sbci	r25, 0xFF	; 255
    20f2:	04 c0       	rjmp	.+8      	; 0x20fc <__ashldi3+0x62>
    20f4:	44 0f       	add	r20, r20
    20f6:	55 1f       	adc	r21, r21
    20f8:	66 1f       	adc	r22, r22
    20fa:	77 1f       	adc	r23, r23
    20fc:	8a 95       	dec	r24
    20fe:	d2 f7       	brpl	.-12     	; 0x20f4 <__ashldi3+0x5a>
    2100:	4d 83       	std	Y+5, r20	; 0x05
    2102:	5e 83       	std	Y+6, r21	; 0x06
    2104:	6f 83       	std	Y+7, r22	; 0x07
    2106:	78 87       	std	Y+8, r23	; 0x08
    2108:	2c c0       	rjmp	.+88     	; 0x2162 <__ashldi3+0xc8>
    210a:	6a 01       	movw	r12, r20
    210c:	7b 01       	movw	r14, r22
    210e:	00 2e       	mov	r0, r16
    2110:	04 c0       	rjmp	.+8      	; 0x211a <__ashldi3+0x80>
    2112:	cc 0c       	add	r12, r12
    2114:	dd 1c       	adc	r13, r13
    2116:	ee 1c       	adc	r14, r14
    2118:	ff 1c       	adc	r15, r15
    211a:	0a 94       	dec	r0
    211c:	d2 f7       	brpl	.-12     	; 0x2112 <__ashldi3+0x78>
    211e:	c9 82       	std	Y+1, r12	; 0x01
    2120:	da 82       	std	Y+2, r13	; 0x02
    2122:	eb 82       	std	Y+3, r14	; 0x03
    2124:	fc 82       	std	Y+4, r15	; 0x04
    2126:	6a 01       	movw	r12, r20
    2128:	7b 01       	movw	r14, r22
    212a:	04 c0       	rjmp	.+8      	; 0x2134 <__ashldi3+0x9a>
    212c:	f6 94       	lsr	r15
    212e:	e7 94       	ror	r14
    2130:	d7 94       	ror	r13
    2132:	c7 94       	ror	r12
    2134:	8a 95       	dec	r24
    2136:	d2 f7       	brpl	.-12     	; 0x212c <__ashldi3+0x92>
    2138:	d7 01       	movw	r26, r14
    213a:	c6 01       	movw	r24, r12
    213c:	4d 85       	ldd	r20, Y+13	; 0x0d
    213e:	5e 85       	ldd	r21, Y+14	; 0x0e
    2140:	6f 85       	ldd	r22, Y+15	; 0x0f
    2142:	78 89       	ldd	r23, Y+16	; 0x10
    2144:	04 c0       	rjmp	.+8      	; 0x214e <__ashldi3+0xb4>
    2146:	44 0f       	add	r20, r20
    2148:	55 1f       	adc	r21, r21
    214a:	66 1f       	adc	r22, r22
    214c:	77 1f       	adc	r23, r23
    214e:	0a 95       	dec	r16
    2150:	d2 f7       	brpl	.-12     	; 0x2146 <__ashldi3+0xac>
    2152:	84 2b       	or	r24, r20
    2154:	95 2b       	or	r25, r21
    2156:	a6 2b       	or	r26, r22
    2158:	b7 2b       	or	r27, r23
    215a:	8d 83       	std	Y+5, r24	; 0x05
    215c:	9e 83       	std	Y+6, r25	; 0x06
    215e:	af 83       	std	Y+7, r26	; 0x07
    2160:	b8 87       	std	Y+8, r27	; 0x08
    2162:	29 81       	ldd	r18, Y+1	; 0x01
    2164:	3a 81       	ldd	r19, Y+2	; 0x02
    2166:	4b 81       	ldd	r20, Y+3	; 0x03
    2168:	5c 81       	ldd	r21, Y+4	; 0x04
    216a:	6d 81       	ldd	r22, Y+5	; 0x05
    216c:	7e 81       	ldd	r23, Y+6	; 0x06
    216e:	8f 81       	ldd	r24, Y+7	; 0x07
    2170:	98 85       	ldd	r25, Y+8	; 0x08
    2172:	60 96       	adiw	r28, 0x10	; 16
    2174:	0f b6       	in	r0, 0x3f	; 63
    2176:	f8 94       	cli
    2178:	de bf       	out	0x3e, r29	; 62
    217a:	0f be       	out	0x3f, r0	; 63
    217c:	cd bf       	out	0x3d, r28	; 61
    217e:	df 91       	pop	r29
    2180:	cf 91       	pop	r28
    2182:	0f 91       	pop	r16
    2184:	ff 90       	pop	r15
    2186:	ef 90       	pop	r14
    2188:	df 90       	pop	r13
    218a:	cf 90       	pop	r12
    218c:	08 95       	ret

0000218e <main>:
void run();

int main()
{
	//LEDs initialization
	DDRC = (1<<PC0)|(1<<PC1)|(1<<PC2)|(1<<PC3)|(1<<PC4)|(1<<PC5)|(1<<PC6);
    218e:	8f e7       	ldi	r24, 0x7F	; 127
    2190:	84 bb       	out	0x14, r24	; 20
	PORTC = (1<<PC1)|(1<<PC2)|(1<<PC3)|(1<<PC4)|(1<<PC5)|(1<<PC6);
    2192:	8e e7       	ldi	r24, 0x7E	; 126
    2194:	85 bb       	out	0x15, r24	; 21
	//buttons initialization
	DDRE = (1<<PE2)|(1<<PE3);
    2196:	8c e0       	ldi	r24, 0x0C	; 12
    2198:	82 b9       	out	0x02, r24	; 2
	PORTE = (1<<PE7)|(1<<PE6)|(1<<PE5)|(1<<PE4)|(1<<PE0);
    219a:	81 ef       	ldi	r24, 0xF1	; 241
    219c:	83 b9       	out	0x03, r24	; 3
	DDRD = (1<<PD5);
    219e:	80 e2       	ldi	r24, 0x20	; 32
    21a0:	81 bb       	out	0x11, r24	; 17
	PORTD = (1<<PD0)|(1<<PD5);
    21a2:	81 e2       	ldi	r24, 0x21	; 33
    21a4:	82 bb       	out	0x12, r24	; 18
		return true;
	}

	void init(uint32_t speed)
	{
		m_tx.overwrite = false;
    21a6:	10 92 4f 04 	sts	0x044F, r1
		m_rx.overwrite = false;
    21aa:	10 92 ea 03 	sts	0x03EA, r1
		UCSR1A = (1<<U2X1);
    21ae:	d2 e0       	ldi	r29, 0x02	; 2
    21b0:	d0 93 9b 00 	sts	0x009B, r29
		UCSR1B = ((1<<RXCIE1)|(1<<RXEN1)|(1<<TXEN1));
    21b4:	98 e9       	ldi	r25, 0x98	; 152
    21b6:	90 93 9a 00 	sts	0x009A, r25
		UCSR1C = ((1<<UCSZ10)|(1<<UCSZ11));
    21ba:	86 e0       	ldi	r24, 0x06	; 6
    21bc:	80 93 9d 00 	sts	0x009D, r24
		speed = (((F_CPU/(float(8*speed)))-1)-((F_CPU/(8*speed))-1))<0.5?((F_CPU/(8*speed))-1):((F_CPU/(8*speed)));
		UBRR1H = ((speed&0xFF00)>>8);
    21c0:	10 92 98 00 	sts	0x0098, r1
		UBRR1L = (speed&0x00FF);
    21c4:	22 e2       	ldi	r18, 0x22	; 34
    21c6:	20 93 99 00 	sts	0x0099, r18
		numbersSpaces = 1;
    21ca:	c1 e0       	ldi	r28, 0x01	; 1
    21cc:	c0 93 50 04 	sts	0x0450, r28
		cin_isFirst = true;
    21d0:	c0 93 51 04 	sts	0x0451, r28
		cin_isGood = true;
    21d4:	c0 93 73 04 	sts	0x0473, r28
		UCSR0B = (1<<RXCIE0)|(1<<RXEN0);
	}

	void init(uint32_t speed)
	{
		m_tx.overwrite = false;
    21d8:	10 92 81 03 	sts	0x0381, r1
		m_rx.overwrite = false;
    21dc:	10 92 1c 03 	sts	0x031C, r1
		UCSR0A = (1<<U2X0);
    21e0:	db b9       	out	0x0b, r29	; 11
		UCSR0B = (1<<RXCIE0)|(1<<RXEN0)|(1<<TXEN0);
    21e2:	9a b9       	out	0x0a, r25	; 10
		UCSR0C = (1<<UCSZ00)|(1<<UCSZ01);
    21e4:	80 93 95 00 	sts	0x0095, r24
		speed = (((F_CPU/(float(8*speed)))-1)-((F_CPU/(8*speed))-1))<0.5?((F_CPU/(8*speed))-1):((F_CPU/(8*speed)));
		UBRR0H = ((speed&0xFF00)>>8);
    21e8:	10 92 90 00 	sts	0x0090, r1
		UBRR0L = (speed&0x00FF);
    21ec:	c9 b9       	out	0x09, r28	; 9
		DDRE |= (1<<PE2)|(1<<PE3);
    21ee:	82 b1       	in	r24, 0x02	; 2
    21f0:	8c 60       	ori	r24, 0x0C	; 12
    21f2:	82 b9       	out	0x02, r24	; 2
		receive();
    21f4:	0e 94 52 01 	call	0x2a4	; 0x2a4 <_ZN11dynamixel_t7receiveEv.isra.1>
	// Initialize the RS232 line to PC
	pc.init(DYNAMIXEL_PC_BPS);
	//Dynamixel bus initialization
	bus.init(DYNAMIXEL_BUS_BPS);
	//stopwatch initialization
	TIMSK = (1<<TOIE0);
    21f8:	c7 bf       	out	0x37, r28	; 55
	TCCR0 = (1<<CS01);
    21fa:	d3 bf       	out	0x33, r29	; 51
	//starting program
	sei();
    21fc:	78 94       	sei
	syncWait(1000);
    21fe:	68 ee       	ldi	r22, 0xE8	; 232
    2200:	73 e0       	ldi	r23, 0x03	; 3
    2202:	80 e0       	ldi	r24, 0x00	; 0
    2204:	90 e0       	ldi	r25, 0x00	; 0
    2206:	0e 94 34 01 	call	0x268	; 0x268 <_Z8syncWaitm>
	pc.send("\n\n\r  ok \n\r");
    220a:	8f ec       	ldi	r24, 0xCF	; 207
    220c:	91 e0       	ldi	r25, 0x01	; 1
    220e:	0e 94 0e 03 	call	0x61c	; 0x61c <_ZN8USART1_t4sendEPKc.constprop.22>
	volatile uint16_t m_write;
public:
	volatile bool overwrite;
	bool is_empty() const
	{
		if(m_write == m_read)
    2212:	20 91 4d 04 	lds	r18, 0x044D
    2216:	30 91 4e 04 	lds	r19, 0x044E
    221a:	80 91 4b 04 	lds	r24, 0x044B
    221e:	90 91 4c 04 	lds	r25, 0x044C
    2222:	28 17       	cp	r18, r24
    2224:	39 07       	cpc	r19, r25
    2226:	21 f0       	breq	.+8      	; 0x2230 <main+0xa2>
		return true;
	}

	bool is_send() const
	{
		if(!m_tx.is_empty() && ((UCSR1A & (1<<TXC1)) == 0))
    2228:	80 91 9b 00 	lds	r24, 0x009B
    222c:	86 ff       	sbrs	r24, 6
    222e:	f1 cf       	rjmp	.-30     	; 0x2212 <main+0x84>
			return false;
		UCSR1A |= (1<<TXC1);
    2230:	80 91 9b 00 	lds	r24, 0x009B
    2234:	80 64       	ori	r24, 0x40	; 64
    2236:	80 93 9b 00 	sts	0x009B, r24
	//starting program
	sei();
	syncWait(1000);
	pc.send("\n\n\r  ok \n\r");
	pc.wait();
	run();//user program
    223a:	0e 94 6a 0f 	call	0x1ed4	; 0x1ed4 <_Z3runv>

0000223e <_GLOBAL__sub_I__Z3absl>:
	uint8_t pointer;
public:
	string()
	{
		//m_size = STRING_DEFAULT_SIZE;
		for(pointer = 0; pointer != m_size; ++pointer)
    223e:	80 e0       	ldi	r24, 0x00	; 0
    2240:	06 c0       	rjmp	.+12     	; 0x224e <_GLOBAL__sub_I__Z3absl+0x10>
			m_data[pointer] = 0;
    2242:	e8 2f       	mov	r30, r24
    2244:	f0 e0       	ldi	r31, 0x00	; 0
    2246:	ee 5a       	subi	r30, 0xAE	; 174
    2248:	fb 4f       	sbci	r31, 0xFB	; 251
    224a:	10 82       	st	Z, r1
    224c:	8f 5f       	subi	r24, 0xFF	; 255
	uint8_t pointer;
public:
	string()
	{
		//m_size = STRING_DEFAULT_SIZE;
		for(pointer = 0; pointer != m_size; ++pointer)
    224e:	80 32       	cpi	r24, 0x20	; 32
    2250:	c1 f7       	brne	.-16     	; 0x2242 <_GLOBAL__sub_I__Z3absl+0x4>
			m_data[pointer] = 0;
		pointer = 0;
    2252:	10 92 72 04 	sts	0x0472, r1
	uint8_t currentID;
	queue <uint8_t, AX_ERROR_BUF> m_error;

	motor_t()
	{
		m_error.overwrite = true;
    2256:	81 e0       	ldi	r24, 0x01	; 1
    2258:	80 93 b7 02 	sts	0x02B7, r24
	uint8_t currentID;
	queue <uint8_t, AX_ERROR_BUF> m_error;

	sensor_t()
	{
		m_error.overwrite = true;
    225c:	80 93 51 02 	sts	0x0251, r24
		currentID = 100;
    2260:	84 e6       	ldi	r24, 0x64	; 100
    2262:	80 93 ec 01 	sts	0x01EC, r24
					//nasad_robot();
				}
			}
		}
	}
}
    2266:	08 95       	ret

00002268 <acos>:
    2268:	9f 93       	push	r25
    226a:	9f 77       	andi	r25, 0x7F	; 127
    226c:	ab d1       	rcall	.+854    	; 0x25c4 <__fp_arccos>
    226e:	0f 90       	pop	r0
    2270:	00 20       	and	r0, r0
    2272:	3a f4       	brpl	.+14     	; 0x2282 <acos+0x1a>
    2274:	90 58       	subi	r25, 0x80	; 128
    2276:	a2 ea       	ldi	r26, 0xA2	; 162
    2278:	2a ed       	ldi	r18, 0xDA	; 218
    227a:	3f e0       	ldi	r19, 0x0F	; 15
    227c:	49 e4       	ldi	r20, 0x49	; 73
    227e:	50 e4       	ldi	r21, 0x40	; 64
    2280:	13 d0       	rcall	.+38     	; 0x22a8 <__addsf3x>
    2282:	1f c2       	rjmp	.+1086   	; 0x26c2 <__fp_round>

00002284 <__subsf3>:
    2284:	50 58       	subi	r21, 0x80	; 128

00002286 <__addsf3>:
    2286:	bb 27       	eor	r27, r27
    2288:	aa 27       	eor	r26, r26
    228a:	0e d0       	rcall	.+28     	; 0x22a8 <__addsf3x>
    228c:	1a c2       	rjmp	.+1076   	; 0x26c2 <__fp_round>
    228e:	e3 d1       	rcall	.+966    	; 0x2656 <__fp_pscA>
    2290:	30 f0       	brcs	.+12     	; 0x229e <__addsf3+0x18>
    2292:	e8 d1       	rcall	.+976    	; 0x2664 <__fp_pscB>
    2294:	20 f0       	brcs	.+8      	; 0x229e <__addsf3+0x18>
    2296:	31 f4       	brne	.+12     	; 0x22a4 <__addsf3+0x1e>
    2298:	9f 3f       	cpi	r25, 0xFF	; 255
    229a:	11 f4       	brne	.+4      	; 0x22a0 <__addsf3+0x1a>
    229c:	1e f4       	brtc	.+6      	; 0x22a4 <__addsf3+0x1e>
    229e:	b3 c1       	rjmp	.+870    	; 0x2606 <__fp_nan>
    22a0:	0e f4       	brtc	.+2      	; 0x22a4 <__addsf3+0x1e>
    22a2:	e0 95       	com	r30
    22a4:	e7 fb       	bst	r30, 7
    22a6:	a9 c1       	rjmp	.+850    	; 0x25fa <__fp_inf>

000022a8 <__addsf3x>:
    22a8:	e9 2f       	mov	r30, r25
    22aa:	2d d2       	rcall	.+1114   	; 0x2706 <__fp_split3>
    22ac:	80 f3       	brcs	.-32     	; 0x228e <__addsf3+0x8>
    22ae:	ba 17       	cp	r27, r26
    22b0:	62 07       	cpc	r22, r18
    22b2:	73 07       	cpc	r23, r19
    22b4:	84 07       	cpc	r24, r20
    22b6:	95 07       	cpc	r25, r21
    22b8:	18 f0       	brcs	.+6      	; 0x22c0 <__addsf3x+0x18>
    22ba:	71 f4       	brne	.+28     	; 0x22d8 <__addsf3x+0x30>
    22bc:	9e f5       	brtc	.+102    	; 0x2324 <__addsf3x+0x7c>
    22be:	45 c2       	rjmp	.+1162   	; 0x274a <__fp_zero>
    22c0:	0e f4       	brtc	.+2      	; 0x22c4 <__addsf3x+0x1c>
    22c2:	e0 95       	com	r30
    22c4:	0b 2e       	mov	r0, r27
    22c6:	ba 2f       	mov	r27, r26
    22c8:	a0 2d       	mov	r26, r0
    22ca:	0b 01       	movw	r0, r22
    22cc:	b9 01       	movw	r22, r18
    22ce:	90 01       	movw	r18, r0
    22d0:	0c 01       	movw	r0, r24
    22d2:	ca 01       	movw	r24, r20
    22d4:	a0 01       	movw	r20, r0
    22d6:	11 24       	eor	r1, r1
    22d8:	ff 27       	eor	r31, r31
    22da:	59 1b       	sub	r21, r25
    22dc:	99 f0       	breq	.+38     	; 0x2304 <__addsf3x+0x5c>
    22de:	59 3f       	cpi	r21, 0xF9	; 249
    22e0:	50 f4       	brcc	.+20     	; 0x22f6 <__addsf3x+0x4e>
    22e2:	50 3e       	cpi	r21, 0xE0	; 224
    22e4:	68 f1       	brcs	.+90     	; 0x2340 <__addsf3x+0x98>
    22e6:	1a 16       	cp	r1, r26
    22e8:	f0 40       	sbci	r31, 0x00	; 0
    22ea:	a2 2f       	mov	r26, r18
    22ec:	23 2f       	mov	r18, r19
    22ee:	34 2f       	mov	r19, r20
    22f0:	44 27       	eor	r20, r20
    22f2:	58 5f       	subi	r21, 0xF8	; 248
    22f4:	f3 cf       	rjmp	.-26     	; 0x22dc <__addsf3x+0x34>
    22f6:	46 95       	lsr	r20
    22f8:	37 95       	ror	r19
    22fa:	27 95       	ror	r18
    22fc:	a7 95       	ror	r26
    22fe:	f0 40       	sbci	r31, 0x00	; 0
    2300:	53 95       	inc	r21
    2302:	c9 f7       	brne	.-14     	; 0x22f6 <__addsf3x+0x4e>
    2304:	7e f4       	brtc	.+30     	; 0x2324 <__addsf3x+0x7c>
    2306:	1f 16       	cp	r1, r31
    2308:	ba 0b       	sbc	r27, r26
    230a:	62 0b       	sbc	r22, r18
    230c:	73 0b       	sbc	r23, r19
    230e:	84 0b       	sbc	r24, r20
    2310:	ba f0       	brmi	.+46     	; 0x2340 <__addsf3x+0x98>
    2312:	91 50       	subi	r25, 0x01	; 1
    2314:	a1 f0       	breq	.+40     	; 0x233e <__addsf3x+0x96>
    2316:	ff 0f       	add	r31, r31
    2318:	bb 1f       	adc	r27, r27
    231a:	66 1f       	adc	r22, r22
    231c:	77 1f       	adc	r23, r23
    231e:	88 1f       	adc	r24, r24
    2320:	c2 f7       	brpl	.-16     	; 0x2312 <__addsf3x+0x6a>
    2322:	0e c0       	rjmp	.+28     	; 0x2340 <__addsf3x+0x98>
    2324:	ba 0f       	add	r27, r26
    2326:	62 1f       	adc	r22, r18
    2328:	73 1f       	adc	r23, r19
    232a:	84 1f       	adc	r24, r20
    232c:	48 f4       	brcc	.+18     	; 0x2340 <__addsf3x+0x98>
    232e:	87 95       	ror	r24
    2330:	77 95       	ror	r23
    2332:	67 95       	ror	r22
    2334:	b7 95       	ror	r27
    2336:	f7 95       	ror	r31
    2338:	9e 3f       	cpi	r25, 0xFE	; 254
    233a:	08 f0       	brcs	.+2      	; 0x233e <__addsf3x+0x96>
    233c:	b3 cf       	rjmp	.-154    	; 0x22a4 <__addsf3+0x1e>
    233e:	93 95       	inc	r25
    2340:	88 0f       	add	r24, r24
    2342:	08 f0       	brcs	.+2      	; 0x2346 <__addsf3x+0x9e>
    2344:	99 27       	eor	r25, r25
    2346:	ee 0f       	add	r30, r30
    2348:	97 95       	ror	r25
    234a:	87 95       	ror	r24
    234c:	08 95       	ret
    234e:	83 d1       	rcall	.+774    	; 0x2656 <__fp_pscA>
    2350:	58 f0       	brcs	.+22     	; 0x2368 <__addsf3x+0xc0>
    2352:	80 e8       	ldi	r24, 0x80	; 128
    2354:	91 e0       	ldi	r25, 0x01	; 1
    2356:	09 f4       	brne	.+2      	; 0x235a <__addsf3x+0xb2>
    2358:	9e ef       	ldi	r25, 0xFE	; 254
    235a:	84 d1       	rcall	.+776    	; 0x2664 <__fp_pscB>
    235c:	28 f0       	brcs	.+10     	; 0x2368 <__addsf3x+0xc0>
    235e:	40 e8       	ldi	r20, 0x80	; 128
    2360:	51 e0       	ldi	r21, 0x01	; 1
    2362:	59 f4       	brne	.+22     	; 0x237a <atan2+0xe>
    2364:	5e ef       	ldi	r21, 0xFE	; 254
    2366:	09 c0       	rjmp	.+18     	; 0x237a <atan2+0xe>
    2368:	4e c1       	rjmp	.+668    	; 0x2606 <__fp_nan>
    236a:	ef c1       	rjmp	.+990    	; 0x274a <__fp_zero>

0000236c <atan2>:
    236c:	e9 2f       	mov	r30, r25
    236e:	e0 78       	andi	r30, 0x80	; 128
    2370:	ca d1       	rcall	.+916    	; 0x2706 <__fp_split3>
    2372:	68 f3       	brcs	.-38     	; 0x234e <__addsf3x+0xa6>
    2374:	09 2e       	mov	r0, r25
    2376:	05 2a       	or	r0, r21
    2378:	c1 f3       	breq	.-16     	; 0x236a <__addsf3x+0xc2>
    237a:	26 17       	cp	r18, r22
    237c:	37 07       	cpc	r19, r23
    237e:	48 07       	cpc	r20, r24
    2380:	59 07       	cpc	r21, r25
    2382:	38 f0       	brcs	.+14     	; 0x2392 <atan2+0x26>
    2384:	0e 2e       	mov	r0, r30
    2386:	07 f8       	bld	r0, 7
    2388:	e0 25       	eor	r30, r0
    238a:	69 f0       	breq	.+26     	; 0x23a6 <atan2+0x3a>
    238c:	e0 25       	eor	r30, r0
    238e:	e0 64       	ori	r30, 0x40	; 64
    2390:	0a c0       	rjmp	.+20     	; 0x23a6 <atan2+0x3a>
    2392:	ef 63       	ori	r30, 0x3F	; 63
    2394:	07 f8       	bld	r0, 7
    2396:	00 94       	com	r0
    2398:	07 fa       	bst	r0, 7
    239a:	db 01       	movw	r26, r22
    239c:	b9 01       	movw	r22, r18
    239e:	9d 01       	movw	r18, r26
    23a0:	dc 01       	movw	r26, r24
    23a2:	ca 01       	movw	r24, r20
    23a4:	ad 01       	movw	r20, r26
    23a6:	ef 93       	push	r30
    23a8:	46 d0       	rcall	.+140    	; 0x2436 <__divsf3_pse>
    23aa:	8b d1       	rcall	.+790    	; 0x26c2 <__fp_round>
    23ac:	0a d0       	rcall	.+20     	; 0x23c2 <atan>
    23ae:	5f 91       	pop	r21
    23b0:	55 23       	and	r21, r21
    23b2:	31 f0       	breq	.+12     	; 0x23c0 <atan2+0x54>
    23b4:	2b ed       	ldi	r18, 0xDB	; 219
    23b6:	3f e0       	ldi	r19, 0x0F	; 15
    23b8:	49 e4       	ldi	r20, 0x49	; 73
    23ba:	50 fd       	sbrc	r21, 0
    23bc:	49 ec       	ldi	r20, 0xC9	; 201
    23be:	63 cf       	rjmp	.-314    	; 0x2286 <__addsf3>
    23c0:	08 95       	ret

000023c2 <atan>:
    23c2:	df 93       	push	r29
    23c4:	dd 27       	eor	r29, r29
    23c6:	b9 2f       	mov	r27, r25
    23c8:	bf 77       	andi	r27, 0x7F	; 127
    23ca:	40 e8       	ldi	r20, 0x80	; 128
    23cc:	5f e3       	ldi	r21, 0x3F	; 63
    23ce:	16 16       	cp	r1, r22
    23d0:	17 06       	cpc	r1, r23
    23d2:	48 07       	cpc	r20, r24
    23d4:	5b 07       	cpc	r21, r27
    23d6:	10 f4       	brcc	.+4      	; 0x23dc <atan+0x1a>
    23d8:	d9 2f       	mov	r29, r25
    23da:	be d1       	rcall	.+892    	; 0x2758 <inverse>
    23dc:	9f 93       	push	r25
    23de:	8f 93       	push	r24
    23e0:	7f 93       	push	r23
    23e2:	6f 93       	push	r22
    23e4:	6b d2       	rcall	.+1238   	; 0x28bc <square>
    23e6:	ec e8       	ldi	r30, 0x8C	; 140
    23e8:	f0 e0       	ldi	r31, 0x00	; 0
    23ea:	10 d1       	rcall	.+544    	; 0x260c <__fp_powser>
    23ec:	6a d1       	rcall	.+724    	; 0x26c2 <__fp_round>
    23ee:	2f 91       	pop	r18
    23f0:	3f 91       	pop	r19
    23f2:	4f 91       	pop	r20
    23f4:	5f 91       	pop	r21
    23f6:	c3 d1       	rcall	.+902    	; 0x277e <__mulsf3x>
    23f8:	dd 23       	and	r29, r29
    23fa:	49 f0       	breq	.+18     	; 0x240e <atan+0x4c>
    23fc:	90 58       	subi	r25, 0x80	; 128
    23fe:	a2 ea       	ldi	r26, 0xA2	; 162
    2400:	2a ed       	ldi	r18, 0xDA	; 218
    2402:	3f e0       	ldi	r19, 0x0F	; 15
    2404:	49 ec       	ldi	r20, 0xC9	; 201
    2406:	5f e3       	ldi	r21, 0x3F	; 63
    2408:	d0 78       	andi	r29, 0x80	; 128
    240a:	5d 27       	eor	r21, r29
    240c:	4d df       	rcall	.-358    	; 0x22a8 <__addsf3x>
    240e:	df 91       	pop	r29
    2410:	58 c1       	rjmp	.+688    	; 0x26c2 <__fp_round>

00002412 <cos>:
    2412:	30 d1       	rcall	.+608    	; 0x2674 <__fp_rempio2>
    2414:	e3 95       	inc	r30
    2416:	66 c1       	rjmp	.+716    	; 0x26e4 <__fp_sinus>

00002418 <__divsf3>:
    2418:	0c d0       	rcall	.+24     	; 0x2432 <__divsf3x>
    241a:	53 c1       	rjmp	.+678    	; 0x26c2 <__fp_round>
    241c:	23 d1       	rcall	.+582    	; 0x2664 <__fp_pscB>
    241e:	40 f0       	brcs	.+16     	; 0x2430 <__divsf3+0x18>
    2420:	1a d1       	rcall	.+564    	; 0x2656 <__fp_pscA>
    2422:	30 f0       	brcs	.+12     	; 0x2430 <__divsf3+0x18>
    2424:	21 f4       	brne	.+8      	; 0x242e <__divsf3+0x16>
    2426:	5f 3f       	cpi	r21, 0xFF	; 255
    2428:	19 f0       	breq	.+6      	; 0x2430 <__divsf3+0x18>
    242a:	e7 c0       	rjmp	.+462    	; 0x25fa <__fp_inf>
    242c:	51 11       	cpse	r21, r1
    242e:	8e c1       	rjmp	.+796    	; 0x274c <__fp_szero>
    2430:	ea c0       	rjmp	.+468    	; 0x2606 <__fp_nan>

00002432 <__divsf3x>:
    2432:	69 d1       	rcall	.+722    	; 0x2706 <__fp_split3>
    2434:	98 f3       	brcs	.-26     	; 0x241c <__divsf3+0x4>

00002436 <__divsf3_pse>:
    2436:	99 23       	and	r25, r25
    2438:	c9 f3       	breq	.-14     	; 0x242c <__divsf3+0x14>
    243a:	55 23       	and	r21, r21
    243c:	b1 f3       	breq	.-20     	; 0x242a <__divsf3+0x12>
    243e:	95 1b       	sub	r25, r21
    2440:	55 0b       	sbc	r21, r21
    2442:	bb 27       	eor	r27, r27
    2444:	aa 27       	eor	r26, r26
    2446:	62 17       	cp	r22, r18
    2448:	73 07       	cpc	r23, r19
    244a:	84 07       	cpc	r24, r20
    244c:	38 f0       	brcs	.+14     	; 0x245c <__divsf3_pse+0x26>
    244e:	9f 5f       	subi	r25, 0xFF	; 255
    2450:	5f 4f       	sbci	r21, 0xFF	; 255
    2452:	22 0f       	add	r18, r18
    2454:	33 1f       	adc	r19, r19
    2456:	44 1f       	adc	r20, r20
    2458:	aa 1f       	adc	r26, r26
    245a:	a9 f3       	breq	.-22     	; 0x2446 <__divsf3_pse+0x10>
    245c:	33 d0       	rcall	.+102    	; 0x24c4 <__divsf3_pse+0x8e>
    245e:	0e 2e       	mov	r0, r30
    2460:	3a f0       	brmi	.+14     	; 0x2470 <__divsf3_pse+0x3a>
    2462:	e0 e8       	ldi	r30, 0x80	; 128
    2464:	30 d0       	rcall	.+96     	; 0x24c6 <__divsf3_pse+0x90>
    2466:	91 50       	subi	r25, 0x01	; 1
    2468:	50 40       	sbci	r21, 0x00	; 0
    246a:	e6 95       	lsr	r30
    246c:	00 1c       	adc	r0, r0
    246e:	ca f7       	brpl	.-14     	; 0x2462 <__divsf3_pse+0x2c>
    2470:	29 d0       	rcall	.+82     	; 0x24c4 <__divsf3_pse+0x8e>
    2472:	fe 2f       	mov	r31, r30
    2474:	27 d0       	rcall	.+78     	; 0x24c4 <__divsf3_pse+0x8e>
    2476:	66 0f       	add	r22, r22
    2478:	77 1f       	adc	r23, r23
    247a:	88 1f       	adc	r24, r24
    247c:	bb 1f       	adc	r27, r27
    247e:	26 17       	cp	r18, r22
    2480:	37 07       	cpc	r19, r23
    2482:	48 07       	cpc	r20, r24
    2484:	ab 07       	cpc	r26, r27
    2486:	b0 e8       	ldi	r27, 0x80	; 128
    2488:	09 f0       	breq	.+2      	; 0x248c <__divsf3_pse+0x56>
    248a:	bb 0b       	sbc	r27, r27
    248c:	80 2d       	mov	r24, r0
    248e:	bf 01       	movw	r22, r30
    2490:	ff 27       	eor	r31, r31
    2492:	93 58       	subi	r25, 0x83	; 131
    2494:	5f 4f       	sbci	r21, 0xFF	; 255
    2496:	2a f0       	brmi	.+10     	; 0x24a2 <__divsf3_pse+0x6c>
    2498:	9e 3f       	cpi	r25, 0xFE	; 254
    249a:	51 05       	cpc	r21, r1
    249c:	68 f0       	brcs	.+26     	; 0x24b8 <__divsf3_pse+0x82>
    249e:	ad c0       	rjmp	.+346    	; 0x25fa <__fp_inf>
    24a0:	55 c1       	rjmp	.+682    	; 0x274c <__fp_szero>
    24a2:	5f 3f       	cpi	r21, 0xFF	; 255
    24a4:	ec f3       	brlt	.-6      	; 0x24a0 <__divsf3_pse+0x6a>
    24a6:	98 3e       	cpi	r25, 0xE8	; 232
    24a8:	dc f3       	brlt	.-10     	; 0x24a0 <__divsf3_pse+0x6a>
    24aa:	86 95       	lsr	r24
    24ac:	77 95       	ror	r23
    24ae:	67 95       	ror	r22
    24b0:	b7 95       	ror	r27
    24b2:	f7 95       	ror	r31
    24b4:	9f 5f       	subi	r25, 0xFF	; 255
    24b6:	c9 f7       	brne	.-14     	; 0x24aa <__divsf3_pse+0x74>
    24b8:	88 0f       	add	r24, r24
    24ba:	91 1d       	adc	r25, r1
    24bc:	96 95       	lsr	r25
    24be:	87 95       	ror	r24
    24c0:	97 f9       	bld	r25, 7
    24c2:	08 95       	ret
    24c4:	e1 e0       	ldi	r30, 0x01	; 1
    24c6:	66 0f       	add	r22, r22
    24c8:	77 1f       	adc	r23, r23
    24ca:	88 1f       	adc	r24, r24
    24cc:	bb 1f       	adc	r27, r27
    24ce:	62 17       	cp	r22, r18
    24d0:	73 07       	cpc	r23, r19
    24d2:	84 07       	cpc	r24, r20
    24d4:	ba 07       	cpc	r27, r26
    24d6:	20 f0       	brcs	.+8      	; 0x24e0 <__divsf3_pse+0xaa>
    24d8:	62 1b       	sub	r22, r18
    24da:	73 0b       	sbc	r23, r19
    24dc:	84 0b       	sbc	r24, r20
    24de:	ba 0b       	sbc	r27, r26
    24e0:	ee 1f       	adc	r30, r30
    24e2:	88 f7       	brcc	.-30     	; 0x24c6 <__divsf3_pse+0x90>
    24e4:	e0 95       	com	r30
    24e6:	08 95       	ret

000024e8 <__fixsfsi>:
    24e8:	04 d0       	rcall	.+8      	; 0x24f2 <__fixunssfsi>
    24ea:	68 94       	set
    24ec:	b1 11       	cpse	r27, r1
    24ee:	2e c1       	rjmp	.+604    	; 0x274c <__fp_szero>
    24f0:	08 95       	ret

000024f2 <__fixunssfsi>:
    24f2:	11 d1       	rcall	.+546    	; 0x2716 <__fp_splitA>
    24f4:	88 f0       	brcs	.+34     	; 0x2518 <__fixunssfsi+0x26>
    24f6:	9f 57       	subi	r25, 0x7F	; 127
    24f8:	90 f0       	brcs	.+36     	; 0x251e <__fixunssfsi+0x2c>
    24fa:	b9 2f       	mov	r27, r25
    24fc:	99 27       	eor	r25, r25
    24fe:	b7 51       	subi	r27, 0x17	; 23
    2500:	a0 f0       	brcs	.+40     	; 0x252a <__fixunssfsi+0x38>
    2502:	d1 f0       	breq	.+52     	; 0x2538 <__fixunssfsi+0x46>
    2504:	66 0f       	add	r22, r22
    2506:	77 1f       	adc	r23, r23
    2508:	88 1f       	adc	r24, r24
    250a:	99 1f       	adc	r25, r25
    250c:	1a f0       	brmi	.+6      	; 0x2514 <__fixunssfsi+0x22>
    250e:	ba 95       	dec	r27
    2510:	c9 f7       	brne	.-14     	; 0x2504 <__fixunssfsi+0x12>
    2512:	12 c0       	rjmp	.+36     	; 0x2538 <__fixunssfsi+0x46>
    2514:	b1 30       	cpi	r27, 0x01	; 1
    2516:	81 f0       	breq	.+32     	; 0x2538 <__fixunssfsi+0x46>
    2518:	18 d1       	rcall	.+560    	; 0x274a <__fp_zero>
    251a:	b1 e0       	ldi	r27, 0x01	; 1
    251c:	08 95       	ret
    251e:	15 c1       	rjmp	.+554    	; 0x274a <__fp_zero>
    2520:	67 2f       	mov	r22, r23
    2522:	78 2f       	mov	r23, r24
    2524:	88 27       	eor	r24, r24
    2526:	b8 5f       	subi	r27, 0xF8	; 248
    2528:	39 f0       	breq	.+14     	; 0x2538 <__fixunssfsi+0x46>
    252a:	b9 3f       	cpi	r27, 0xF9	; 249
    252c:	cc f3       	brlt	.-14     	; 0x2520 <__fixunssfsi+0x2e>
    252e:	86 95       	lsr	r24
    2530:	77 95       	ror	r23
    2532:	67 95       	ror	r22
    2534:	b3 95       	inc	r27
    2536:	d9 f7       	brne	.-10     	; 0x252e <__fixunssfsi+0x3c>
    2538:	3e f4       	brtc	.+14     	; 0x2548 <__fixunssfsi+0x56>
    253a:	90 95       	com	r25
    253c:	80 95       	com	r24
    253e:	70 95       	com	r23
    2540:	61 95       	neg	r22
    2542:	7f 4f       	sbci	r23, 0xFF	; 255
    2544:	8f 4f       	sbci	r24, 0xFF	; 255
    2546:	9f 4f       	sbci	r25, 0xFF	; 255
    2548:	08 95       	ret

0000254a <__floatunsisf>:
    254a:	e8 94       	clt
    254c:	09 c0       	rjmp	.+18     	; 0x2560 <__floatsisf+0x12>

0000254e <__floatsisf>:
    254e:	97 fb       	bst	r25, 7
    2550:	3e f4       	brtc	.+14     	; 0x2560 <__floatsisf+0x12>
    2552:	90 95       	com	r25
    2554:	80 95       	com	r24
    2556:	70 95       	com	r23
    2558:	61 95       	neg	r22
    255a:	7f 4f       	sbci	r23, 0xFF	; 255
    255c:	8f 4f       	sbci	r24, 0xFF	; 255
    255e:	9f 4f       	sbci	r25, 0xFF	; 255
    2560:	99 23       	and	r25, r25
    2562:	a9 f0       	breq	.+42     	; 0x258e <__floatsisf+0x40>
    2564:	f9 2f       	mov	r31, r25
    2566:	96 e9       	ldi	r25, 0x96	; 150
    2568:	bb 27       	eor	r27, r27
    256a:	93 95       	inc	r25
    256c:	f6 95       	lsr	r31
    256e:	87 95       	ror	r24
    2570:	77 95       	ror	r23
    2572:	67 95       	ror	r22
    2574:	b7 95       	ror	r27
    2576:	f1 11       	cpse	r31, r1
    2578:	f8 cf       	rjmp	.-16     	; 0x256a <__floatsisf+0x1c>
    257a:	fa f4       	brpl	.+62     	; 0x25ba <__floatsisf+0x6c>
    257c:	bb 0f       	add	r27, r27
    257e:	11 f4       	brne	.+4      	; 0x2584 <__floatsisf+0x36>
    2580:	60 ff       	sbrs	r22, 0
    2582:	1b c0       	rjmp	.+54     	; 0x25ba <__floatsisf+0x6c>
    2584:	6f 5f       	subi	r22, 0xFF	; 255
    2586:	7f 4f       	sbci	r23, 0xFF	; 255
    2588:	8f 4f       	sbci	r24, 0xFF	; 255
    258a:	9f 4f       	sbci	r25, 0xFF	; 255
    258c:	16 c0       	rjmp	.+44     	; 0x25ba <__floatsisf+0x6c>
    258e:	88 23       	and	r24, r24
    2590:	11 f0       	breq	.+4      	; 0x2596 <__floatsisf+0x48>
    2592:	96 e9       	ldi	r25, 0x96	; 150
    2594:	11 c0       	rjmp	.+34     	; 0x25b8 <__floatsisf+0x6a>
    2596:	77 23       	and	r23, r23
    2598:	21 f0       	breq	.+8      	; 0x25a2 <__floatsisf+0x54>
    259a:	9e e8       	ldi	r25, 0x8E	; 142
    259c:	87 2f       	mov	r24, r23
    259e:	76 2f       	mov	r23, r22
    25a0:	05 c0       	rjmp	.+10     	; 0x25ac <__floatsisf+0x5e>
    25a2:	66 23       	and	r22, r22
    25a4:	71 f0       	breq	.+28     	; 0x25c2 <__floatsisf+0x74>
    25a6:	96 e8       	ldi	r25, 0x86	; 134
    25a8:	86 2f       	mov	r24, r22
    25aa:	70 e0       	ldi	r23, 0x00	; 0
    25ac:	60 e0       	ldi	r22, 0x00	; 0
    25ae:	2a f0       	brmi	.+10     	; 0x25ba <__floatsisf+0x6c>
    25b0:	9a 95       	dec	r25
    25b2:	66 0f       	add	r22, r22
    25b4:	77 1f       	adc	r23, r23
    25b6:	88 1f       	adc	r24, r24
    25b8:	da f7       	brpl	.-10     	; 0x25b0 <__floatsisf+0x62>
    25ba:	88 0f       	add	r24, r24
    25bc:	96 95       	lsr	r25
    25be:	87 95       	ror	r24
    25c0:	97 f9       	bld	r25, 7
    25c2:	08 95       	ret

000025c4 <__fp_arccos>:
    25c4:	df 93       	push	r29
    25c6:	cf 93       	push	r28
    25c8:	1f 93       	push	r17
    25ca:	0f 93       	push	r16
    25cc:	8b 01       	movw	r16, r22
    25ce:	ec 01       	movw	r28, r24
    25d0:	e9 eb       	ldi	r30, 0xB9	; 185
    25d2:	f0 e0       	ldi	r31, 0x00	; 0
    25d4:	1b d0       	rcall	.+54     	; 0x260c <__fp_powser>
    25d6:	75 d0       	rcall	.+234    	; 0x26c2 <__fp_round>
    25d8:	98 01       	movw	r18, r16
    25da:	ae 01       	movw	r20, r28
    25dc:	8b 01       	movw	r16, r22
    25de:	ec 01       	movw	r28, r24
    25e0:	60 e0       	ldi	r22, 0x00	; 0
    25e2:	70 e0       	ldi	r23, 0x00	; 0
    25e4:	80 e8       	ldi	r24, 0x80	; 128
    25e6:	9f e3       	ldi	r25, 0x3F	; 63
    25e8:	4d de       	rcall	.-870    	; 0x2284 <__subsf3>
    25ea:	2a d1       	rcall	.+596    	; 0x2840 <sqrt>
    25ec:	98 01       	movw	r18, r16
    25ee:	ae 01       	movw	r20, r28
    25f0:	0f 91       	pop	r16
    25f2:	1f 91       	pop	r17
    25f4:	cf 91       	pop	r28
    25f6:	df 91       	pop	r29
    25f8:	c2 c0       	rjmp	.+388    	; 0x277e <__mulsf3x>

000025fa <__fp_inf>:
    25fa:	97 f9       	bld	r25, 7
    25fc:	9f 67       	ori	r25, 0x7F	; 127
    25fe:	80 e8       	ldi	r24, 0x80	; 128
    2600:	70 e0       	ldi	r23, 0x00	; 0
    2602:	60 e0       	ldi	r22, 0x00	; 0
    2604:	08 95       	ret

00002606 <__fp_nan>:
    2606:	9f ef       	ldi	r25, 0xFF	; 255
    2608:	80 ec       	ldi	r24, 0xC0	; 192
    260a:	08 95       	ret

0000260c <__fp_powser>:
    260c:	df 93       	push	r29
    260e:	cf 93       	push	r28
    2610:	1f 93       	push	r17
    2612:	0f 93       	push	r16
    2614:	ff 92       	push	r15
    2616:	ef 92       	push	r14
    2618:	df 92       	push	r13
    261a:	7b 01       	movw	r14, r22
    261c:	8c 01       	movw	r16, r24
    261e:	68 94       	set
    2620:	05 c0       	rjmp	.+10     	; 0x262c <__fp_powser+0x20>
    2622:	da 2e       	mov	r13, r26
    2624:	ef 01       	movw	r28, r30
    2626:	ab d0       	rcall	.+342    	; 0x277e <__mulsf3x>
    2628:	fe 01       	movw	r30, r28
    262a:	e8 94       	clt
    262c:	a5 91       	lpm	r26, Z+
    262e:	25 91       	lpm	r18, Z+
    2630:	35 91       	lpm	r19, Z+
    2632:	45 91       	lpm	r20, Z+
    2634:	55 91       	lpm	r21, Z+
    2636:	ae f3       	brts	.-22     	; 0x2622 <__fp_powser+0x16>
    2638:	ef 01       	movw	r28, r30
    263a:	36 de       	rcall	.-916    	; 0x22a8 <__addsf3x>
    263c:	fe 01       	movw	r30, r28
    263e:	97 01       	movw	r18, r14
    2640:	a8 01       	movw	r20, r16
    2642:	da 94       	dec	r13
    2644:	79 f7       	brne	.-34     	; 0x2624 <__fp_powser+0x18>
    2646:	df 90       	pop	r13
    2648:	ef 90       	pop	r14
    264a:	ff 90       	pop	r15
    264c:	0f 91       	pop	r16
    264e:	1f 91       	pop	r17
    2650:	cf 91       	pop	r28
    2652:	df 91       	pop	r29
    2654:	08 95       	ret

00002656 <__fp_pscA>:
    2656:	00 24       	eor	r0, r0
    2658:	0a 94       	dec	r0
    265a:	16 16       	cp	r1, r22
    265c:	17 06       	cpc	r1, r23
    265e:	18 06       	cpc	r1, r24
    2660:	09 06       	cpc	r0, r25
    2662:	08 95       	ret

00002664 <__fp_pscB>:
    2664:	00 24       	eor	r0, r0
    2666:	0a 94       	dec	r0
    2668:	12 16       	cp	r1, r18
    266a:	13 06       	cpc	r1, r19
    266c:	14 06       	cpc	r1, r20
    266e:	05 06       	cpc	r0, r21
    2670:	08 95       	ret
    2672:	c9 cf       	rjmp	.-110    	; 0x2606 <__fp_nan>

00002674 <__fp_rempio2>:
    2674:	50 d0       	rcall	.+160    	; 0x2716 <__fp_splitA>
    2676:	e8 f3       	brcs	.-6      	; 0x2672 <__fp_pscB+0xe>
    2678:	e8 94       	clt
    267a:	e0 e0       	ldi	r30, 0x00	; 0
    267c:	bb 27       	eor	r27, r27
    267e:	9f 57       	subi	r25, 0x7F	; 127
    2680:	f0 f0       	brcs	.+60     	; 0x26be <__fp_rempio2+0x4a>
    2682:	2a ed       	ldi	r18, 0xDA	; 218
    2684:	3f e0       	ldi	r19, 0x0F	; 15
    2686:	49 ec       	ldi	r20, 0xC9	; 201
    2688:	06 c0       	rjmp	.+12     	; 0x2696 <__fp_rempio2+0x22>
    268a:	ee 0f       	add	r30, r30
    268c:	bb 0f       	add	r27, r27
    268e:	66 1f       	adc	r22, r22
    2690:	77 1f       	adc	r23, r23
    2692:	88 1f       	adc	r24, r24
    2694:	28 f0       	brcs	.+10     	; 0x26a0 <__fp_rempio2+0x2c>
    2696:	b2 3a       	cpi	r27, 0xA2	; 162
    2698:	62 07       	cpc	r22, r18
    269a:	73 07       	cpc	r23, r19
    269c:	84 07       	cpc	r24, r20
    269e:	28 f0       	brcs	.+10     	; 0x26aa <__fp_rempio2+0x36>
    26a0:	b2 5a       	subi	r27, 0xA2	; 162
    26a2:	62 0b       	sbc	r22, r18
    26a4:	73 0b       	sbc	r23, r19
    26a6:	84 0b       	sbc	r24, r20
    26a8:	e3 95       	inc	r30
    26aa:	9a 95       	dec	r25
    26ac:	72 f7       	brpl	.-36     	; 0x268a <__fp_rempio2+0x16>
    26ae:	80 38       	cpi	r24, 0x80	; 128
    26b0:	30 f4       	brcc	.+12     	; 0x26be <__fp_rempio2+0x4a>
    26b2:	9a 95       	dec	r25
    26b4:	bb 0f       	add	r27, r27
    26b6:	66 1f       	adc	r22, r22
    26b8:	77 1f       	adc	r23, r23
    26ba:	88 1f       	adc	r24, r24
    26bc:	d2 f7       	brpl	.-12     	; 0x26b2 <__fp_rempio2+0x3e>
    26be:	90 48       	sbci	r25, 0x80	; 128
    26c0:	02 c1       	rjmp	.+516    	; 0x28c6 <__fp_mpack_finite>

000026c2 <__fp_round>:
    26c2:	09 2e       	mov	r0, r25
    26c4:	03 94       	inc	r0
    26c6:	00 0c       	add	r0, r0
    26c8:	11 f4       	brne	.+4      	; 0x26ce <__fp_round+0xc>
    26ca:	88 23       	and	r24, r24
    26cc:	52 f0       	brmi	.+20     	; 0x26e2 <__fp_round+0x20>
    26ce:	bb 0f       	add	r27, r27
    26d0:	40 f4       	brcc	.+16     	; 0x26e2 <__fp_round+0x20>
    26d2:	bf 2b       	or	r27, r31
    26d4:	11 f4       	brne	.+4      	; 0x26da <__fp_round+0x18>
    26d6:	60 ff       	sbrs	r22, 0
    26d8:	04 c0       	rjmp	.+8      	; 0x26e2 <__fp_round+0x20>
    26da:	6f 5f       	subi	r22, 0xFF	; 255
    26dc:	7f 4f       	sbci	r23, 0xFF	; 255
    26de:	8f 4f       	sbci	r24, 0xFF	; 255
    26e0:	9f 4f       	sbci	r25, 0xFF	; 255
    26e2:	08 95       	ret

000026e4 <__fp_sinus>:
    26e4:	ef 93       	push	r30
    26e6:	e0 ff       	sbrs	r30, 0
    26e8:	06 c0       	rjmp	.+12     	; 0x26f6 <__fp_sinus+0x12>
    26ea:	a2 ea       	ldi	r26, 0xA2	; 162
    26ec:	2a ed       	ldi	r18, 0xDA	; 218
    26ee:	3f e0       	ldi	r19, 0x0F	; 15
    26f0:	49 ec       	ldi	r20, 0xC9	; 201
    26f2:	5f eb       	ldi	r21, 0xBF	; 191
    26f4:	d9 dd       	rcall	.-1102   	; 0x22a8 <__addsf3x>
    26f6:	e5 df       	rcall	.-54     	; 0x26c2 <__fp_round>
    26f8:	0f 90       	pop	r0
    26fa:	03 94       	inc	r0
    26fc:	01 fc       	sbrc	r0, 1
    26fe:	90 58       	subi	r25, 0x80	; 128
    2700:	e1 ee       	ldi	r30, 0xE1	; 225
    2702:	f0 e0       	ldi	r31, 0x00	; 0
    2704:	f3 c0       	rjmp	.+486    	; 0x28ec <__fp_powsodd>

00002706 <__fp_split3>:
    2706:	57 fd       	sbrc	r21, 7
    2708:	90 58       	subi	r25, 0x80	; 128
    270a:	44 0f       	add	r20, r20
    270c:	55 1f       	adc	r21, r21
    270e:	59 f0       	breq	.+22     	; 0x2726 <__fp_splitA+0x10>
    2710:	5f 3f       	cpi	r21, 0xFF	; 255
    2712:	71 f0       	breq	.+28     	; 0x2730 <__fp_splitA+0x1a>
    2714:	47 95       	ror	r20

00002716 <__fp_splitA>:
    2716:	88 0f       	add	r24, r24
    2718:	97 fb       	bst	r25, 7
    271a:	99 1f       	adc	r25, r25
    271c:	61 f0       	breq	.+24     	; 0x2736 <__fp_splitA+0x20>
    271e:	9f 3f       	cpi	r25, 0xFF	; 255
    2720:	79 f0       	breq	.+30     	; 0x2740 <__fp_splitA+0x2a>
    2722:	87 95       	ror	r24
    2724:	08 95       	ret
    2726:	12 16       	cp	r1, r18
    2728:	13 06       	cpc	r1, r19
    272a:	14 06       	cpc	r1, r20
    272c:	55 1f       	adc	r21, r21
    272e:	f2 cf       	rjmp	.-28     	; 0x2714 <__fp_split3+0xe>
    2730:	46 95       	lsr	r20
    2732:	f1 df       	rcall	.-30     	; 0x2716 <__fp_splitA>
    2734:	08 c0       	rjmp	.+16     	; 0x2746 <__fp_splitA+0x30>
    2736:	16 16       	cp	r1, r22
    2738:	17 06       	cpc	r1, r23
    273a:	18 06       	cpc	r1, r24
    273c:	99 1f       	adc	r25, r25
    273e:	f1 cf       	rjmp	.-30     	; 0x2722 <__fp_splitA+0xc>
    2740:	86 95       	lsr	r24
    2742:	71 05       	cpc	r23, r1
    2744:	61 05       	cpc	r22, r1
    2746:	08 94       	sec
    2748:	08 95       	ret

0000274a <__fp_zero>:
    274a:	e8 94       	clt

0000274c <__fp_szero>:
    274c:	bb 27       	eor	r27, r27
    274e:	66 27       	eor	r22, r22
    2750:	77 27       	eor	r23, r23
    2752:	cb 01       	movw	r24, r22
    2754:	97 f9       	bld	r25, 7
    2756:	08 95       	ret

00002758 <inverse>:
    2758:	9b 01       	movw	r18, r22
    275a:	ac 01       	movw	r20, r24
    275c:	60 e0       	ldi	r22, 0x00	; 0
    275e:	70 e0       	ldi	r23, 0x00	; 0
    2760:	80 e8       	ldi	r24, 0x80	; 128
    2762:	9f e3       	ldi	r25, 0x3F	; 63
    2764:	59 ce       	rjmp	.-846    	; 0x2418 <__divsf3>

00002766 <__mulsf3>:
    2766:	0b d0       	rcall	.+22     	; 0x277e <__mulsf3x>
    2768:	ac cf       	rjmp	.-168    	; 0x26c2 <__fp_round>
    276a:	75 df       	rcall	.-278    	; 0x2656 <__fp_pscA>
    276c:	28 f0       	brcs	.+10     	; 0x2778 <__mulsf3+0x12>
    276e:	7a df       	rcall	.-268    	; 0x2664 <__fp_pscB>
    2770:	18 f0       	brcs	.+6      	; 0x2778 <__mulsf3+0x12>
    2772:	95 23       	and	r25, r21
    2774:	09 f0       	breq	.+2      	; 0x2778 <__mulsf3+0x12>
    2776:	41 cf       	rjmp	.-382    	; 0x25fa <__fp_inf>
    2778:	46 cf       	rjmp	.-372    	; 0x2606 <__fp_nan>
    277a:	11 24       	eor	r1, r1
    277c:	e7 cf       	rjmp	.-50     	; 0x274c <__fp_szero>

0000277e <__mulsf3x>:
    277e:	c3 df       	rcall	.-122    	; 0x2706 <__fp_split3>
    2780:	a0 f3       	brcs	.-24     	; 0x276a <__mulsf3+0x4>

00002782 <__mulsf3_pse>:
    2782:	95 9f       	mul	r25, r21
    2784:	d1 f3       	breq	.-12     	; 0x277a <__mulsf3+0x14>
    2786:	95 0f       	add	r25, r21
    2788:	50 e0       	ldi	r21, 0x00	; 0
    278a:	55 1f       	adc	r21, r21
    278c:	62 9f       	mul	r22, r18
    278e:	f0 01       	movw	r30, r0
    2790:	72 9f       	mul	r23, r18
    2792:	bb 27       	eor	r27, r27
    2794:	f0 0d       	add	r31, r0
    2796:	b1 1d       	adc	r27, r1
    2798:	63 9f       	mul	r22, r19
    279a:	aa 27       	eor	r26, r26
    279c:	f0 0d       	add	r31, r0
    279e:	b1 1d       	adc	r27, r1
    27a0:	aa 1f       	adc	r26, r26
    27a2:	64 9f       	mul	r22, r20
    27a4:	66 27       	eor	r22, r22
    27a6:	b0 0d       	add	r27, r0
    27a8:	a1 1d       	adc	r26, r1
    27aa:	66 1f       	adc	r22, r22
    27ac:	82 9f       	mul	r24, r18
    27ae:	22 27       	eor	r18, r18
    27b0:	b0 0d       	add	r27, r0
    27b2:	a1 1d       	adc	r26, r1
    27b4:	62 1f       	adc	r22, r18
    27b6:	73 9f       	mul	r23, r19
    27b8:	b0 0d       	add	r27, r0
    27ba:	a1 1d       	adc	r26, r1
    27bc:	62 1f       	adc	r22, r18
    27be:	83 9f       	mul	r24, r19
    27c0:	a0 0d       	add	r26, r0
    27c2:	61 1d       	adc	r22, r1
    27c4:	22 1f       	adc	r18, r18
    27c6:	74 9f       	mul	r23, r20
    27c8:	33 27       	eor	r19, r19
    27ca:	a0 0d       	add	r26, r0
    27cc:	61 1d       	adc	r22, r1
    27ce:	23 1f       	adc	r18, r19
    27d0:	84 9f       	mul	r24, r20
    27d2:	60 0d       	add	r22, r0
    27d4:	21 1d       	adc	r18, r1
    27d6:	82 2f       	mov	r24, r18
    27d8:	76 2f       	mov	r23, r22
    27da:	6a 2f       	mov	r22, r26
    27dc:	11 24       	eor	r1, r1
    27de:	9f 57       	subi	r25, 0x7F	; 127
    27e0:	50 40       	sbci	r21, 0x00	; 0
    27e2:	8a f0       	brmi	.+34     	; 0x2806 <__mulsf3_pse+0x84>
    27e4:	e1 f0       	breq	.+56     	; 0x281e <__mulsf3_pse+0x9c>
    27e6:	88 23       	and	r24, r24
    27e8:	4a f0       	brmi	.+18     	; 0x27fc <__mulsf3_pse+0x7a>
    27ea:	ee 0f       	add	r30, r30
    27ec:	ff 1f       	adc	r31, r31
    27ee:	bb 1f       	adc	r27, r27
    27f0:	66 1f       	adc	r22, r22
    27f2:	77 1f       	adc	r23, r23
    27f4:	88 1f       	adc	r24, r24
    27f6:	91 50       	subi	r25, 0x01	; 1
    27f8:	50 40       	sbci	r21, 0x00	; 0
    27fa:	a9 f7       	brne	.-22     	; 0x27e6 <__mulsf3_pse+0x64>
    27fc:	9e 3f       	cpi	r25, 0xFE	; 254
    27fe:	51 05       	cpc	r21, r1
    2800:	70 f0       	brcs	.+28     	; 0x281e <__mulsf3_pse+0x9c>
    2802:	fb ce       	rjmp	.-522    	; 0x25fa <__fp_inf>
    2804:	a3 cf       	rjmp	.-186    	; 0x274c <__fp_szero>
    2806:	5f 3f       	cpi	r21, 0xFF	; 255
    2808:	ec f3       	brlt	.-6      	; 0x2804 <__mulsf3_pse+0x82>
    280a:	98 3e       	cpi	r25, 0xE8	; 232
    280c:	dc f3       	brlt	.-10     	; 0x2804 <__mulsf3_pse+0x82>
    280e:	86 95       	lsr	r24
    2810:	77 95       	ror	r23
    2812:	67 95       	ror	r22
    2814:	b7 95       	ror	r27
    2816:	f7 95       	ror	r31
    2818:	e7 95       	ror	r30
    281a:	9f 5f       	subi	r25, 0xFF	; 255
    281c:	c1 f7       	brne	.-16     	; 0x280e <__mulsf3_pse+0x8c>
    281e:	fe 2b       	or	r31, r30
    2820:	88 0f       	add	r24, r24
    2822:	91 1d       	adc	r25, r1
    2824:	96 95       	lsr	r25
    2826:	87 95       	ror	r24
    2828:	97 f9       	bld	r25, 7
    282a:	08 95       	ret

0000282c <sin>:
    282c:	9f 93       	push	r25
    282e:	22 df       	rcall	.-444    	; 0x2674 <__fp_rempio2>
    2830:	0f 90       	pop	r0
    2832:	07 fc       	sbrc	r0, 7
    2834:	ee 5f       	subi	r30, 0xFE	; 254
    2836:	56 cf       	rjmp	.-340    	; 0x26e4 <__fp_sinus>
    2838:	11 f4       	brne	.+4      	; 0x283e <sin+0x12>
    283a:	0e f4       	brtc	.+2      	; 0x283e <sin+0x12>
    283c:	e4 ce       	rjmp	.-568    	; 0x2606 <__fp_nan>
    283e:	41 c0       	rjmp	.+130    	; 0x28c2 <__fp_mpack>

00002840 <sqrt>:
    2840:	6a df       	rcall	.-300    	; 0x2716 <__fp_splitA>
    2842:	d0 f3       	brcs	.-12     	; 0x2838 <sin+0xc>
    2844:	99 23       	and	r25, r25
    2846:	d9 f3       	breq	.-10     	; 0x283e <sin+0x12>
    2848:	ce f3       	brts	.-14     	; 0x283c <sin+0x10>
    284a:	9f 57       	subi	r25, 0x7F	; 127
    284c:	55 0b       	sbc	r21, r21
    284e:	87 ff       	sbrs	r24, 7
    2850:	46 d0       	rcall	.+140    	; 0x28de <__fp_norm2>
    2852:	00 24       	eor	r0, r0
    2854:	a0 e6       	ldi	r26, 0x60	; 96
    2856:	40 ea       	ldi	r20, 0xA0	; 160
    2858:	90 01       	movw	r18, r0
    285a:	80 58       	subi	r24, 0x80	; 128
    285c:	56 95       	lsr	r21
    285e:	97 95       	ror	r25
    2860:	28 f4       	brcc	.+10     	; 0x286c <sqrt+0x2c>
    2862:	80 5c       	subi	r24, 0xC0	; 192
    2864:	66 0f       	add	r22, r22
    2866:	77 1f       	adc	r23, r23
    2868:	88 1f       	adc	r24, r24
    286a:	20 f0       	brcs	.+8      	; 0x2874 <sqrt+0x34>
    286c:	26 17       	cp	r18, r22
    286e:	37 07       	cpc	r19, r23
    2870:	48 07       	cpc	r20, r24
    2872:	30 f4       	brcc	.+12     	; 0x2880 <sqrt+0x40>
    2874:	62 1b       	sub	r22, r18
    2876:	73 0b       	sbc	r23, r19
    2878:	84 0b       	sbc	r24, r20
    287a:	20 29       	or	r18, r0
    287c:	31 29       	or	r19, r1
    287e:	4a 2b       	or	r20, r26
    2880:	a6 95       	lsr	r26
    2882:	17 94       	ror	r1
    2884:	07 94       	ror	r0
    2886:	20 25       	eor	r18, r0
    2888:	31 25       	eor	r19, r1
    288a:	4a 27       	eor	r20, r26
    288c:	58 f7       	brcc	.-42     	; 0x2864 <sqrt+0x24>
    288e:	66 0f       	add	r22, r22
    2890:	77 1f       	adc	r23, r23
    2892:	88 1f       	adc	r24, r24
    2894:	20 f0       	brcs	.+8      	; 0x289e <sqrt+0x5e>
    2896:	26 17       	cp	r18, r22
    2898:	37 07       	cpc	r19, r23
    289a:	48 07       	cpc	r20, r24
    289c:	30 f4       	brcc	.+12     	; 0x28aa <sqrt+0x6a>
    289e:	62 0b       	sbc	r22, r18
    28a0:	73 0b       	sbc	r23, r19
    28a2:	84 0b       	sbc	r24, r20
    28a4:	20 0d       	add	r18, r0
    28a6:	31 1d       	adc	r19, r1
    28a8:	41 1d       	adc	r20, r1
    28aa:	a0 95       	com	r26
    28ac:	81 f7       	brne	.-32     	; 0x288e <sqrt+0x4e>
    28ae:	b9 01       	movw	r22, r18
    28b0:	84 2f       	mov	r24, r20
    28b2:	91 58       	subi	r25, 0x81	; 129
    28b4:	88 0f       	add	r24, r24
    28b6:	96 95       	lsr	r25
    28b8:	87 95       	ror	r24
    28ba:	08 95       	ret

000028bc <square>:
    28bc:	9b 01       	movw	r18, r22
    28be:	ac 01       	movw	r20, r24
    28c0:	52 cf       	rjmp	.-348    	; 0x2766 <__mulsf3>

000028c2 <__fp_mpack>:
    28c2:	9f 3f       	cpi	r25, 0xFF	; 255
    28c4:	31 f0       	breq	.+12     	; 0x28d2 <__fp_mpack_finite+0xc>

000028c6 <__fp_mpack_finite>:
    28c6:	91 50       	subi	r25, 0x01	; 1
    28c8:	20 f4       	brcc	.+8      	; 0x28d2 <__fp_mpack_finite+0xc>
    28ca:	87 95       	ror	r24
    28cc:	77 95       	ror	r23
    28ce:	67 95       	ror	r22
    28d0:	b7 95       	ror	r27
    28d2:	88 0f       	add	r24, r24
    28d4:	91 1d       	adc	r25, r1
    28d6:	96 95       	lsr	r25
    28d8:	87 95       	ror	r24
    28da:	97 f9       	bld	r25, 7
    28dc:	08 95       	ret

000028de <__fp_norm2>:
    28de:	91 50       	subi	r25, 0x01	; 1
    28e0:	50 40       	sbci	r21, 0x00	; 0
    28e2:	66 0f       	add	r22, r22
    28e4:	77 1f       	adc	r23, r23
    28e6:	88 1f       	adc	r24, r24
    28e8:	d2 f7       	brpl	.-12     	; 0x28de <__fp_norm2>
    28ea:	08 95       	ret

000028ec <__fp_powsodd>:
    28ec:	9f 93       	push	r25
    28ee:	8f 93       	push	r24
    28f0:	7f 93       	push	r23
    28f2:	6f 93       	push	r22
    28f4:	ff 93       	push	r31
    28f6:	ef 93       	push	r30
    28f8:	9b 01       	movw	r18, r22
    28fa:	ac 01       	movw	r20, r24
    28fc:	34 df       	rcall	.-408    	; 0x2766 <__mulsf3>
    28fe:	ef 91       	pop	r30
    2900:	ff 91       	pop	r31
    2902:	84 de       	rcall	.-760    	; 0x260c <__fp_powser>
    2904:	2f 91       	pop	r18
    2906:	3f 91       	pop	r19
    2908:	4f 91       	pop	r20
    290a:	5f 91       	pop	r21
    290c:	2c cf       	rjmp	.-424    	; 0x2766 <__mulsf3>

0000290e <__udivmodhi4>:
    290e:	aa 1b       	sub	r26, r26
    2910:	bb 1b       	sub	r27, r27
    2912:	51 e1       	ldi	r21, 0x11	; 17
    2914:	07 c0       	rjmp	.+14     	; 0x2924 <__udivmodhi4_ep>

00002916 <__udivmodhi4_loop>:
    2916:	aa 1f       	adc	r26, r26
    2918:	bb 1f       	adc	r27, r27
    291a:	a6 17       	cp	r26, r22
    291c:	b7 07       	cpc	r27, r23
    291e:	10 f0       	brcs	.+4      	; 0x2924 <__udivmodhi4_ep>
    2920:	a6 1b       	sub	r26, r22
    2922:	b7 0b       	sbc	r27, r23

00002924 <__udivmodhi4_ep>:
    2924:	88 1f       	adc	r24, r24
    2926:	99 1f       	adc	r25, r25
    2928:	5a 95       	dec	r21
    292a:	a9 f7       	brne	.-22     	; 0x2916 <__udivmodhi4_loop>
    292c:	80 95       	com	r24
    292e:	90 95       	com	r25
    2930:	bc 01       	movw	r22, r24
    2932:	cd 01       	movw	r24, r26
    2934:	08 95       	ret

00002936 <__divmodsi4>:
    2936:	97 fb       	bst	r25, 7
    2938:	09 2e       	mov	r0, r25
    293a:	05 26       	eor	r0, r21
    293c:	0e d0       	rcall	.+28     	; 0x295a <__divmodsi4_neg1>
    293e:	57 fd       	sbrc	r21, 7
    2940:	04 d0       	rcall	.+8      	; 0x294a <__divmodsi4_neg2>
    2942:	14 d0       	rcall	.+40     	; 0x296c <__udivmodsi4>
    2944:	0a d0       	rcall	.+20     	; 0x295a <__divmodsi4_neg1>
    2946:	00 1c       	adc	r0, r0
    2948:	38 f4       	brcc	.+14     	; 0x2958 <__divmodsi4_exit>

0000294a <__divmodsi4_neg2>:
    294a:	50 95       	com	r21
    294c:	40 95       	com	r20
    294e:	30 95       	com	r19
    2950:	21 95       	neg	r18
    2952:	3f 4f       	sbci	r19, 0xFF	; 255
    2954:	4f 4f       	sbci	r20, 0xFF	; 255
    2956:	5f 4f       	sbci	r21, 0xFF	; 255

00002958 <__divmodsi4_exit>:
    2958:	08 95       	ret

0000295a <__divmodsi4_neg1>:
    295a:	f6 f7       	brtc	.-4      	; 0x2958 <__divmodsi4_exit>
    295c:	90 95       	com	r25
    295e:	80 95       	com	r24
    2960:	70 95       	com	r23
    2962:	61 95       	neg	r22
    2964:	7f 4f       	sbci	r23, 0xFF	; 255
    2966:	8f 4f       	sbci	r24, 0xFF	; 255
    2968:	9f 4f       	sbci	r25, 0xFF	; 255
    296a:	08 95       	ret

0000296c <__udivmodsi4>:
    296c:	a1 e2       	ldi	r26, 0x21	; 33
    296e:	1a 2e       	mov	r1, r26
    2970:	aa 1b       	sub	r26, r26
    2972:	bb 1b       	sub	r27, r27
    2974:	fd 01       	movw	r30, r26
    2976:	0d c0       	rjmp	.+26     	; 0x2992 <__udivmodsi4_ep>

00002978 <__udivmodsi4_loop>:
    2978:	aa 1f       	adc	r26, r26
    297a:	bb 1f       	adc	r27, r27
    297c:	ee 1f       	adc	r30, r30
    297e:	ff 1f       	adc	r31, r31
    2980:	a2 17       	cp	r26, r18
    2982:	b3 07       	cpc	r27, r19
    2984:	e4 07       	cpc	r30, r20
    2986:	f5 07       	cpc	r31, r21
    2988:	20 f0       	brcs	.+8      	; 0x2992 <__udivmodsi4_ep>
    298a:	a2 1b       	sub	r26, r18
    298c:	b3 0b       	sbc	r27, r19
    298e:	e4 0b       	sbc	r30, r20
    2990:	f5 0b       	sbc	r31, r21

00002992 <__udivmodsi4_ep>:
    2992:	66 1f       	adc	r22, r22
    2994:	77 1f       	adc	r23, r23
    2996:	88 1f       	adc	r24, r24
    2998:	99 1f       	adc	r25, r25
    299a:	1a 94       	dec	r1
    299c:	69 f7       	brne	.-38     	; 0x2978 <__udivmodsi4_loop>
    299e:	60 95       	com	r22
    29a0:	70 95       	com	r23
    29a2:	80 95       	com	r24
    29a4:	90 95       	com	r25
    29a6:	9b 01       	movw	r18, r22
    29a8:	ac 01       	movw	r20, r24
    29aa:	bd 01       	movw	r22, r26
    29ac:	cf 01       	movw	r24, r30
    29ae:	08 95       	ret

000029b0 <__tablejump_elpm__>:
    29b0:	07 90       	elpm	r0, Z+
    29b2:	f6 91       	elpm	r31, Z
    29b4:	e0 2d       	mov	r30, r0
    29b6:	09 94       	ijmp

000029b8 <_exit>:
    29b8:	f8 94       	cli

000029ba <__stop_program>:
    29ba:	ff cf       	rjmp	.-2      	; 0x29ba <__stop_program>
